ARM GAS  /tmp/ccz6Q3rQ.s 			page 1


   1              		.cpu cortex-m4
   2              		.eabi_attribute 27, 1
   3              		.eabi_attribute 28, 1
   4              		.eabi_attribute 20, 1
   5              		.eabi_attribute 21, 1
   6              		.eabi_attribute 23, 3
   7              		.eabi_attribute 24, 1
   8              		.eabi_attribute 25, 1
   9              		.eabi_attribute 26, 1
  10              		.eabi_attribute 30, 1
  11              		.eabi_attribute 34, 1
  12              		.eabi_attribute 18, 4
  13              		.file	"stm32f4xx_hal_rcc.c"
  14              		.text
  15              	.Ltext0:
  16              		.cfi_sections	.debug_frame
  17              		.section	.text.HAL_RCC_DeInit,"ax",%progbits
  18              		.align	1
  19              		.weak	HAL_RCC_DeInit
  20              		.arch armv7e-m
  21              		.syntax unified
  22              		.thumb
  23              		.thumb_func
  24              		.fpu fpv4-sp-d16
  26              	HAL_RCC_DeInit:
  27              	.LFB134:
  28              		.file 1 "/home/vtrnnhlinh/STM32Cube/Repository/STM32Cube_FW_F4_V1.28.0/Drivers/STM32F4xx_HAL_Drive
   1:/home/vtrnnhlinh/STM32Cube/Repository/STM32Cube_FW_F4_V1.28.0/Drivers/STM32F4xx_HAL_Driver/Src/stm32f4xx_hal_rcc.c **** /**
   2:/home/vtrnnhlinh/STM32Cube/Repository/STM32Cube_FW_F4_V1.28.0/Drivers/STM32F4xx_HAL_Driver/Src/stm32f4xx_hal_rcc.c ****   ******************************************************************************
   3:/home/vtrnnhlinh/STM32Cube/Repository/STM32Cube_FW_F4_V1.28.0/Drivers/STM32F4xx_HAL_Driver/Src/stm32f4xx_hal_rcc.c ****   * @file    stm32f4xx_hal_rcc.c
   4:/home/vtrnnhlinh/STM32Cube/Repository/STM32Cube_FW_F4_V1.28.0/Drivers/STM32F4xx_HAL_Driver/Src/stm32f4xx_hal_rcc.c ****   * @author  MCD Application Team
   5:/home/vtrnnhlinh/STM32Cube/Repository/STM32Cube_FW_F4_V1.28.0/Drivers/STM32F4xx_HAL_Driver/Src/stm32f4xx_hal_rcc.c ****   * @brief   RCC HAL module driver.
   6:/home/vtrnnhlinh/STM32Cube/Repository/STM32Cube_FW_F4_V1.28.0/Drivers/STM32F4xx_HAL_Driver/Src/stm32f4xx_hal_rcc.c ****   *          This file provides firmware functions to manage the following
   7:/home/vtrnnhlinh/STM32Cube/Repository/STM32Cube_FW_F4_V1.28.0/Drivers/STM32F4xx_HAL_Driver/Src/stm32f4xx_hal_rcc.c ****   *          functionalities of the Reset and Clock Control (RCC) peripheral:
   8:/home/vtrnnhlinh/STM32Cube/Repository/STM32Cube_FW_F4_V1.28.0/Drivers/STM32F4xx_HAL_Driver/Src/stm32f4xx_hal_rcc.c ****   *           + Initialization and de-initialization functions
   9:/home/vtrnnhlinh/STM32Cube/Repository/STM32Cube_FW_F4_V1.28.0/Drivers/STM32F4xx_HAL_Driver/Src/stm32f4xx_hal_rcc.c ****   *           + Peripheral Control functions
  10:/home/vtrnnhlinh/STM32Cube/Repository/STM32Cube_FW_F4_V1.28.0/Drivers/STM32F4xx_HAL_Driver/Src/stm32f4xx_hal_rcc.c ****   *
  11:/home/vtrnnhlinh/STM32Cube/Repository/STM32Cube_FW_F4_V1.28.0/Drivers/STM32F4xx_HAL_Driver/Src/stm32f4xx_hal_rcc.c ****   @verbatim
  12:/home/vtrnnhlinh/STM32Cube/Repository/STM32Cube_FW_F4_V1.28.0/Drivers/STM32F4xx_HAL_Driver/Src/stm32f4xx_hal_rcc.c ****   ==============================================================================
  13:/home/vtrnnhlinh/STM32Cube/Repository/STM32Cube_FW_F4_V1.28.0/Drivers/STM32F4xx_HAL_Driver/Src/stm32f4xx_hal_rcc.c ****                       ##### RCC specific features #####
  14:/home/vtrnnhlinh/STM32Cube/Repository/STM32Cube_FW_F4_V1.28.0/Drivers/STM32F4xx_HAL_Driver/Src/stm32f4xx_hal_rcc.c ****   ==============================================================================
  15:/home/vtrnnhlinh/STM32Cube/Repository/STM32Cube_FW_F4_V1.28.0/Drivers/STM32F4xx_HAL_Driver/Src/stm32f4xx_hal_rcc.c ****     [..]
  16:/home/vtrnnhlinh/STM32Cube/Repository/STM32Cube_FW_F4_V1.28.0/Drivers/STM32F4xx_HAL_Driver/Src/stm32f4xx_hal_rcc.c ****       After reset the device is running from Internal High Speed oscillator
  17:/home/vtrnnhlinh/STM32Cube/Repository/STM32Cube_FW_F4_V1.28.0/Drivers/STM32F4xx_HAL_Driver/Src/stm32f4xx_hal_rcc.c ****       (HSI 16MHz) with Flash 0 wait state, Flash prefetch buffer, D-Cache
  18:/home/vtrnnhlinh/STM32Cube/Repository/STM32Cube_FW_F4_V1.28.0/Drivers/STM32F4xx_HAL_Driver/Src/stm32f4xx_hal_rcc.c ****       and I-Cache are disabled, and all peripherals are off except internal
  19:/home/vtrnnhlinh/STM32Cube/Repository/STM32Cube_FW_F4_V1.28.0/Drivers/STM32F4xx_HAL_Driver/Src/stm32f4xx_hal_rcc.c ****       SRAM, Flash and JTAG.
  20:/home/vtrnnhlinh/STM32Cube/Repository/STM32Cube_FW_F4_V1.28.0/Drivers/STM32F4xx_HAL_Driver/Src/stm32f4xx_hal_rcc.c ****       (+) There is no prescaler on High speed (AHB) and Low speed (APB) busses;
  21:/home/vtrnnhlinh/STM32Cube/Repository/STM32Cube_FW_F4_V1.28.0/Drivers/STM32F4xx_HAL_Driver/Src/stm32f4xx_hal_rcc.c ****           all peripherals mapped on these busses are running at HSI speed.
  22:/home/vtrnnhlinh/STM32Cube/Repository/STM32Cube_FW_F4_V1.28.0/Drivers/STM32F4xx_HAL_Driver/Src/stm32f4xx_hal_rcc.c ****       (+) The clock for all peripherals is switched off, except the SRAM and FLASH.
  23:/home/vtrnnhlinh/STM32Cube/Repository/STM32Cube_FW_F4_V1.28.0/Drivers/STM32F4xx_HAL_Driver/Src/stm32f4xx_hal_rcc.c ****       (+) All GPIOs are in input floating state, except the JTAG pins which
  24:/home/vtrnnhlinh/STM32Cube/Repository/STM32Cube_FW_F4_V1.28.0/Drivers/STM32F4xx_HAL_Driver/Src/stm32f4xx_hal_rcc.c ****           are assigned to be used for debug purpose.
  25:/home/vtrnnhlinh/STM32Cube/Repository/STM32Cube_FW_F4_V1.28.0/Drivers/STM32F4xx_HAL_Driver/Src/stm32f4xx_hal_rcc.c **** 
  26:/home/vtrnnhlinh/STM32Cube/Repository/STM32Cube_FW_F4_V1.28.0/Drivers/STM32F4xx_HAL_Driver/Src/stm32f4xx_hal_rcc.c ****     [..]
  27:/home/vtrnnhlinh/STM32Cube/Repository/STM32Cube_FW_F4_V1.28.0/Drivers/STM32F4xx_HAL_Driver/Src/stm32f4xx_hal_rcc.c ****       Once the device started from reset, the user application has to:
  28:/home/vtrnnhlinh/STM32Cube/Repository/STM32Cube_FW_F4_V1.28.0/Drivers/STM32F4xx_HAL_Driver/Src/stm32f4xx_hal_rcc.c ****       (+) Configure the clock source to be used to drive the System clock
  29:/home/vtrnnhlinh/STM32Cube/Repository/STM32Cube_FW_F4_V1.28.0/Drivers/STM32F4xx_HAL_Driver/Src/stm32f4xx_hal_rcc.c ****           (if the application needs higher frequency/performance)
  30:/home/vtrnnhlinh/STM32Cube/Repository/STM32Cube_FW_F4_V1.28.0/Drivers/STM32F4xx_HAL_Driver/Src/stm32f4xx_hal_rcc.c ****       (+) Configure the System clock frequency and Flash settings
ARM GAS  /tmp/ccz6Q3rQ.s 			page 2


  31:/home/vtrnnhlinh/STM32Cube/Repository/STM32Cube_FW_F4_V1.28.0/Drivers/STM32F4xx_HAL_Driver/Src/stm32f4xx_hal_rcc.c ****       (+) Configure the AHB and APB busses prescalers
  32:/home/vtrnnhlinh/STM32Cube/Repository/STM32Cube_FW_F4_V1.28.0/Drivers/STM32F4xx_HAL_Driver/Src/stm32f4xx_hal_rcc.c ****       (+) Enable the clock for the peripheral(s) to be used
  33:/home/vtrnnhlinh/STM32Cube/Repository/STM32Cube_FW_F4_V1.28.0/Drivers/STM32F4xx_HAL_Driver/Src/stm32f4xx_hal_rcc.c ****       (+) Configure the clock source(s) for peripherals which clocks are not
  34:/home/vtrnnhlinh/STM32Cube/Repository/STM32Cube_FW_F4_V1.28.0/Drivers/STM32F4xx_HAL_Driver/Src/stm32f4xx_hal_rcc.c ****           derived from the System clock (I2S, RTC, ADC, USB OTG FS/SDIO/RNG)
  35:/home/vtrnnhlinh/STM32Cube/Repository/STM32Cube_FW_F4_V1.28.0/Drivers/STM32F4xx_HAL_Driver/Src/stm32f4xx_hal_rcc.c **** 
  36:/home/vtrnnhlinh/STM32Cube/Repository/STM32Cube_FW_F4_V1.28.0/Drivers/STM32F4xx_HAL_Driver/Src/stm32f4xx_hal_rcc.c ****                       ##### RCC Limitations #####
  37:/home/vtrnnhlinh/STM32Cube/Repository/STM32Cube_FW_F4_V1.28.0/Drivers/STM32F4xx_HAL_Driver/Src/stm32f4xx_hal_rcc.c ****   ==============================================================================
  38:/home/vtrnnhlinh/STM32Cube/Repository/STM32Cube_FW_F4_V1.28.0/Drivers/STM32F4xx_HAL_Driver/Src/stm32f4xx_hal_rcc.c ****     [..]
  39:/home/vtrnnhlinh/STM32Cube/Repository/STM32Cube_FW_F4_V1.28.0/Drivers/STM32F4xx_HAL_Driver/Src/stm32f4xx_hal_rcc.c ****       A delay between an RCC peripheral clock enable and the effective peripheral
  40:/home/vtrnnhlinh/STM32Cube/Repository/STM32Cube_FW_F4_V1.28.0/Drivers/STM32F4xx_HAL_Driver/Src/stm32f4xx_hal_rcc.c ****       enabling should be taken into account in order to manage the peripheral read/write
  41:/home/vtrnnhlinh/STM32Cube/Repository/STM32Cube_FW_F4_V1.28.0/Drivers/STM32F4xx_HAL_Driver/Src/stm32f4xx_hal_rcc.c ****       from/to registers.
  42:/home/vtrnnhlinh/STM32Cube/Repository/STM32Cube_FW_F4_V1.28.0/Drivers/STM32F4xx_HAL_Driver/Src/stm32f4xx_hal_rcc.c ****       (+) This delay depends on the peripheral mapping.
  43:/home/vtrnnhlinh/STM32Cube/Repository/STM32Cube_FW_F4_V1.28.0/Drivers/STM32F4xx_HAL_Driver/Src/stm32f4xx_hal_rcc.c ****       (+) If peripheral is mapped on AHB: the delay is 2 AHB clock cycle
  44:/home/vtrnnhlinh/STM32Cube/Repository/STM32Cube_FW_F4_V1.28.0/Drivers/STM32F4xx_HAL_Driver/Src/stm32f4xx_hal_rcc.c ****           after the clock enable bit is set on the hardware register
  45:/home/vtrnnhlinh/STM32Cube/Repository/STM32Cube_FW_F4_V1.28.0/Drivers/STM32F4xx_HAL_Driver/Src/stm32f4xx_hal_rcc.c ****       (+) If peripheral is mapped on APB: the delay is 2 APB clock cycle
  46:/home/vtrnnhlinh/STM32Cube/Repository/STM32Cube_FW_F4_V1.28.0/Drivers/STM32F4xx_HAL_Driver/Src/stm32f4xx_hal_rcc.c ****           after the clock enable bit is set on the hardware register
  47:/home/vtrnnhlinh/STM32Cube/Repository/STM32Cube_FW_F4_V1.28.0/Drivers/STM32F4xx_HAL_Driver/Src/stm32f4xx_hal_rcc.c **** 
  48:/home/vtrnnhlinh/STM32Cube/Repository/STM32Cube_FW_F4_V1.28.0/Drivers/STM32F4xx_HAL_Driver/Src/stm32f4xx_hal_rcc.c ****     [..]
  49:/home/vtrnnhlinh/STM32Cube/Repository/STM32Cube_FW_F4_V1.28.0/Drivers/STM32F4xx_HAL_Driver/Src/stm32f4xx_hal_rcc.c ****       Implemented Workaround:
  50:/home/vtrnnhlinh/STM32Cube/Repository/STM32Cube_FW_F4_V1.28.0/Drivers/STM32F4xx_HAL_Driver/Src/stm32f4xx_hal_rcc.c ****       (+) For AHB & APB peripherals, a dummy read to the peripheral register has been
  51:/home/vtrnnhlinh/STM32Cube/Repository/STM32Cube_FW_F4_V1.28.0/Drivers/STM32F4xx_HAL_Driver/Src/stm32f4xx_hal_rcc.c ****           inserted in each __HAL_RCC_PPP_CLK_ENABLE() macro.
  52:/home/vtrnnhlinh/STM32Cube/Repository/STM32Cube_FW_F4_V1.28.0/Drivers/STM32F4xx_HAL_Driver/Src/stm32f4xx_hal_rcc.c **** 
  53:/home/vtrnnhlinh/STM32Cube/Repository/STM32Cube_FW_F4_V1.28.0/Drivers/STM32F4xx_HAL_Driver/Src/stm32f4xx_hal_rcc.c ****   @endverbatim
  54:/home/vtrnnhlinh/STM32Cube/Repository/STM32Cube_FW_F4_V1.28.0/Drivers/STM32F4xx_HAL_Driver/Src/stm32f4xx_hal_rcc.c ****   ******************************************************************************
  55:/home/vtrnnhlinh/STM32Cube/Repository/STM32Cube_FW_F4_V1.28.0/Drivers/STM32F4xx_HAL_Driver/Src/stm32f4xx_hal_rcc.c ****   * @attention
  56:/home/vtrnnhlinh/STM32Cube/Repository/STM32Cube_FW_F4_V1.28.0/Drivers/STM32F4xx_HAL_Driver/Src/stm32f4xx_hal_rcc.c ****   *
  57:/home/vtrnnhlinh/STM32Cube/Repository/STM32Cube_FW_F4_V1.28.0/Drivers/STM32F4xx_HAL_Driver/Src/stm32f4xx_hal_rcc.c ****   * Copyright (c) 2017 STMicroelectronics.
  58:/home/vtrnnhlinh/STM32Cube/Repository/STM32Cube_FW_F4_V1.28.0/Drivers/STM32F4xx_HAL_Driver/Src/stm32f4xx_hal_rcc.c ****   * All rights reserved.
  59:/home/vtrnnhlinh/STM32Cube/Repository/STM32Cube_FW_F4_V1.28.0/Drivers/STM32F4xx_HAL_Driver/Src/stm32f4xx_hal_rcc.c ****   *
  60:/home/vtrnnhlinh/STM32Cube/Repository/STM32Cube_FW_F4_V1.28.0/Drivers/STM32F4xx_HAL_Driver/Src/stm32f4xx_hal_rcc.c ****   * This software is licensed under terms that can be found in the LICENSE file in
  61:/home/vtrnnhlinh/STM32Cube/Repository/STM32Cube_FW_F4_V1.28.0/Drivers/STM32F4xx_HAL_Driver/Src/stm32f4xx_hal_rcc.c ****   * the root directory of this software component.
  62:/home/vtrnnhlinh/STM32Cube/Repository/STM32Cube_FW_F4_V1.28.0/Drivers/STM32F4xx_HAL_Driver/Src/stm32f4xx_hal_rcc.c ****   * If no LICENSE file comes with this software, it is provided AS-IS.
  63:/home/vtrnnhlinh/STM32Cube/Repository/STM32Cube_FW_F4_V1.28.0/Drivers/STM32F4xx_HAL_Driver/Src/stm32f4xx_hal_rcc.c ****   ******************************************************************************
  64:/home/vtrnnhlinh/STM32Cube/Repository/STM32Cube_FW_F4_V1.28.0/Drivers/STM32F4xx_HAL_Driver/Src/stm32f4xx_hal_rcc.c ****   */
  65:/home/vtrnnhlinh/STM32Cube/Repository/STM32Cube_FW_F4_V1.28.0/Drivers/STM32F4xx_HAL_Driver/Src/stm32f4xx_hal_rcc.c **** 
  66:/home/vtrnnhlinh/STM32Cube/Repository/STM32Cube_FW_F4_V1.28.0/Drivers/STM32F4xx_HAL_Driver/Src/stm32f4xx_hal_rcc.c **** /* Includes ------------------------------------------------------------------*/
  67:/home/vtrnnhlinh/STM32Cube/Repository/STM32Cube_FW_F4_V1.28.0/Drivers/STM32F4xx_HAL_Driver/Src/stm32f4xx_hal_rcc.c **** #include "stm32f4xx_hal.h"
  68:/home/vtrnnhlinh/STM32Cube/Repository/STM32Cube_FW_F4_V1.28.0/Drivers/STM32F4xx_HAL_Driver/Src/stm32f4xx_hal_rcc.c **** 
  69:/home/vtrnnhlinh/STM32Cube/Repository/STM32Cube_FW_F4_V1.28.0/Drivers/STM32F4xx_HAL_Driver/Src/stm32f4xx_hal_rcc.c **** /** @addtogroup STM32F4xx_HAL_Driver
  70:/home/vtrnnhlinh/STM32Cube/Repository/STM32Cube_FW_F4_V1.28.0/Drivers/STM32F4xx_HAL_Driver/Src/stm32f4xx_hal_rcc.c ****   * @{
  71:/home/vtrnnhlinh/STM32Cube/Repository/STM32Cube_FW_F4_V1.28.0/Drivers/STM32F4xx_HAL_Driver/Src/stm32f4xx_hal_rcc.c ****   */
  72:/home/vtrnnhlinh/STM32Cube/Repository/STM32Cube_FW_F4_V1.28.0/Drivers/STM32F4xx_HAL_Driver/Src/stm32f4xx_hal_rcc.c **** 
  73:/home/vtrnnhlinh/STM32Cube/Repository/STM32Cube_FW_F4_V1.28.0/Drivers/STM32F4xx_HAL_Driver/Src/stm32f4xx_hal_rcc.c **** /** @defgroup RCC RCC
  74:/home/vtrnnhlinh/STM32Cube/Repository/STM32Cube_FW_F4_V1.28.0/Drivers/STM32F4xx_HAL_Driver/Src/stm32f4xx_hal_rcc.c ****   * @brief RCC HAL module driver
  75:/home/vtrnnhlinh/STM32Cube/Repository/STM32Cube_FW_F4_V1.28.0/Drivers/STM32F4xx_HAL_Driver/Src/stm32f4xx_hal_rcc.c ****   * @{
  76:/home/vtrnnhlinh/STM32Cube/Repository/STM32Cube_FW_F4_V1.28.0/Drivers/STM32F4xx_HAL_Driver/Src/stm32f4xx_hal_rcc.c ****   */
  77:/home/vtrnnhlinh/STM32Cube/Repository/STM32Cube_FW_F4_V1.28.0/Drivers/STM32F4xx_HAL_Driver/Src/stm32f4xx_hal_rcc.c **** 
  78:/home/vtrnnhlinh/STM32Cube/Repository/STM32Cube_FW_F4_V1.28.0/Drivers/STM32F4xx_HAL_Driver/Src/stm32f4xx_hal_rcc.c **** #ifdef HAL_RCC_MODULE_ENABLED
  79:/home/vtrnnhlinh/STM32Cube/Repository/STM32Cube_FW_F4_V1.28.0/Drivers/STM32F4xx_HAL_Driver/Src/stm32f4xx_hal_rcc.c **** 
  80:/home/vtrnnhlinh/STM32Cube/Repository/STM32Cube_FW_F4_V1.28.0/Drivers/STM32F4xx_HAL_Driver/Src/stm32f4xx_hal_rcc.c **** /* Private typedef -----------------------------------------------------------*/
  81:/home/vtrnnhlinh/STM32Cube/Repository/STM32Cube_FW_F4_V1.28.0/Drivers/STM32F4xx_HAL_Driver/Src/stm32f4xx_hal_rcc.c **** /* Private define ------------------------------------------------------------*/
  82:/home/vtrnnhlinh/STM32Cube/Repository/STM32Cube_FW_F4_V1.28.0/Drivers/STM32F4xx_HAL_Driver/Src/stm32f4xx_hal_rcc.c **** /** @addtogroup RCC_Private_Constants
  83:/home/vtrnnhlinh/STM32Cube/Repository/STM32Cube_FW_F4_V1.28.0/Drivers/STM32F4xx_HAL_Driver/Src/stm32f4xx_hal_rcc.c ****   * @{
  84:/home/vtrnnhlinh/STM32Cube/Repository/STM32Cube_FW_F4_V1.28.0/Drivers/STM32F4xx_HAL_Driver/Src/stm32f4xx_hal_rcc.c ****   */
  85:/home/vtrnnhlinh/STM32Cube/Repository/STM32Cube_FW_F4_V1.28.0/Drivers/STM32F4xx_HAL_Driver/Src/stm32f4xx_hal_rcc.c **** 
  86:/home/vtrnnhlinh/STM32Cube/Repository/STM32Cube_FW_F4_V1.28.0/Drivers/STM32F4xx_HAL_Driver/Src/stm32f4xx_hal_rcc.c **** /* Private macro -------------------------------------------------------------*/
  87:/home/vtrnnhlinh/STM32Cube/Repository/STM32Cube_FW_F4_V1.28.0/Drivers/STM32F4xx_HAL_Driver/Src/stm32f4xx_hal_rcc.c **** #define __MCO1_CLK_ENABLE()   __HAL_RCC_GPIOA_CLK_ENABLE()
ARM GAS  /tmp/ccz6Q3rQ.s 			page 3


  88:/home/vtrnnhlinh/STM32Cube/Repository/STM32Cube_FW_F4_V1.28.0/Drivers/STM32F4xx_HAL_Driver/Src/stm32f4xx_hal_rcc.c **** #define MCO1_GPIO_PORT        GPIOA
  89:/home/vtrnnhlinh/STM32Cube/Repository/STM32Cube_FW_F4_V1.28.0/Drivers/STM32F4xx_HAL_Driver/Src/stm32f4xx_hal_rcc.c **** #define MCO1_PIN              GPIO_PIN_8
  90:/home/vtrnnhlinh/STM32Cube/Repository/STM32Cube_FW_F4_V1.28.0/Drivers/STM32F4xx_HAL_Driver/Src/stm32f4xx_hal_rcc.c **** 
  91:/home/vtrnnhlinh/STM32Cube/Repository/STM32Cube_FW_F4_V1.28.0/Drivers/STM32F4xx_HAL_Driver/Src/stm32f4xx_hal_rcc.c **** #define __MCO2_CLK_ENABLE()   __HAL_RCC_GPIOC_CLK_ENABLE()
  92:/home/vtrnnhlinh/STM32Cube/Repository/STM32Cube_FW_F4_V1.28.0/Drivers/STM32F4xx_HAL_Driver/Src/stm32f4xx_hal_rcc.c **** #define MCO2_GPIO_PORT         GPIOC
  93:/home/vtrnnhlinh/STM32Cube/Repository/STM32Cube_FW_F4_V1.28.0/Drivers/STM32F4xx_HAL_Driver/Src/stm32f4xx_hal_rcc.c **** #define MCO2_PIN               GPIO_PIN_9
  94:/home/vtrnnhlinh/STM32Cube/Repository/STM32Cube_FW_F4_V1.28.0/Drivers/STM32F4xx_HAL_Driver/Src/stm32f4xx_hal_rcc.c **** /**
  95:/home/vtrnnhlinh/STM32Cube/Repository/STM32Cube_FW_F4_V1.28.0/Drivers/STM32F4xx_HAL_Driver/Src/stm32f4xx_hal_rcc.c ****   * @}
  96:/home/vtrnnhlinh/STM32Cube/Repository/STM32Cube_FW_F4_V1.28.0/Drivers/STM32F4xx_HAL_Driver/Src/stm32f4xx_hal_rcc.c ****   */
  97:/home/vtrnnhlinh/STM32Cube/Repository/STM32Cube_FW_F4_V1.28.0/Drivers/STM32F4xx_HAL_Driver/Src/stm32f4xx_hal_rcc.c **** 
  98:/home/vtrnnhlinh/STM32Cube/Repository/STM32Cube_FW_F4_V1.28.0/Drivers/STM32F4xx_HAL_Driver/Src/stm32f4xx_hal_rcc.c **** /* Private variables ---------------------------------------------------------*/
  99:/home/vtrnnhlinh/STM32Cube/Repository/STM32Cube_FW_F4_V1.28.0/Drivers/STM32F4xx_HAL_Driver/Src/stm32f4xx_hal_rcc.c **** /** @defgroup RCC_Private_Variables RCC Private Variables
 100:/home/vtrnnhlinh/STM32Cube/Repository/STM32Cube_FW_F4_V1.28.0/Drivers/STM32F4xx_HAL_Driver/Src/stm32f4xx_hal_rcc.c ****   * @{
 101:/home/vtrnnhlinh/STM32Cube/Repository/STM32Cube_FW_F4_V1.28.0/Drivers/STM32F4xx_HAL_Driver/Src/stm32f4xx_hal_rcc.c ****   */
 102:/home/vtrnnhlinh/STM32Cube/Repository/STM32Cube_FW_F4_V1.28.0/Drivers/STM32F4xx_HAL_Driver/Src/stm32f4xx_hal_rcc.c **** /**
 103:/home/vtrnnhlinh/STM32Cube/Repository/STM32Cube_FW_F4_V1.28.0/Drivers/STM32F4xx_HAL_Driver/Src/stm32f4xx_hal_rcc.c ****   * @}
 104:/home/vtrnnhlinh/STM32Cube/Repository/STM32Cube_FW_F4_V1.28.0/Drivers/STM32F4xx_HAL_Driver/Src/stm32f4xx_hal_rcc.c ****   */
 105:/home/vtrnnhlinh/STM32Cube/Repository/STM32Cube_FW_F4_V1.28.0/Drivers/STM32F4xx_HAL_Driver/Src/stm32f4xx_hal_rcc.c **** /* Private function prototypes -----------------------------------------------*/
 106:/home/vtrnnhlinh/STM32Cube/Repository/STM32Cube_FW_F4_V1.28.0/Drivers/STM32F4xx_HAL_Driver/Src/stm32f4xx_hal_rcc.c **** /* Private functions ---------------------------------------------------------*/
 107:/home/vtrnnhlinh/STM32Cube/Repository/STM32Cube_FW_F4_V1.28.0/Drivers/STM32F4xx_HAL_Driver/Src/stm32f4xx_hal_rcc.c **** 
 108:/home/vtrnnhlinh/STM32Cube/Repository/STM32Cube_FW_F4_V1.28.0/Drivers/STM32F4xx_HAL_Driver/Src/stm32f4xx_hal_rcc.c **** /** @defgroup RCC_Exported_Functions RCC Exported Functions
 109:/home/vtrnnhlinh/STM32Cube/Repository/STM32Cube_FW_F4_V1.28.0/Drivers/STM32F4xx_HAL_Driver/Src/stm32f4xx_hal_rcc.c ****   *  @{
 110:/home/vtrnnhlinh/STM32Cube/Repository/STM32Cube_FW_F4_V1.28.0/Drivers/STM32F4xx_HAL_Driver/Src/stm32f4xx_hal_rcc.c ****   */
 111:/home/vtrnnhlinh/STM32Cube/Repository/STM32Cube_FW_F4_V1.28.0/Drivers/STM32F4xx_HAL_Driver/Src/stm32f4xx_hal_rcc.c **** 
 112:/home/vtrnnhlinh/STM32Cube/Repository/STM32Cube_FW_F4_V1.28.0/Drivers/STM32F4xx_HAL_Driver/Src/stm32f4xx_hal_rcc.c **** /** @defgroup RCC_Exported_Functions_Group1 Initialization and de-initialization functions
 113:/home/vtrnnhlinh/STM32Cube/Repository/STM32Cube_FW_F4_V1.28.0/Drivers/STM32F4xx_HAL_Driver/Src/stm32f4xx_hal_rcc.c ****  *  @brief    Initialization and Configuration functions
 114:/home/vtrnnhlinh/STM32Cube/Repository/STM32Cube_FW_F4_V1.28.0/Drivers/STM32F4xx_HAL_Driver/Src/stm32f4xx_hal_rcc.c ****  *
 115:/home/vtrnnhlinh/STM32Cube/Repository/STM32Cube_FW_F4_V1.28.0/Drivers/STM32F4xx_HAL_Driver/Src/stm32f4xx_hal_rcc.c **** @verbatim
 116:/home/vtrnnhlinh/STM32Cube/Repository/STM32Cube_FW_F4_V1.28.0/Drivers/STM32F4xx_HAL_Driver/Src/stm32f4xx_hal_rcc.c ****  ===============================================================================
 117:/home/vtrnnhlinh/STM32Cube/Repository/STM32Cube_FW_F4_V1.28.0/Drivers/STM32F4xx_HAL_Driver/Src/stm32f4xx_hal_rcc.c ****            ##### Initialization and de-initialization functions #####
 118:/home/vtrnnhlinh/STM32Cube/Repository/STM32Cube_FW_F4_V1.28.0/Drivers/STM32F4xx_HAL_Driver/Src/stm32f4xx_hal_rcc.c ****  ===============================================================================
 119:/home/vtrnnhlinh/STM32Cube/Repository/STM32Cube_FW_F4_V1.28.0/Drivers/STM32F4xx_HAL_Driver/Src/stm32f4xx_hal_rcc.c ****     [..]
 120:/home/vtrnnhlinh/STM32Cube/Repository/STM32Cube_FW_F4_V1.28.0/Drivers/STM32F4xx_HAL_Driver/Src/stm32f4xx_hal_rcc.c ****       This section provides functions allowing to configure the internal/external oscillators
 121:/home/vtrnnhlinh/STM32Cube/Repository/STM32Cube_FW_F4_V1.28.0/Drivers/STM32F4xx_HAL_Driver/Src/stm32f4xx_hal_rcc.c ****       (HSE, HSI, LSE, LSI, PLL, CSS and MCO) and the System busses clocks (SYSCLK, AHB, APB1
 122:/home/vtrnnhlinh/STM32Cube/Repository/STM32Cube_FW_F4_V1.28.0/Drivers/STM32F4xx_HAL_Driver/Src/stm32f4xx_hal_rcc.c ****        and APB2).
 123:/home/vtrnnhlinh/STM32Cube/Repository/STM32Cube_FW_F4_V1.28.0/Drivers/STM32F4xx_HAL_Driver/Src/stm32f4xx_hal_rcc.c **** 
 124:/home/vtrnnhlinh/STM32Cube/Repository/STM32Cube_FW_F4_V1.28.0/Drivers/STM32F4xx_HAL_Driver/Src/stm32f4xx_hal_rcc.c ****     [..] Internal/external clock and PLL configuration
 125:/home/vtrnnhlinh/STM32Cube/Repository/STM32Cube_FW_F4_V1.28.0/Drivers/STM32F4xx_HAL_Driver/Src/stm32f4xx_hal_rcc.c ****          (#) HSI (high-speed internal), 16 MHz factory-trimmed RC used directly or through
 126:/home/vtrnnhlinh/STM32Cube/Repository/STM32Cube_FW_F4_V1.28.0/Drivers/STM32F4xx_HAL_Driver/Src/stm32f4xx_hal_rcc.c ****              the PLL as System clock source.
 127:/home/vtrnnhlinh/STM32Cube/Repository/STM32Cube_FW_F4_V1.28.0/Drivers/STM32F4xx_HAL_Driver/Src/stm32f4xx_hal_rcc.c **** 
 128:/home/vtrnnhlinh/STM32Cube/Repository/STM32Cube_FW_F4_V1.28.0/Drivers/STM32F4xx_HAL_Driver/Src/stm32f4xx_hal_rcc.c ****          (#) LSI (low-speed internal), 32 KHz low consumption RC used as IWDG and/or RTC
 129:/home/vtrnnhlinh/STM32Cube/Repository/STM32Cube_FW_F4_V1.28.0/Drivers/STM32F4xx_HAL_Driver/Src/stm32f4xx_hal_rcc.c ****              clock source.
 130:/home/vtrnnhlinh/STM32Cube/Repository/STM32Cube_FW_F4_V1.28.0/Drivers/STM32F4xx_HAL_Driver/Src/stm32f4xx_hal_rcc.c **** 
 131:/home/vtrnnhlinh/STM32Cube/Repository/STM32Cube_FW_F4_V1.28.0/Drivers/STM32F4xx_HAL_Driver/Src/stm32f4xx_hal_rcc.c ****          (#) HSE (high-speed external), 4 to 26 MHz crystal oscillator used directly or
 132:/home/vtrnnhlinh/STM32Cube/Repository/STM32Cube_FW_F4_V1.28.0/Drivers/STM32F4xx_HAL_Driver/Src/stm32f4xx_hal_rcc.c ****              through the PLL as System clock source. Can be used also as RTC clock source.
 133:/home/vtrnnhlinh/STM32Cube/Repository/STM32Cube_FW_F4_V1.28.0/Drivers/STM32F4xx_HAL_Driver/Src/stm32f4xx_hal_rcc.c **** 
 134:/home/vtrnnhlinh/STM32Cube/Repository/STM32Cube_FW_F4_V1.28.0/Drivers/STM32F4xx_HAL_Driver/Src/stm32f4xx_hal_rcc.c ****          (#) LSE (low-speed external), 32 KHz oscillator used as RTC clock source.
 135:/home/vtrnnhlinh/STM32Cube/Repository/STM32Cube_FW_F4_V1.28.0/Drivers/STM32F4xx_HAL_Driver/Src/stm32f4xx_hal_rcc.c **** 
 136:/home/vtrnnhlinh/STM32Cube/Repository/STM32Cube_FW_F4_V1.28.0/Drivers/STM32F4xx_HAL_Driver/Src/stm32f4xx_hal_rcc.c ****          (#) PLL (clocked by HSI or HSE), featuring two different output clocks:
 137:/home/vtrnnhlinh/STM32Cube/Repository/STM32Cube_FW_F4_V1.28.0/Drivers/STM32F4xx_HAL_Driver/Src/stm32f4xx_hal_rcc.c ****            (++) The first output is used to generate the high speed system clock (up to 168 MHz)
 138:/home/vtrnnhlinh/STM32Cube/Repository/STM32Cube_FW_F4_V1.28.0/Drivers/STM32F4xx_HAL_Driver/Src/stm32f4xx_hal_rcc.c ****            (++) The second output is used to generate the clock for the USB OTG FS (48 MHz),
 139:/home/vtrnnhlinh/STM32Cube/Repository/STM32Cube_FW_F4_V1.28.0/Drivers/STM32F4xx_HAL_Driver/Src/stm32f4xx_hal_rcc.c ****                 the random analog generator (<=48 MHz) and the SDIO (<= 48 MHz).
 140:/home/vtrnnhlinh/STM32Cube/Repository/STM32Cube_FW_F4_V1.28.0/Drivers/STM32F4xx_HAL_Driver/Src/stm32f4xx_hal_rcc.c **** 
 141:/home/vtrnnhlinh/STM32Cube/Repository/STM32Cube_FW_F4_V1.28.0/Drivers/STM32F4xx_HAL_Driver/Src/stm32f4xx_hal_rcc.c ****          (#) CSS (Clock security system), once enable using the macro __HAL_RCC_CSS_ENABLE()
 142:/home/vtrnnhlinh/STM32Cube/Repository/STM32Cube_FW_F4_V1.28.0/Drivers/STM32F4xx_HAL_Driver/Src/stm32f4xx_hal_rcc.c ****              and if a HSE clock failure occurs(HSE used directly or through PLL as System
 143:/home/vtrnnhlinh/STM32Cube/Repository/STM32Cube_FW_F4_V1.28.0/Drivers/STM32F4xx_HAL_Driver/Src/stm32f4xx_hal_rcc.c ****              clock source), the System clocks automatically switched to HSI and an interrupt
 144:/home/vtrnnhlinh/STM32Cube/Repository/STM32Cube_FW_F4_V1.28.0/Drivers/STM32F4xx_HAL_Driver/Src/stm32f4xx_hal_rcc.c ****              is generated if enabled. The interrupt is linked to the Cortex-M4 NMI
ARM GAS  /tmp/ccz6Q3rQ.s 			page 4


 145:/home/vtrnnhlinh/STM32Cube/Repository/STM32Cube_FW_F4_V1.28.0/Drivers/STM32F4xx_HAL_Driver/Src/stm32f4xx_hal_rcc.c ****              (Non-Maskable Interrupt) exception vector.
 146:/home/vtrnnhlinh/STM32Cube/Repository/STM32Cube_FW_F4_V1.28.0/Drivers/STM32F4xx_HAL_Driver/Src/stm32f4xx_hal_rcc.c **** 
 147:/home/vtrnnhlinh/STM32Cube/Repository/STM32Cube_FW_F4_V1.28.0/Drivers/STM32F4xx_HAL_Driver/Src/stm32f4xx_hal_rcc.c ****          (#) MCO1 (microcontroller clock output), used to output HSI, LSE, HSE or PLL
 148:/home/vtrnnhlinh/STM32Cube/Repository/STM32Cube_FW_F4_V1.28.0/Drivers/STM32F4xx_HAL_Driver/Src/stm32f4xx_hal_rcc.c ****              clock (through a configurable prescaler) on PA8 pin.
 149:/home/vtrnnhlinh/STM32Cube/Repository/STM32Cube_FW_F4_V1.28.0/Drivers/STM32F4xx_HAL_Driver/Src/stm32f4xx_hal_rcc.c **** 
 150:/home/vtrnnhlinh/STM32Cube/Repository/STM32Cube_FW_F4_V1.28.0/Drivers/STM32F4xx_HAL_Driver/Src/stm32f4xx_hal_rcc.c ****          (#) MCO2 (microcontroller clock output), used to output HSE, PLL, SYSCLK or PLLI2S
 151:/home/vtrnnhlinh/STM32Cube/Repository/STM32Cube_FW_F4_V1.28.0/Drivers/STM32F4xx_HAL_Driver/Src/stm32f4xx_hal_rcc.c ****              clock (through a configurable prescaler) on PC9 pin.
 152:/home/vtrnnhlinh/STM32Cube/Repository/STM32Cube_FW_F4_V1.28.0/Drivers/STM32F4xx_HAL_Driver/Src/stm32f4xx_hal_rcc.c **** 
 153:/home/vtrnnhlinh/STM32Cube/Repository/STM32Cube_FW_F4_V1.28.0/Drivers/STM32F4xx_HAL_Driver/Src/stm32f4xx_hal_rcc.c ****     [..] System, AHB and APB busses clocks configuration
 154:/home/vtrnnhlinh/STM32Cube/Repository/STM32Cube_FW_F4_V1.28.0/Drivers/STM32F4xx_HAL_Driver/Src/stm32f4xx_hal_rcc.c ****          (#) Several clock sources can be used to drive the System clock (SYSCLK): HSI,
 155:/home/vtrnnhlinh/STM32Cube/Repository/STM32Cube_FW_F4_V1.28.0/Drivers/STM32F4xx_HAL_Driver/Src/stm32f4xx_hal_rcc.c ****              HSE and PLL.
 156:/home/vtrnnhlinh/STM32Cube/Repository/STM32Cube_FW_F4_V1.28.0/Drivers/STM32F4xx_HAL_Driver/Src/stm32f4xx_hal_rcc.c ****              The AHB clock (HCLK) is derived from System clock through configurable
 157:/home/vtrnnhlinh/STM32Cube/Repository/STM32Cube_FW_F4_V1.28.0/Drivers/STM32F4xx_HAL_Driver/Src/stm32f4xx_hal_rcc.c ****              prescaler and used to clock the CPU, memory and peripherals mapped
 158:/home/vtrnnhlinh/STM32Cube/Repository/STM32Cube_FW_F4_V1.28.0/Drivers/STM32F4xx_HAL_Driver/Src/stm32f4xx_hal_rcc.c ****              on AHB bus (DMA, GPIO...). APB1 (PCLK1) and APB2 (PCLK2) clocks are derived
 159:/home/vtrnnhlinh/STM32Cube/Repository/STM32Cube_FW_F4_V1.28.0/Drivers/STM32F4xx_HAL_Driver/Src/stm32f4xx_hal_rcc.c ****              from AHB clock through configurable prescalers and used to clock
 160:/home/vtrnnhlinh/STM32Cube/Repository/STM32Cube_FW_F4_V1.28.0/Drivers/STM32F4xx_HAL_Driver/Src/stm32f4xx_hal_rcc.c ****              the peripherals mapped on these busses. You can use
 161:/home/vtrnnhlinh/STM32Cube/Repository/STM32Cube_FW_F4_V1.28.0/Drivers/STM32F4xx_HAL_Driver/Src/stm32f4xx_hal_rcc.c ****              "HAL_RCC_GetSysClockFreq()" function to retrieve the frequencies of these clocks.
 162:/home/vtrnnhlinh/STM32Cube/Repository/STM32Cube_FW_F4_V1.28.0/Drivers/STM32F4xx_HAL_Driver/Src/stm32f4xx_hal_rcc.c **** 
 163:/home/vtrnnhlinh/STM32Cube/Repository/STM32Cube_FW_F4_V1.28.0/Drivers/STM32F4xx_HAL_Driver/Src/stm32f4xx_hal_rcc.c ****          (#) For the STM32F405xx/07xx and STM32F415xx/17xx devices, the maximum
 164:/home/vtrnnhlinh/STM32Cube/Repository/STM32Cube_FW_F4_V1.28.0/Drivers/STM32F4xx_HAL_Driver/Src/stm32f4xx_hal_rcc.c ****              frequency of the SYSCLK and HCLK is 168 MHz, PCLK2 84 MHz and PCLK1 42 MHz.
 165:/home/vtrnnhlinh/STM32Cube/Repository/STM32Cube_FW_F4_V1.28.0/Drivers/STM32F4xx_HAL_Driver/Src/stm32f4xx_hal_rcc.c ****              Depending on the device voltage range, the maximum frequency should
 166:/home/vtrnnhlinh/STM32Cube/Repository/STM32Cube_FW_F4_V1.28.0/Drivers/STM32F4xx_HAL_Driver/Src/stm32f4xx_hal_rcc.c ****              be adapted accordingly (refer to the product datasheets for more details).
 167:/home/vtrnnhlinh/STM32Cube/Repository/STM32Cube_FW_F4_V1.28.0/Drivers/STM32F4xx_HAL_Driver/Src/stm32f4xx_hal_rcc.c **** 
 168:/home/vtrnnhlinh/STM32Cube/Repository/STM32Cube_FW_F4_V1.28.0/Drivers/STM32F4xx_HAL_Driver/Src/stm32f4xx_hal_rcc.c ****          (#) For the STM32F42xxx, STM32F43xxx, STM32F446xx, STM32F469xx and STM32F479xx devices,
 169:/home/vtrnnhlinh/STM32Cube/Repository/STM32Cube_FW_F4_V1.28.0/Drivers/STM32F4xx_HAL_Driver/Src/stm32f4xx_hal_rcc.c ****              the maximum frequency of the SYSCLK and HCLK is 180 MHz, PCLK2 90 MHz and PCLK1 45 MHz
 170:/home/vtrnnhlinh/STM32Cube/Repository/STM32Cube_FW_F4_V1.28.0/Drivers/STM32F4xx_HAL_Driver/Src/stm32f4xx_hal_rcc.c ****              Depending on the device voltage range, the maximum frequency should
 171:/home/vtrnnhlinh/STM32Cube/Repository/STM32Cube_FW_F4_V1.28.0/Drivers/STM32F4xx_HAL_Driver/Src/stm32f4xx_hal_rcc.c ****              be adapted accordingly (refer to the product datasheets for more details).
 172:/home/vtrnnhlinh/STM32Cube/Repository/STM32Cube_FW_F4_V1.28.0/Drivers/STM32F4xx_HAL_Driver/Src/stm32f4xx_hal_rcc.c **** 
 173:/home/vtrnnhlinh/STM32Cube/Repository/STM32Cube_FW_F4_V1.28.0/Drivers/STM32F4xx_HAL_Driver/Src/stm32f4xx_hal_rcc.c ****          (#) For the STM32F401xx, the maximum frequency of the SYSCLK and HCLK is 84 MHz,
 174:/home/vtrnnhlinh/STM32Cube/Repository/STM32Cube_FW_F4_V1.28.0/Drivers/STM32F4xx_HAL_Driver/Src/stm32f4xx_hal_rcc.c ****              PCLK2 84 MHz and PCLK1 42 MHz.
 175:/home/vtrnnhlinh/STM32Cube/Repository/STM32Cube_FW_F4_V1.28.0/Drivers/STM32F4xx_HAL_Driver/Src/stm32f4xx_hal_rcc.c ****              Depending on the device voltage range, the maximum frequency should
 176:/home/vtrnnhlinh/STM32Cube/Repository/STM32Cube_FW_F4_V1.28.0/Drivers/STM32F4xx_HAL_Driver/Src/stm32f4xx_hal_rcc.c ****              be adapted accordingly (refer to the product datasheets for more details).
 177:/home/vtrnnhlinh/STM32Cube/Repository/STM32Cube_FW_F4_V1.28.0/Drivers/STM32F4xx_HAL_Driver/Src/stm32f4xx_hal_rcc.c **** 
 178:/home/vtrnnhlinh/STM32Cube/Repository/STM32Cube_FW_F4_V1.28.0/Drivers/STM32F4xx_HAL_Driver/Src/stm32f4xx_hal_rcc.c ****          (#) For the STM32F41xxx, the maximum frequency of the SYSCLK and HCLK is 100 MHz,
 179:/home/vtrnnhlinh/STM32Cube/Repository/STM32Cube_FW_F4_V1.28.0/Drivers/STM32F4xx_HAL_Driver/Src/stm32f4xx_hal_rcc.c ****              PCLK2 100 MHz and PCLK1 50 MHz.
 180:/home/vtrnnhlinh/STM32Cube/Repository/STM32Cube_FW_F4_V1.28.0/Drivers/STM32F4xx_HAL_Driver/Src/stm32f4xx_hal_rcc.c ****              Depending on the device voltage range, the maximum frequency should
 181:/home/vtrnnhlinh/STM32Cube/Repository/STM32Cube_FW_F4_V1.28.0/Drivers/STM32F4xx_HAL_Driver/Src/stm32f4xx_hal_rcc.c ****              be adapted accordingly (refer to the product datasheets for more details).
 182:/home/vtrnnhlinh/STM32Cube/Repository/STM32Cube_FW_F4_V1.28.0/Drivers/STM32F4xx_HAL_Driver/Src/stm32f4xx_hal_rcc.c **** 
 183:/home/vtrnnhlinh/STM32Cube/Repository/STM32Cube_FW_F4_V1.28.0/Drivers/STM32F4xx_HAL_Driver/Src/stm32f4xx_hal_rcc.c **** @endverbatim
 184:/home/vtrnnhlinh/STM32Cube/Repository/STM32Cube_FW_F4_V1.28.0/Drivers/STM32F4xx_HAL_Driver/Src/stm32f4xx_hal_rcc.c ****   * @{
 185:/home/vtrnnhlinh/STM32Cube/Repository/STM32Cube_FW_F4_V1.28.0/Drivers/STM32F4xx_HAL_Driver/Src/stm32f4xx_hal_rcc.c ****   */
 186:/home/vtrnnhlinh/STM32Cube/Repository/STM32Cube_FW_F4_V1.28.0/Drivers/STM32F4xx_HAL_Driver/Src/stm32f4xx_hal_rcc.c **** 
 187:/home/vtrnnhlinh/STM32Cube/Repository/STM32Cube_FW_F4_V1.28.0/Drivers/STM32F4xx_HAL_Driver/Src/stm32f4xx_hal_rcc.c **** /**
 188:/home/vtrnnhlinh/STM32Cube/Repository/STM32Cube_FW_F4_V1.28.0/Drivers/STM32F4xx_HAL_Driver/Src/stm32f4xx_hal_rcc.c ****   * @brief  Resets the RCC clock configuration to the default reset state.
 189:/home/vtrnnhlinh/STM32Cube/Repository/STM32Cube_FW_F4_V1.28.0/Drivers/STM32F4xx_HAL_Driver/Src/stm32f4xx_hal_rcc.c ****   * @note   The default reset state of the clock configuration is given below:
 190:/home/vtrnnhlinh/STM32Cube/Repository/STM32Cube_FW_F4_V1.28.0/Drivers/STM32F4xx_HAL_Driver/Src/stm32f4xx_hal_rcc.c ****   *            - HSI ON and used as system clock source
 191:/home/vtrnnhlinh/STM32Cube/Repository/STM32Cube_FW_F4_V1.28.0/Drivers/STM32F4xx_HAL_Driver/Src/stm32f4xx_hal_rcc.c ****   *            - HSE and PLL OFF
 192:/home/vtrnnhlinh/STM32Cube/Repository/STM32Cube_FW_F4_V1.28.0/Drivers/STM32F4xx_HAL_Driver/Src/stm32f4xx_hal_rcc.c ****   *            - AHB, APB1 and APB2 prescaler set to 1.
 193:/home/vtrnnhlinh/STM32Cube/Repository/STM32Cube_FW_F4_V1.28.0/Drivers/STM32F4xx_HAL_Driver/Src/stm32f4xx_hal_rcc.c ****   *            - CSS, MCO1 and MCO2 OFF
 194:/home/vtrnnhlinh/STM32Cube/Repository/STM32Cube_FW_F4_V1.28.0/Drivers/STM32F4xx_HAL_Driver/Src/stm32f4xx_hal_rcc.c ****   *            - All interrupts disabled
 195:/home/vtrnnhlinh/STM32Cube/Repository/STM32Cube_FW_F4_V1.28.0/Drivers/STM32F4xx_HAL_Driver/Src/stm32f4xx_hal_rcc.c ****   * @note   This function doesn't modify the configuration of the
 196:/home/vtrnnhlinh/STM32Cube/Repository/STM32Cube_FW_F4_V1.28.0/Drivers/STM32F4xx_HAL_Driver/Src/stm32f4xx_hal_rcc.c ****   *            - Peripheral clocks
 197:/home/vtrnnhlinh/STM32Cube/Repository/STM32Cube_FW_F4_V1.28.0/Drivers/STM32F4xx_HAL_Driver/Src/stm32f4xx_hal_rcc.c ****   *            - LSI, LSE and RTC clocks
 198:/home/vtrnnhlinh/STM32Cube/Repository/STM32Cube_FW_F4_V1.28.0/Drivers/STM32F4xx_HAL_Driver/Src/stm32f4xx_hal_rcc.c ****   * @retval HAL status
 199:/home/vtrnnhlinh/STM32Cube/Repository/STM32Cube_FW_F4_V1.28.0/Drivers/STM32F4xx_HAL_Driver/Src/stm32f4xx_hal_rcc.c ****   */
 200:/home/vtrnnhlinh/STM32Cube/Repository/STM32Cube_FW_F4_V1.28.0/Drivers/STM32F4xx_HAL_Driver/Src/stm32f4xx_hal_rcc.c **** __weak HAL_StatusTypeDef HAL_RCC_DeInit(void)
 201:/home/vtrnnhlinh/STM32Cube/Repository/STM32Cube_FW_F4_V1.28.0/Drivers/STM32F4xx_HAL_Driver/Src/stm32f4xx_hal_rcc.c **** {
ARM GAS  /tmp/ccz6Q3rQ.s 			page 5


  29              		.loc 1 201 1 view -0
  30              		.cfi_startproc
  31              		@ args = 0, pretend = 0, frame = 0
  32              		@ frame_needed = 0, uses_anonymous_args = 0
  33              		@ link register save eliminated.
 202:/home/vtrnnhlinh/STM32Cube/Repository/STM32Cube_FW_F4_V1.28.0/Drivers/STM32F4xx_HAL_Driver/Src/stm32f4xx_hal_rcc.c ****   return HAL_OK;
  34              		.loc 1 202 3 view .LVU1
 203:/home/vtrnnhlinh/STM32Cube/Repository/STM32Cube_FW_F4_V1.28.0/Drivers/STM32F4xx_HAL_Driver/Src/stm32f4xx_hal_rcc.c **** }
  35              		.loc 1 203 1 is_stmt 0 view .LVU2
  36 0000 0020     		movs	r0, #0
  37 0002 7047     		bx	lr
  38              		.cfi_endproc
  39              	.LFE134:
  41              		.section	.rodata.HAL_RCC_OscConfig.str1.4,"aMS",%progbits,1
  42              		.align	2
  43              	.LC0:
  44 0000 2F686F6D 		.ascii	"/home/vtrnnhlinh/STM32Cube/Repository/STM32Cube_FW_"
  44      652F7674 
  44      726E6E68 
  44      6C696E68 
  44      2F53544D 
  45 0033 46345F56 		.ascii	"F4_V1.28.0/Drivers/STM32F4xx_HAL_Driver/Src/stm32f4"
  45      312E3238 
  45      2E302F44 
  45      72697665 
  45      72732F53 
  46 0066 78785F68 		.ascii	"xx_hal_rcc.c\000"
  46      616C5F72 
  46      63632E63 
  46      00
  47              		.section	.text.HAL_RCC_OscConfig,"ax",%progbits
  48              		.align	1
  49              		.weak	HAL_RCC_OscConfig
  50              		.syntax unified
  51              		.thumb
  52              		.thumb_func
  53              		.fpu fpv4-sp-d16
  55              	HAL_RCC_OscConfig:
  56              	.LVL0:
  57              	.LFB135:
 204:/home/vtrnnhlinh/STM32Cube/Repository/STM32Cube_FW_F4_V1.28.0/Drivers/STM32F4xx_HAL_Driver/Src/stm32f4xx_hal_rcc.c **** 
 205:/home/vtrnnhlinh/STM32Cube/Repository/STM32Cube_FW_F4_V1.28.0/Drivers/STM32F4xx_HAL_Driver/Src/stm32f4xx_hal_rcc.c **** /**
 206:/home/vtrnnhlinh/STM32Cube/Repository/STM32Cube_FW_F4_V1.28.0/Drivers/STM32F4xx_HAL_Driver/Src/stm32f4xx_hal_rcc.c ****   * @brief  Initializes the RCC Oscillators according to the specified parameters in the
 207:/home/vtrnnhlinh/STM32Cube/Repository/STM32Cube_FW_F4_V1.28.0/Drivers/STM32F4xx_HAL_Driver/Src/stm32f4xx_hal_rcc.c ****   *         RCC_OscInitTypeDef.
 208:/home/vtrnnhlinh/STM32Cube/Repository/STM32Cube_FW_F4_V1.28.0/Drivers/STM32F4xx_HAL_Driver/Src/stm32f4xx_hal_rcc.c ****   * @param  RCC_OscInitStruct pointer to an RCC_OscInitTypeDef structure that
 209:/home/vtrnnhlinh/STM32Cube/Repository/STM32Cube_FW_F4_V1.28.0/Drivers/STM32F4xx_HAL_Driver/Src/stm32f4xx_hal_rcc.c ****   *         contains the configuration information for the RCC Oscillators.
 210:/home/vtrnnhlinh/STM32Cube/Repository/STM32Cube_FW_F4_V1.28.0/Drivers/STM32F4xx_HAL_Driver/Src/stm32f4xx_hal_rcc.c ****   * @note   The PLL is not disabled when used as system clock.
 211:/home/vtrnnhlinh/STM32Cube/Repository/STM32Cube_FW_F4_V1.28.0/Drivers/STM32F4xx_HAL_Driver/Src/stm32f4xx_hal_rcc.c ****   * @note   Transitions LSE Bypass to LSE On and LSE On to LSE Bypass are not
 212:/home/vtrnnhlinh/STM32Cube/Repository/STM32Cube_FW_F4_V1.28.0/Drivers/STM32F4xx_HAL_Driver/Src/stm32f4xx_hal_rcc.c ****   *         supported by this API. User should request a transition to LSE Off
 213:/home/vtrnnhlinh/STM32Cube/Repository/STM32Cube_FW_F4_V1.28.0/Drivers/STM32F4xx_HAL_Driver/Src/stm32f4xx_hal_rcc.c ****   *         first and then LSE On or LSE Bypass.
 214:/home/vtrnnhlinh/STM32Cube/Repository/STM32Cube_FW_F4_V1.28.0/Drivers/STM32F4xx_HAL_Driver/Src/stm32f4xx_hal_rcc.c ****   * @note   Transition HSE Bypass to HSE On and HSE On to HSE Bypass are not
 215:/home/vtrnnhlinh/STM32Cube/Repository/STM32Cube_FW_F4_V1.28.0/Drivers/STM32F4xx_HAL_Driver/Src/stm32f4xx_hal_rcc.c ****   *         supported by this API. User should request a transition to HSE Off
 216:/home/vtrnnhlinh/STM32Cube/Repository/STM32Cube_FW_F4_V1.28.0/Drivers/STM32F4xx_HAL_Driver/Src/stm32f4xx_hal_rcc.c ****   *         first and then HSE On or HSE Bypass.
 217:/home/vtrnnhlinh/STM32Cube/Repository/STM32Cube_FW_F4_V1.28.0/Drivers/STM32F4xx_HAL_Driver/Src/stm32f4xx_hal_rcc.c ****   * @retval HAL status
 218:/home/vtrnnhlinh/STM32Cube/Repository/STM32Cube_FW_F4_V1.28.0/Drivers/STM32F4xx_HAL_Driver/Src/stm32f4xx_hal_rcc.c ****   */
 219:/home/vtrnnhlinh/STM32Cube/Repository/STM32Cube_FW_F4_V1.28.0/Drivers/STM32F4xx_HAL_Driver/Src/stm32f4xx_hal_rcc.c **** __weak HAL_StatusTypeDef HAL_RCC_OscConfig(RCC_OscInitTypeDef  *RCC_OscInitStruct)
 220:/home/vtrnnhlinh/STM32Cube/Repository/STM32Cube_FW_F4_V1.28.0/Drivers/STM32F4xx_HAL_Driver/Src/stm32f4xx_hal_rcc.c **** {
ARM GAS  /tmp/ccz6Q3rQ.s 			page 6


  58              		.loc 1 220 1 is_stmt 1 view -0
  59              		.cfi_startproc
  60              		@ args = 0, pretend = 0, frame = 8
  61              		@ frame_needed = 0, uses_anonymous_args = 0
 221:/home/vtrnnhlinh/STM32Cube/Repository/STM32Cube_FW_F4_V1.28.0/Drivers/STM32F4xx_HAL_Driver/Src/stm32f4xx_hal_rcc.c ****   uint32_t tickstart, pll_config;
  62              		.loc 1 221 3 view .LVU4
 222:/home/vtrnnhlinh/STM32Cube/Repository/STM32Cube_FW_F4_V1.28.0/Drivers/STM32F4xx_HAL_Driver/Src/stm32f4xx_hal_rcc.c **** 
 223:/home/vtrnnhlinh/STM32Cube/Repository/STM32Cube_FW_F4_V1.28.0/Drivers/STM32F4xx_HAL_Driver/Src/stm32f4xx_hal_rcc.c ****   /* Check Null pointer */
 224:/home/vtrnnhlinh/STM32Cube/Repository/STM32Cube_FW_F4_V1.28.0/Drivers/STM32F4xx_HAL_Driver/Src/stm32f4xx_hal_rcc.c ****   if(RCC_OscInitStruct == NULL)
  63              		.loc 1 224 3 view .LVU5
  64              		.loc 1 224 5 is_stmt 0 view .LVU6
  65 0000 0028     		cmp	r0, #0
  66 0002 00F05E82 		beq	.L64
 220:/home/vtrnnhlinh/STM32Cube/Repository/STM32Cube_FW_F4_V1.28.0/Drivers/STM32F4xx_HAL_Driver/Src/stm32f4xx_hal_rcc.c ****   uint32_t tickstart, pll_config;
  67              		.loc 1 220 1 view .LVU7
  68 0006 70B5     		push	{r4, r5, r6, lr}
  69              	.LCFI0:
  70              		.cfi_def_cfa_offset 16
  71              		.cfi_offset 4, -16
  72              		.cfi_offset 5, -12
  73              		.cfi_offset 6, -8
  74              		.cfi_offset 14, -4
  75 0008 82B0     		sub	sp, sp, #8
  76              	.LCFI1:
  77              		.cfi_def_cfa_offset 24
  78 000a 0446     		mov	r4, r0
 225:/home/vtrnnhlinh/STM32Cube/Repository/STM32Cube_FW_F4_V1.28.0/Drivers/STM32F4xx_HAL_Driver/Src/stm32f4xx_hal_rcc.c ****   {
 226:/home/vtrnnhlinh/STM32Cube/Repository/STM32Cube_FW_F4_V1.28.0/Drivers/STM32F4xx_HAL_Driver/Src/stm32f4xx_hal_rcc.c ****     return HAL_ERROR;
 227:/home/vtrnnhlinh/STM32Cube/Repository/STM32Cube_FW_F4_V1.28.0/Drivers/STM32F4xx_HAL_Driver/Src/stm32f4xx_hal_rcc.c ****   }
 228:/home/vtrnnhlinh/STM32Cube/Repository/STM32Cube_FW_F4_V1.28.0/Drivers/STM32F4xx_HAL_Driver/Src/stm32f4xx_hal_rcc.c **** 
 229:/home/vtrnnhlinh/STM32Cube/Repository/STM32Cube_FW_F4_V1.28.0/Drivers/STM32F4xx_HAL_Driver/Src/stm32f4xx_hal_rcc.c ****   /* Check the parameters */
 230:/home/vtrnnhlinh/STM32Cube/Repository/STM32Cube_FW_F4_V1.28.0/Drivers/STM32F4xx_HAL_Driver/Src/stm32f4xx_hal_rcc.c ****   assert_param(IS_RCC_OSCILLATORTYPE(RCC_OscInitStruct->OscillatorType));
  79              		.loc 1 230 3 is_stmt 1 view .LVU8
  80 000c 0368     		ldr	r3, [r0]
  81 000e 0F2B     		cmp	r3, #15
  82 0010 39D8     		bhi	.L91
  83              	.LVL1:
  84              	.L4:
 231:/home/vtrnnhlinh/STM32Cube/Repository/STM32Cube_FW_F4_V1.28.0/Drivers/STM32F4xx_HAL_Driver/Src/stm32f4xx_hal_rcc.c ****   /*------------------------------- HSE Configuration ------------------------*/
 232:/home/vtrnnhlinh/STM32Cube/Repository/STM32Cube_FW_F4_V1.28.0/Drivers/STM32F4xx_HAL_Driver/Src/stm32f4xx_hal_rcc.c ****   if(((RCC_OscInitStruct->OscillatorType) & RCC_OSCILLATORTYPE_HSE) == RCC_OSCILLATORTYPE_HSE)
  85              		.loc 1 232 3 view .LVU9
  86              		.loc 1 232 25 is_stmt 0 view .LVU10
  87 0012 2368     		ldr	r3, [r4]
  88              		.loc 1 232 5 view .LVU11
  89 0014 13F0010F 		tst	r3, #1
  90 0018 4DD0     		beq	.L5
 233:/home/vtrnnhlinh/STM32Cube/Repository/STM32Cube_FW_F4_V1.28.0/Drivers/STM32F4xx_HAL_Driver/Src/stm32f4xx_hal_rcc.c ****   {
 234:/home/vtrnnhlinh/STM32Cube/Repository/STM32Cube_FW_F4_V1.28.0/Drivers/STM32F4xx_HAL_Driver/Src/stm32f4xx_hal_rcc.c ****     /* Check the parameters */
 235:/home/vtrnnhlinh/STM32Cube/Repository/STM32Cube_FW_F4_V1.28.0/Drivers/STM32F4xx_HAL_Driver/Src/stm32f4xx_hal_rcc.c ****     assert_param(IS_RCC_HSE(RCC_OscInitStruct->HSEState));
  91              		.loc 1 235 5 is_stmt 1 view .LVU12
  92 001a 6368     		ldr	r3, [r4, #4]
  93 001c 2BB1     		cbz	r3, .L6
  94              		.loc 1 235 5 is_stmt 0 discriminator 1 view .LVU13
  95 001e B3F5803F 		cmp	r3, #65536
  96 0022 02D0     		beq	.L6
  97              		.loc 1 235 5 discriminator 2 view .LVU14
  98 0024 B3F5A02F 		cmp	r3, #327680
ARM GAS  /tmp/ccz6Q3rQ.s 			page 7


  99 0028 32D1     		bne	.L92
 100              	.L6:
 236:/home/vtrnnhlinh/STM32Cube/Repository/STM32Cube_FW_F4_V1.28.0/Drivers/STM32F4xx_HAL_Driver/Src/stm32f4xx_hal_rcc.c ****     /* When the HSE is used as system clock or clock source for PLL in these cases HSE will not dis
 237:/home/vtrnnhlinh/STM32Cube/Repository/STM32Cube_FW_F4_V1.28.0/Drivers/STM32F4xx_HAL_Driver/Src/stm32f4xx_hal_rcc.c ****     if((__HAL_RCC_GET_SYSCLK_SOURCE() == RCC_CFGR_SWS_HSE) ||\
 101              		.loc 1 237 5 is_stmt 1 view .LVU15
 102              		.loc 1 237 9 is_stmt 0 view .LVU16
 103 002a 804B     		ldr	r3, .L116
 104 002c 9B68     		ldr	r3, [r3, #8]
 105 002e 03F00C03 		and	r3, r3, #12
 106              		.loc 1 237 7 view .LVU17
 107 0032 042B     		cmp	r3, #4
 108 0034 36D0     		beq	.L7
 238:/home/vtrnnhlinh/STM32Cube/Repository/STM32Cube_FW_F4_V1.28.0/Drivers/STM32F4xx_HAL_Driver/Src/stm32f4xx_hal_rcc.c ****       ((__HAL_RCC_GET_SYSCLK_SOURCE() == RCC_CFGR_SWS_PLL) && ((RCC->PLLCFGR & RCC_PLLCFGR_PLLSRC) 
 109              		.loc 1 238 9 discriminator 1 view .LVU18
 110 0036 7D4B     		ldr	r3, .L116
 111 0038 9B68     		ldr	r3, [r3, #8]
 112 003a 03F00C03 		and	r3, r3, #12
 237:/home/vtrnnhlinh/STM32Cube/Repository/STM32Cube_FW_F4_V1.28.0/Drivers/STM32F4xx_HAL_Driver/Src/stm32f4xx_hal_rcc.c ****       ((__HAL_RCC_GET_SYSCLK_SOURCE() == RCC_CFGR_SWS_PLL) && ((RCC->PLLCFGR & RCC_PLLCFGR_PLLSRC) 
 113              		.loc 1 237 60 discriminator 1 view .LVU19
 114 003e 082B     		cmp	r3, #8
 115 0040 2BD0     		beq	.L93
 116              	.L8:
 239:/home/vtrnnhlinh/STM32Cube/Repository/STM32Cube_FW_F4_V1.28.0/Drivers/STM32F4xx_HAL_Driver/Src/stm32f4xx_hal_rcc.c ****     {
 240:/home/vtrnnhlinh/STM32Cube/Repository/STM32Cube_FW_F4_V1.28.0/Drivers/STM32F4xx_HAL_Driver/Src/stm32f4xx_hal_rcc.c ****       if((__HAL_RCC_GET_FLAG(RCC_FLAG_HSERDY) != RESET) && (RCC_OscInitStruct->HSEState == RCC_HSE_
 241:/home/vtrnnhlinh/STM32Cube/Repository/STM32Cube_FW_F4_V1.28.0/Drivers/STM32F4xx_HAL_Driver/Src/stm32f4xx_hal_rcc.c ****       {
 242:/home/vtrnnhlinh/STM32Cube/Repository/STM32Cube_FW_F4_V1.28.0/Drivers/STM32F4xx_HAL_Driver/Src/stm32f4xx_hal_rcc.c ****         return HAL_ERROR;
 243:/home/vtrnnhlinh/STM32Cube/Repository/STM32Cube_FW_F4_V1.28.0/Drivers/STM32F4xx_HAL_Driver/Src/stm32f4xx_hal_rcc.c ****       }
 244:/home/vtrnnhlinh/STM32Cube/Repository/STM32Cube_FW_F4_V1.28.0/Drivers/STM32F4xx_HAL_Driver/Src/stm32f4xx_hal_rcc.c ****     }
 245:/home/vtrnnhlinh/STM32Cube/Repository/STM32Cube_FW_F4_V1.28.0/Drivers/STM32F4xx_HAL_Driver/Src/stm32f4xx_hal_rcc.c ****     else
 246:/home/vtrnnhlinh/STM32Cube/Repository/STM32Cube_FW_F4_V1.28.0/Drivers/STM32F4xx_HAL_Driver/Src/stm32f4xx_hal_rcc.c ****     {
 247:/home/vtrnnhlinh/STM32Cube/Repository/STM32Cube_FW_F4_V1.28.0/Drivers/STM32F4xx_HAL_Driver/Src/stm32f4xx_hal_rcc.c ****       /* Set the new HSE configuration ---------------------------------------*/
 248:/home/vtrnnhlinh/STM32Cube/Repository/STM32Cube_FW_F4_V1.28.0/Drivers/STM32F4xx_HAL_Driver/Src/stm32f4xx_hal_rcc.c ****       __HAL_RCC_HSE_CONFIG(RCC_OscInitStruct->HSEState);
 117              		.loc 1 248 7 is_stmt 1 view .LVU20
 118              		.loc 1 248 7 view .LVU21
 119 0042 6368     		ldr	r3, [r4, #4]
 120 0044 B3F5803F 		cmp	r3, #65536
 121 0048 5FD0     		beq	.L94
 122              		.loc 1 248 7 discriminator 2 view .LVU22
 123 004a B3F5A02F 		cmp	r3, #327680
 124 004e 62D0     		beq	.L95
 125              		.loc 1 248 7 discriminator 5 view .LVU23
 126 0050 764B     		ldr	r3, .L116
 127 0052 1A68     		ldr	r2, [r3]
 128 0054 22F48032 		bic	r2, r2, #65536
 129 0058 1A60     		str	r2, [r3]
 130              		.loc 1 248 7 discriminator 5 view .LVU24
 131 005a 1A68     		ldr	r2, [r3]
 132 005c 22F48022 		bic	r2, r2, #262144
 133 0060 1A60     		str	r2, [r3]
 134              	.L10:
 135              		.loc 1 248 7 discriminator 7 view .LVU25
 249:/home/vtrnnhlinh/STM32Cube/Repository/STM32Cube_FW_F4_V1.28.0/Drivers/STM32F4xx_HAL_Driver/Src/stm32f4xx_hal_rcc.c **** 
 250:/home/vtrnnhlinh/STM32Cube/Repository/STM32Cube_FW_F4_V1.28.0/Drivers/STM32F4xx_HAL_Driver/Src/stm32f4xx_hal_rcc.c ****       /* Check the HSE State */
 251:/home/vtrnnhlinh/STM32Cube/Repository/STM32Cube_FW_F4_V1.28.0/Drivers/STM32F4xx_HAL_Driver/Src/stm32f4xx_hal_rcc.c ****       if((RCC_OscInitStruct->HSEState) != RCC_HSE_OFF)
 136              		.loc 1 251 7 discriminator 7 view .LVU26
 137              		.loc 1 251 28 is_stmt 0 discriminator 7 view .LVU27
 138 0062 6368     		ldr	r3, [r4, #4]
ARM GAS  /tmp/ccz6Q3rQ.s 			page 8


 139              		.loc 1 251 9 discriminator 7 view .LVU28
 140 0064 002B     		cmp	r3, #0
 141 0066 60D0     		beq	.L12
 252:/home/vtrnnhlinh/STM32Cube/Repository/STM32Cube_FW_F4_V1.28.0/Drivers/STM32F4xx_HAL_Driver/Src/stm32f4xx_hal_rcc.c ****       {
 253:/home/vtrnnhlinh/STM32Cube/Repository/STM32Cube_FW_F4_V1.28.0/Drivers/STM32F4xx_HAL_Driver/Src/stm32f4xx_hal_rcc.c ****         /* Get Start Tick */
 254:/home/vtrnnhlinh/STM32Cube/Repository/STM32Cube_FW_F4_V1.28.0/Drivers/STM32F4xx_HAL_Driver/Src/stm32f4xx_hal_rcc.c ****         tickstart = HAL_GetTick();
 142              		.loc 1 254 9 is_stmt 1 view .LVU29
 143              		.loc 1 254 21 is_stmt 0 view .LVU30
 144 0068 FFF7FEFF 		bl	HAL_GetTick
 145              	.LVL2:
 146 006c 0546     		mov	r5, r0
 147              	.LVL3:
 255:/home/vtrnnhlinh/STM32Cube/Repository/STM32Cube_FW_F4_V1.28.0/Drivers/STM32F4xx_HAL_Driver/Src/stm32f4xx_hal_rcc.c **** 
 256:/home/vtrnnhlinh/STM32Cube/Repository/STM32Cube_FW_F4_V1.28.0/Drivers/STM32F4xx_HAL_Driver/Src/stm32f4xx_hal_rcc.c ****         /* Wait till HSE is ready */
 257:/home/vtrnnhlinh/STM32Cube/Repository/STM32Cube_FW_F4_V1.28.0/Drivers/STM32F4xx_HAL_Driver/Src/stm32f4xx_hal_rcc.c ****         while(__HAL_RCC_GET_FLAG(RCC_FLAG_HSERDY) == RESET)
 148              		.loc 1 257 9 is_stmt 1 view .LVU31
 149              	.L13:
 150              		.loc 1 257 14 view .LVU32
 151              		.loc 1 257 15 is_stmt 0 view .LVU33
 152 006e 6F4B     		ldr	r3, .L116
 153 0070 1B68     		ldr	r3, [r3]
 154              		.loc 1 257 14 view .LVU34
 155 0072 13F4003F 		tst	r3, #131072
 156 0076 1ED1     		bne	.L5
 258:/home/vtrnnhlinh/STM32Cube/Repository/STM32Cube_FW_F4_V1.28.0/Drivers/STM32F4xx_HAL_Driver/Src/stm32f4xx_hal_rcc.c ****         {
 259:/home/vtrnnhlinh/STM32Cube/Repository/STM32Cube_FW_F4_V1.28.0/Drivers/STM32F4xx_HAL_Driver/Src/stm32f4xx_hal_rcc.c ****           if((HAL_GetTick() - tickstart ) > HSE_TIMEOUT_VALUE)
 157              		.loc 1 259 11 is_stmt 1 view .LVU35
 158              		.loc 1 259 15 is_stmt 0 view .LVU36
 159 0078 FFF7FEFF 		bl	HAL_GetTick
 160              	.LVL4:
 161              		.loc 1 259 29 view .LVU37
 162 007c 401B     		subs	r0, r0, r5
 163              		.loc 1 259 13 view .LVU38
 164 007e 6428     		cmp	r0, #100
 165 0080 F5D9     		bls	.L13
 260:/home/vtrnnhlinh/STM32Cube/Repository/STM32Cube_FW_F4_V1.28.0/Drivers/STM32F4xx_HAL_Driver/Src/stm32f4xx_hal_rcc.c ****           {
 261:/home/vtrnnhlinh/STM32Cube/Repository/STM32Cube_FW_F4_V1.28.0/Drivers/STM32F4xx_HAL_Driver/Src/stm32f4xx_hal_rcc.c ****             return HAL_TIMEOUT;
 166              		.loc 1 261 20 view .LVU39
 167 0082 0320     		movs	r0, #3
 168 0084 24E2     		b	.L3
 169              	.LVL5:
 170              	.L91:
 230:/home/vtrnnhlinh/STM32Cube/Repository/STM32Cube_FW_F4_V1.28.0/Drivers/STM32F4xx_HAL_Driver/Src/stm32f4xx_hal_rcc.c ****   /*------------------------------- HSE Configuration ------------------------*/
 171              		.loc 1 230 3 discriminator 1 view .LVU40
 172 0086 E621     		movs	r1, #230
 173 0088 6948     		ldr	r0, .L116+4
 174              	.LVL6:
 230:/home/vtrnnhlinh/STM32Cube/Repository/STM32Cube_FW_F4_V1.28.0/Drivers/STM32F4xx_HAL_Driver/Src/stm32f4xx_hal_rcc.c ****   /*------------------------------- HSE Configuration ------------------------*/
 175              		.loc 1 230 3 discriminator 1 view .LVU41
 176 008a FFF7FEFF 		bl	assert_failed
 177              	.LVL7:
 178 008e C0E7     		b	.L4
 179              	.L92:
 235:/home/vtrnnhlinh/STM32Cube/Repository/STM32Cube_FW_F4_V1.28.0/Drivers/STM32F4xx_HAL_Driver/Src/stm32f4xx_hal_rcc.c ****     /* When the HSE is used as system clock or clock source for PLL in these cases HSE will not dis
 180              		.loc 1 235 5 discriminator 3 view .LVU42
 181 0090 EB21     		movs	r1, #235
 182 0092 6748     		ldr	r0, .L116+4
ARM GAS  /tmp/ccz6Q3rQ.s 			page 9


 183 0094 FFF7FEFF 		bl	assert_failed
 184              	.LVL8:
 185 0098 C7E7     		b	.L6
 186              	.L93:
 238:/home/vtrnnhlinh/STM32Cube/Repository/STM32Cube_FW_F4_V1.28.0/Drivers/STM32F4xx_HAL_Driver/Src/stm32f4xx_hal_rcc.c ****     {
 187              		.loc 1 238 68 view .LVU43
 188 009a 644B     		ldr	r3, .L116
 189 009c 5B68     		ldr	r3, [r3, #4]
 238:/home/vtrnnhlinh/STM32Cube/Repository/STM32Cube_FW_F4_V1.28.0/Drivers/STM32F4xx_HAL_Driver/Src/stm32f4xx_hal_rcc.c ****     {
 190              		.loc 1 238 60 view .LVU44
 191 009e 13F4800F 		tst	r3, #4194304
 192 00a2 CED0     		beq	.L8
 193              	.L7:
 240:/home/vtrnnhlinh/STM32Cube/Repository/STM32Cube_FW_F4_V1.28.0/Drivers/STM32F4xx_HAL_Driver/Src/stm32f4xx_hal_rcc.c ****       {
 194              		.loc 1 240 7 is_stmt 1 view .LVU45
 240:/home/vtrnnhlinh/STM32Cube/Repository/STM32Cube_FW_F4_V1.28.0/Drivers/STM32F4xx_HAL_Driver/Src/stm32f4xx_hal_rcc.c ****       {
 195              		.loc 1 240 11 is_stmt 0 view .LVU46
 196 00a4 614B     		ldr	r3, .L116
 197 00a6 1B68     		ldr	r3, [r3]
 240:/home/vtrnnhlinh/STM32Cube/Repository/STM32Cube_FW_F4_V1.28.0/Drivers/STM32F4xx_HAL_Driver/Src/stm32f4xx_hal_rcc.c ****       {
 198              		.loc 1 240 9 view .LVU47
 199 00a8 13F4003F 		tst	r3, #131072
 200 00ac 03D0     		beq	.L5
 240:/home/vtrnnhlinh/STM32Cube/Repository/STM32Cube_FW_F4_V1.28.0/Drivers/STM32F4xx_HAL_Driver/Src/stm32f4xx_hal_rcc.c ****       {
 201              		.loc 1 240 78 discriminator 1 view .LVU48
 202 00ae 6368     		ldr	r3, [r4, #4]
 240:/home/vtrnnhlinh/STM32Cube/Repository/STM32Cube_FW_F4_V1.28.0/Drivers/STM32F4xx_HAL_Driver/Src/stm32f4xx_hal_rcc.c ****       {
 203              		.loc 1 240 57 discriminator 1 view .LVU49
 204 00b0 002B     		cmp	r3, #0
 205 00b2 00F00882 		beq	.L96
 206              	.L5:
 262:/home/vtrnnhlinh/STM32Cube/Repository/STM32Cube_FW_F4_V1.28.0/Drivers/STM32F4xx_HAL_Driver/Src/stm32f4xx_hal_rcc.c ****           }
 263:/home/vtrnnhlinh/STM32Cube/Repository/STM32Cube_FW_F4_V1.28.0/Drivers/STM32F4xx_HAL_Driver/Src/stm32f4xx_hal_rcc.c ****         }
 264:/home/vtrnnhlinh/STM32Cube/Repository/STM32Cube_FW_F4_V1.28.0/Drivers/STM32F4xx_HAL_Driver/Src/stm32f4xx_hal_rcc.c ****       }
 265:/home/vtrnnhlinh/STM32Cube/Repository/STM32Cube_FW_F4_V1.28.0/Drivers/STM32F4xx_HAL_Driver/Src/stm32f4xx_hal_rcc.c ****       else
 266:/home/vtrnnhlinh/STM32Cube/Repository/STM32Cube_FW_F4_V1.28.0/Drivers/STM32F4xx_HAL_Driver/Src/stm32f4xx_hal_rcc.c ****       {
 267:/home/vtrnnhlinh/STM32Cube/Repository/STM32Cube_FW_F4_V1.28.0/Drivers/STM32F4xx_HAL_Driver/Src/stm32f4xx_hal_rcc.c ****         /* Get Start Tick */
 268:/home/vtrnnhlinh/STM32Cube/Repository/STM32Cube_FW_F4_V1.28.0/Drivers/STM32F4xx_HAL_Driver/Src/stm32f4xx_hal_rcc.c ****         tickstart = HAL_GetTick();
 269:/home/vtrnnhlinh/STM32Cube/Repository/STM32Cube_FW_F4_V1.28.0/Drivers/STM32F4xx_HAL_Driver/Src/stm32f4xx_hal_rcc.c **** 
 270:/home/vtrnnhlinh/STM32Cube/Repository/STM32Cube_FW_F4_V1.28.0/Drivers/STM32F4xx_HAL_Driver/Src/stm32f4xx_hal_rcc.c ****         /* Wait till HSE is bypassed or disabled */
 271:/home/vtrnnhlinh/STM32Cube/Repository/STM32Cube_FW_F4_V1.28.0/Drivers/STM32F4xx_HAL_Driver/Src/stm32f4xx_hal_rcc.c ****         while(__HAL_RCC_GET_FLAG(RCC_FLAG_HSERDY) != RESET)
 272:/home/vtrnnhlinh/STM32Cube/Repository/STM32Cube_FW_F4_V1.28.0/Drivers/STM32F4xx_HAL_Driver/Src/stm32f4xx_hal_rcc.c ****         {
 273:/home/vtrnnhlinh/STM32Cube/Repository/STM32Cube_FW_F4_V1.28.0/Drivers/STM32F4xx_HAL_Driver/Src/stm32f4xx_hal_rcc.c ****           if((HAL_GetTick() - tickstart ) > HSE_TIMEOUT_VALUE)
 274:/home/vtrnnhlinh/STM32Cube/Repository/STM32Cube_FW_F4_V1.28.0/Drivers/STM32F4xx_HAL_Driver/Src/stm32f4xx_hal_rcc.c ****           {
 275:/home/vtrnnhlinh/STM32Cube/Repository/STM32Cube_FW_F4_V1.28.0/Drivers/STM32F4xx_HAL_Driver/Src/stm32f4xx_hal_rcc.c ****             return HAL_TIMEOUT;
 276:/home/vtrnnhlinh/STM32Cube/Repository/STM32Cube_FW_F4_V1.28.0/Drivers/STM32F4xx_HAL_Driver/Src/stm32f4xx_hal_rcc.c ****           }
 277:/home/vtrnnhlinh/STM32Cube/Repository/STM32Cube_FW_F4_V1.28.0/Drivers/STM32F4xx_HAL_Driver/Src/stm32f4xx_hal_rcc.c ****         }
 278:/home/vtrnnhlinh/STM32Cube/Repository/STM32Cube_FW_F4_V1.28.0/Drivers/STM32F4xx_HAL_Driver/Src/stm32f4xx_hal_rcc.c ****       }
 279:/home/vtrnnhlinh/STM32Cube/Repository/STM32Cube_FW_F4_V1.28.0/Drivers/STM32F4xx_HAL_Driver/Src/stm32f4xx_hal_rcc.c ****     }
 280:/home/vtrnnhlinh/STM32Cube/Repository/STM32Cube_FW_F4_V1.28.0/Drivers/STM32F4xx_HAL_Driver/Src/stm32f4xx_hal_rcc.c ****   }
 281:/home/vtrnnhlinh/STM32Cube/Repository/STM32Cube_FW_F4_V1.28.0/Drivers/STM32F4xx_HAL_Driver/Src/stm32f4xx_hal_rcc.c ****   /*----------------------------- HSI Configuration --------------------------*/
 282:/home/vtrnnhlinh/STM32Cube/Repository/STM32Cube_FW_F4_V1.28.0/Drivers/STM32F4xx_HAL_Driver/Src/stm32f4xx_hal_rcc.c ****   if(((RCC_OscInitStruct->OscillatorType) & RCC_OSCILLATORTYPE_HSI) == RCC_OSCILLATORTYPE_HSI)
 207              		.loc 1 282 3 is_stmt 1 view .LVU50
 208              		.loc 1 282 25 is_stmt 0 view .LVU51
 209 00b6 2368     		ldr	r3, [r4]
 210              		.loc 1 282 5 view .LVU52
 211 00b8 13F0020F 		tst	r3, #2
ARM GAS  /tmp/ccz6Q3rQ.s 			page 10


 212 00bc 66D0     		beq	.L17
 283:/home/vtrnnhlinh/STM32Cube/Repository/STM32Cube_FW_F4_V1.28.0/Drivers/STM32F4xx_HAL_Driver/Src/stm32f4xx_hal_rcc.c ****   {
 284:/home/vtrnnhlinh/STM32Cube/Repository/STM32Cube_FW_F4_V1.28.0/Drivers/STM32F4xx_HAL_Driver/Src/stm32f4xx_hal_rcc.c ****     /* Check the parameters */
 285:/home/vtrnnhlinh/STM32Cube/Repository/STM32Cube_FW_F4_V1.28.0/Drivers/STM32F4xx_HAL_Driver/Src/stm32f4xx_hal_rcc.c ****     assert_param(IS_RCC_HSI(RCC_OscInitStruct->HSIState));
 213              		.loc 1 285 5 is_stmt 1 view .LVU53
 214 00be E368     		ldr	r3, [r4, #12]
 215 00c0 012B     		cmp	r3, #1
 216 00c2 41D8     		bhi	.L97
 217              	.L18:
 286:/home/vtrnnhlinh/STM32Cube/Repository/STM32Cube_FW_F4_V1.28.0/Drivers/STM32F4xx_HAL_Driver/Src/stm32f4xx_hal_rcc.c ****     assert_param(IS_RCC_CALIBRATION_VALUE(RCC_OscInitStruct->HSICalibrationValue));
 218              		.loc 1 286 5 view .LVU54
 219 00c4 2369     		ldr	r3, [r4, #16]
 220 00c6 1F2B     		cmp	r3, #31
 221 00c8 44D8     		bhi	.L98
 222              	.L19:
 287:/home/vtrnnhlinh/STM32Cube/Repository/STM32Cube_FW_F4_V1.28.0/Drivers/STM32F4xx_HAL_Driver/Src/stm32f4xx_hal_rcc.c **** 
 288:/home/vtrnnhlinh/STM32Cube/Repository/STM32Cube_FW_F4_V1.28.0/Drivers/STM32F4xx_HAL_Driver/Src/stm32f4xx_hal_rcc.c ****     /* Check if HSI is used as system clock or as PLL source when PLL is selected as system clock *
 289:/home/vtrnnhlinh/STM32Cube/Repository/STM32Cube_FW_F4_V1.28.0/Drivers/STM32F4xx_HAL_Driver/Src/stm32f4xx_hal_rcc.c ****     if((__HAL_RCC_GET_SYSCLK_SOURCE() == RCC_CFGR_SWS_HSI) ||\
 223              		.loc 1 289 5 view .LVU55
 224              		.loc 1 289 9 is_stmt 0 view .LVU56
 225 00ca 584B     		ldr	r3, .L116
 226 00cc 9B68     		ldr	r3, [r3, #8]
 227              		.loc 1 289 7 view .LVU57
 228 00ce 13F00C0F 		tst	r3, #12
 229 00d2 4AD0     		beq	.L20
 290:/home/vtrnnhlinh/STM32Cube/Repository/STM32Cube_FW_F4_V1.28.0/Drivers/STM32F4xx_HAL_Driver/Src/stm32f4xx_hal_rcc.c ****       ((__HAL_RCC_GET_SYSCLK_SOURCE() == RCC_CFGR_SWS_PLL) && ((RCC->PLLCFGR & RCC_PLLCFGR_PLLSRC) 
 230              		.loc 1 290 9 discriminator 1 view .LVU58
 231 00d4 554B     		ldr	r3, .L116
 232 00d6 9B68     		ldr	r3, [r3, #8]
 233 00d8 03F00C03 		and	r3, r3, #12
 289:/home/vtrnnhlinh/STM32Cube/Repository/STM32Cube_FW_F4_V1.28.0/Drivers/STM32F4xx_HAL_Driver/Src/stm32f4xx_hal_rcc.c ****       ((__HAL_RCC_GET_SYSCLK_SOURCE() == RCC_CFGR_SWS_PLL) && ((RCC->PLLCFGR & RCC_PLLCFGR_PLLSRC) 
 234              		.loc 1 289 60 discriminator 1 view .LVU59
 235 00dc 082B     		cmp	r3, #8
 236 00de 3FD0     		beq	.L99
 237              	.L21:
 291:/home/vtrnnhlinh/STM32Cube/Repository/STM32Cube_FW_F4_V1.28.0/Drivers/STM32F4xx_HAL_Driver/Src/stm32f4xx_hal_rcc.c ****     {
 292:/home/vtrnnhlinh/STM32Cube/Repository/STM32Cube_FW_F4_V1.28.0/Drivers/STM32F4xx_HAL_Driver/Src/stm32f4xx_hal_rcc.c ****       /* When HSI is used as system clock it will not disabled */
 293:/home/vtrnnhlinh/STM32Cube/Repository/STM32Cube_FW_F4_V1.28.0/Drivers/STM32F4xx_HAL_Driver/Src/stm32f4xx_hal_rcc.c ****       if((__HAL_RCC_GET_FLAG(RCC_FLAG_HSIRDY) != RESET) && (RCC_OscInitStruct->HSIState != RCC_HSI_
 294:/home/vtrnnhlinh/STM32Cube/Repository/STM32Cube_FW_F4_V1.28.0/Drivers/STM32F4xx_HAL_Driver/Src/stm32f4xx_hal_rcc.c ****       {
 295:/home/vtrnnhlinh/STM32Cube/Repository/STM32Cube_FW_F4_V1.28.0/Drivers/STM32F4xx_HAL_Driver/Src/stm32f4xx_hal_rcc.c ****         return HAL_ERROR;
 296:/home/vtrnnhlinh/STM32Cube/Repository/STM32Cube_FW_F4_V1.28.0/Drivers/STM32F4xx_HAL_Driver/Src/stm32f4xx_hal_rcc.c ****       }
 297:/home/vtrnnhlinh/STM32Cube/Repository/STM32Cube_FW_F4_V1.28.0/Drivers/STM32F4xx_HAL_Driver/Src/stm32f4xx_hal_rcc.c ****       /* Otherwise, just the calibration is allowed */
 298:/home/vtrnnhlinh/STM32Cube/Repository/STM32Cube_FW_F4_V1.28.0/Drivers/STM32F4xx_HAL_Driver/Src/stm32f4xx_hal_rcc.c ****       else
 299:/home/vtrnnhlinh/STM32Cube/Repository/STM32Cube_FW_F4_V1.28.0/Drivers/STM32F4xx_HAL_Driver/Src/stm32f4xx_hal_rcc.c ****       {
 300:/home/vtrnnhlinh/STM32Cube/Repository/STM32Cube_FW_F4_V1.28.0/Drivers/STM32F4xx_HAL_Driver/Src/stm32f4xx_hal_rcc.c ****         /* Adjusts the Internal High Speed oscillator (HSI) calibration value.*/
 301:/home/vtrnnhlinh/STM32Cube/Repository/STM32Cube_FW_F4_V1.28.0/Drivers/STM32F4xx_HAL_Driver/Src/stm32f4xx_hal_rcc.c ****         __HAL_RCC_HSI_CALIBRATIONVALUE_ADJUST(RCC_OscInitStruct->HSICalibrationValue);
 302:/home/vtrnnhlinh/STM32Cube/Repository/STM32Cube_FW_F4_V1.28.0/Drivers/STM32F4xx_HAL_Driver/Src/stm32f4xx_hal_rcc.c ****       }
 303:/home/vtrnnhlinh/STM32Cube/Repository/STM32Cube_FW_F4_V1.28.0/Drivers/STM32F4xx_HAL_Driver/Src/stm32f4xx_hal_rcc.c ****     }
 304:/home/vtrnnhlinh/STM32Cube/Repository/STM32Cube_FW_F4_V1.28.0/Drivers/STM32F4xx_HAL_Driver/Src/stm32f4xx_hal_rcc.c ****     else
 305:/home/vtrnnhlinh/STM32Cube/Repository/STM32Cube_FW_F4_V1.28.0/Drivers/STM32F4xx_HAL_Driver/Src/stm32f4xx_hal_rcc.c ****     {
 306:/home/vtrnnhlinh/STM32Cube/Repository/STM32Cube_FW_F4_V1.28.0/Drivers/STM32F4xx_HAL_Driver/Src/stm32f4xx_hal_rcc.c ****       /* Check the HSI State */
 307:/home/vtrnnhlinh/STM32Cube/Repository/STM32Cube_FW_F4_V1.28.0/Drivers/STM32F4xx_HAL_Driver/Src/stm32f4xx_hal_rcc.c ****       if((RCC_OscInitStruct->HSIState)!= RCC_HSI_OFF)
 238              		.loc 1 307 7 is_stmt 1 view .LVU60
 239              		.loc 1 307 28 is_stmt 0 view .LVU61
 240 00e0 E368     		ldr	r3, [r4, #12]
 241              		.loc 1 307 9 view .LVU62
 242 00e2 002B     		cmp	r3, #0
ARM GAS  /tmp/ccz6Q3rQ.s 			page 11


 243 00e4 77D0     		beq	.L23
 308:/home/vtrnnhlinh/STM32Cube/Repository/STM32Cube_FW_F4_V1.28.0/Drivers/STM32F4xx_HAL_Driver/Src/stm32f4xx_hal_rcc.c ****       {
 309:/home/vtrnnhlinh/STM32Cube/Repository/STM32Cube_FW_F4_V1.28.0/Drivers/STM32F4xx_HAL_Driver/Src/stm32f4xx_hal_rcc.c ****         /* Enable the Internal High Speed oscillator (HSI). */
 310:/home/vtrnnhlinh/STM32Cube/Repository/STM32Cube_FW_F4_V1.28.0/Drivers/STM32F4xx_HAL_Driver/Src/stm32f4xx_hal_rcc.c ****         __HAL_RCC_HSI_ENABLE();
 244              		.loc 1 310 9 is_stmt 1 view .LVU63
 245 00e6 534B     		ldr	r3, .L116+8
 246 00e8 0122     		movs	r2, #1
 247 00ea 1A60     		str	r2, [r3]
 311:/home/vtrnnhlinh/STM32Cube/Repository/STM32Cube_FW_F4_V1.28.0/Drivers/STM32F4xx_HAL_Driver/Src/stm32f4xx_hal_rcc.c **** 
 312:/home/vtrnnhlinh/STM32Cube/Repository/STM32Cube_FW_F4_V1.28.0/Drivers/STM32F4xx_HAL_Driver/Src/stm32f4xx_hal_rcc.c ****         /* Get Start Tick*/
 313:/home/vtrnnhlinh/STM32Cube/Repository/STM32Cube_FW_F4_V1.28.0/Drivers/STM32F4xx_HAL_Driver/Src/stm32f4xx_hal_rcc.c ****         tickstart = HAL_GetTick();
 248              		.loc 1 313 9 view .LVU64
 249              		.loc 1 313 21 is_stmt 0 view .LVU65
 250 00ec FFF7FEFF 		bl	HAL_GetTick
 251              	.LVL9:
 252 00f0 0546     		mov	r5, r0
 253              	.LVL10:
 314:/home/vtrnnhlinh/STM32Cube/Repository/STM32Cube_FW_F4_V1.28.0/Drivers/STM32F4xx_HAL_Driver/Src/stm32f4xx_hal_rcc.c **** 
 315:/home/vtrnnhlinh/STM32Cube/Repository/STM32Cube_FW_F4_V1.28.0/Drivers/STM32F4xx_HAL_Driver/Src/stm32f4xx_hal_rcc.c ****         /* Wait till HSI is ready */
 316:/home/vtrnnhlinh/STM32Cube/Repository/STM32Cube_FW_F4_V1.28.0/Drivers/STM32F4xx_HAL_Driver/Src/stm32f4xx_hal_rcc.c ****         while(__HAL_RCC_GET_FLAG(RCC_FLAG_HSIRDY) == RESET)
 254              		.loc 1 316 9 is_stmt 1 view .LVU66
 255              	.L24:
 256              		.loc 1 316 14 view .LVU67
 257              		.loc 1 316 15 is_stmt 0 view .LVU68
 258 00f2 4E4B     		ldr	r3, .L116
 259 00f4 1B68     		ldr	r3, [r3]
 260              		.loc 1 316 14 view .LVU69
 261 00f6 13F0020F 		tst	r3, #2
 262 00fa 63D1     		bne	.L100
 317:/home/vtrnnhlinh/STM32Cube/Repository/STM32Cube_FW_F4_V1.28.0/Drivers/STM32F4xx_HAL_Driver/Src/stm32f4xx_hal_rcc.c ****         {
 318:/home/vtrnnhlinh/STM32Cube/Repository/STM32Cube_FW_F4_V1.28.0/Drivers/STM32F4xx_HAL_Driver/Src/stm32f4xx_hal_rcc.c ****           if((HAL_GetTick() - tickstart ) > HSI_TIMEOUT_VALUE)
 263              		.loc 1 318 11 is_stmt 1 view .LVU70
 264              		.loc 1 318 15 is_stmt 0 view .LVU71
 265 00fc FFF7FEFF 		bl	HAL_GetTick
 266              	.LVL11:
 267              		.loc 1 318 29 view .LVU72
 268 0100 401B     		subs	r0, r0, r5
 269              		.loc 1 318 13 view .LVU73
 270 0102 0228     		cmp	r0, #2
 271 0104 F5D9     		bls	.L24
 319:/home/vtrnnhlinh/STM32Cube/Repository/STM32Cube_FW_F4_V1.28.0/Drivers/STM32F4xx_HAL_Driver/Src/stm32f4xx_hal_rcc.c ****           {
 320:/home/vtrnnhlinh/STM32Cube/Repository/STM32Cube_FW_F4_V1.28.0/Drivers/STM32F4xx_HAL_Driver/Src/stm32f4xx_hal_rcc.c ****             return HAL_TIMEOUT;
 272              		.loc 1 320 20 view .LVU74
 273 0106 0320     		movs	r0, #3
 274 0108 E2E1     		b	.L3
 275              	.LVL12:
 276              	.L94:
 248:/home/vtrnnhlinh/STM32Cube/Repository/STM32Cube_FW_F4_V1.28.0/Drivers/STM32F4xx_HAL_Driver/Src/stm32f4xx_hal_rcc.c **** 
 277              		.loc 1 248 7 is_stmt 1 discriminator 1 view .LVU75
 278 010a 484A     		ldr	r2, .L116
 279 010c 1368     		ldr	r3, [r2]
 280 010e 43F48033 		orr	r3, r3, #65536
 281 0112 1360     		str	r3, [r2]
 282 0114 A5E7     		b	.L10
 283              	.L95:
 248:/home/vtrnnhlinh/STM32Cube/Repository/STM32Cube_FW_F4_V1.28.0/Drivers/STM32F4xx_HAL_Driver/Src/stm32f4xx_hal_rcc.c **** 
 284              		.loc 1 248 7 discriminator 4 view .LVU76
ARM GAS  /tmp/ccz6Q3rQ.s 			page 12


 285 0116 454B     		ldr	r3, .L116
 286 0118 1A68     		ldr	r2, [r3]
 287 011a 42F48022 		orr	r2, r2, #262144
 288 011e 1A60     		str	r2, [r3]
 248:/home/vtrnnhlinh/STM32Cube/Repository/STM32Cube_FW_F4_V1.28.0/Drivers/STM32F4xx_HAL_Driver/Src/stm32f4xx_hal_rcc.c **** 
 289              		.loc 1 248 7 discriminator 4 view .LVU77
 290 0120 1A68     		ldr	r2, [r3]
 291 0122 42F48032 		orr	r2, r2, #65536
 292 0126 1A60     		str	r2, [r3]
 293 0128 9BE7     		b	.L10
 294              	.L12:
 268:/home/vtrnnhlinh/STM32Cube/Repository/STM32Cube_FW_F4_V1.28.0/Drivers/STM32F4xx_HAL_Driver/Src/stm32f4xx_hal_rcc.c **** 
 295              		.loc 1 268 9 view .LVU78
 268:/home/vtrnnhlinh/STM32Cube/Repository/STM32Cube_FW_F4_V1.28.0/Drivers/STM32F4xx_HAL_Driver/Src/stm32f4xx_hal_rcc.c **** 
 296              		.loc 1 268 21 is_stmt 0 view .LVU79
 297 012a FFF7FEFF 		bl	HAL_GetTick
 298              	.LVL13:
 299 012e 0546     		mov	r5, r0
 300              	.LVL14:
 271:/home/vtrnnhlinh/STM32Cube/Repository/STM32Cube_FW_F4_V1.28.0/Drivers/STM32F4xx_HAL_Driver/Src/stm32f4xx_hal_rcc.c ****         {
 301              		.loc 1 271 9 is_stmt 1 view .LVU80
 302              	.L15:
 271:/home/vtrnnhlinh/STM32Cube/Repository/STM32Cube_FW_F4_V1.28.0/Drivers/STM32F4xx_HAL_Driver/Src/stm32f4xx_hal_rcc.c ****         {
 303              		.loc 1 271 14 view .LVU81
 271:/home/vtrnnhlinh/STM32Cube/Repository/STM32Cube_FW_F4_V1.28.0/Drivers/STM32F4xx_HAL_Driver/Src/stm32f4xx_hal_rcc.c ****         {
 304              		.loc 1 271 15 is_stmt 0 view .LVU82
 305 0130 3E4B     		ldr	r3, .L116
 306 0132 1B68     		ldr	r3, [r3]
 271:/home/vtrnnhlinh/STM32Cube/Repository/STM32Cube_FW_F4_V1.28.0/Drivers/STM32F4xx_HAL_Driver/Src/stm32f4xx_hal_rcc.c ****         {
 307              		.loc 1 271 14 view .LVU83
 308 0134 13F4003F 		tst	r3, #131072
 309 0138 BDD0     		beq	.L5
 273:/home/vtrnnhlinh/STM32Cube/Repository/STM32Cube_FW_F4_V1.28.0/Drivers/STM32F4xx_HAL_Driver/Src/stm32f4xx_hal_rcc.c ****           {
 310              		.loc 1 273 11 is_stmt 1 view .LVU84
 273:/home/vtrnnhlinh/STM32Cube/Repository/STM32Cube_FW_F4_V1.28.0/Drivers/STM32F4xx_HAL_Driver/Src/stm32f4xx_hal_rcc.c ****           {
 311              		.loc 1 273 15 is_stmt 0 view .LVU85
 312 013a FFF7FEFF 		bl	HAL_GetTick
 313              	.LVL15:
 273:/home/vtrnnhlinh/STM32Cube/Repository/STM32Cube_FW_F4_V1.28.0/Drivers/STM32F4xx_HAL_Driver/Src/stm32f4xx_hal_rcc.c ****           {
 314              		.loc 1 273 29 view .LVU86
 315 013e 401B     		subs	r0, r0, r5
 273:/home/vtrnnhlinh/STM32Cube/Repository/STM32Cube_FW_F4_V1.28.0/Drivers/STM32F4xx_HAL_Driver/Src/stm32f4xx_hal_rcc.c ****           {
 316              		.loc 1 273 13 view .LVU87
 317 0140 6428     		cmp	r0, #100
 318 0142 F5D9     		bls	.L15
 275:/home/vtrnnhlinh/STM32Cube/Repository/STM32Cube_FW_F4_V1.28.0/Drivers/STM32F4xx_HAL_Driver/Src/stm32f4xx_hal_rcc.c ****           }
 319              		.loc 1 275 20 view .LVU88
 320 0144 0320     		movs	r0, #3
 321 0146 C3E1     		b	.L3
 322              	.LVL16:
 323              	.L97:
 285:/home/vtrnnhlinh/STM32Cube/Repository/STM32Cube_FW_F4_V1.28.0/Drivers/STM32F4xx_HAL_Driver/Src/stm32f4xx_hal_rcc.c ****     assert_param(IS_RCC_CALIBRATION_VALUE(RCC_OscInitStruct->HSICalibrationValue));
 324              		.loc 1 285 5 discriminator 1 view .LVU89
 325 0148 40F21D11 		movw	r1, #285
 326 014c 3848     		ldr	r0, .L116+4
 327 014e FFF7FEFF 		bl	assert_failed
 328              	.LVL17:
ARM GAS  /tmp/ccz6Q3rQ.s 			page 13


 329 0152 B7E7     		b	.L18
 330              	.L98:
 286:/home/vtrnnhlinh/STM32Cube/Repository/STM32Cube_FW_F4_V1.28.0/Drivers/STM32F4xx_HAL_Driver/Src/stm32f4xx_hal_rcc.c **** 
 331              		.loc 1 286 5 discriminator 1 view .LVU90
 332 0154 4FF48F71 		mov	r1, #286
 333 0158 3548     		ldr	r0, .L116+4
 334 015a FFF7FEFF 		bl	assert_failed
 335              	.LVL18:
 336 015e B4E7     		b	.L19
 337              	.L99:
 290:/home/vtrnnhlinh/STM32Cube/Repository/STM32Cube_FW_F4_V1.28.0/Drivers/STM32F4xx_HAL_Driver/Src/stm32f4xx_hal_rcc.c ****     {
 338              		.loc 1 290 68 view .LVU91
 339 0160 324B     		ldr	r3, .L116
 340 0162 5B68     		ldr	r3, [r3, #4]
 290:/home/vtrnnhlinh/STM32Cube/Repository/STM32Cube_FW_F4_V1.28.0/Drivers/STM32F4xx_HAL_Driver/Src/stm32f4xx_hal_rcc.c ****     {
 341              		.loc 1 290 60 view .LVU92
 342 0164 13F4800F 		tst	r3, #4194304
 343 0168 BAD1     		bne	.L21
 344              	.L20:
 293:/home/vtrnnhlinh/STM32Cube/Repository/STM32Cube_FW_F4_V1.28.0/Drivers/STM32F4xx_HAL_Driver/Src/stm32f4xx_hal_rcc.c ****       {
 345              		.loc 1 293 7 is_stmt 1 view .LVU93
 293:/home/vtrnnhlinh/STM32Cube/Repository/STM32Cube_FW_F4_V1.28.0/Drivers/STM32F4xx_HAL_Driver/Src/stm32f4xx_hal_rcc.c ****       {
 346              		.loc 1 293 11 is_stmt 0 view .LVU94
 347 016a 304B     		ldr	r3, .L116
 348 016c 1B68     		ldr	r3, [r3]
 293:/home/vtrnnhlinh/STM32Cube/Repository/STM32Cube_FW_F4_V1.28.0/Drivers/STM32F4xx_HAL_Driver/Src/stm32f4xx_hal_rcc.c ****       {
 349              		.loc 1 293 9 view .LVU95
 350 016e 13F0020F 		tst	r3, #2
 351 0172 03D0     		beq	.L22
 293:/home/vtrnnhlinh/STM32Cube/Repository/STM32Cube_FW_F4_V1.28.0/Drivers/STM32F4xx_HAL_Driver/Src/stm32f4xx_hal_rcc.c ****       {
 352              		.loc 1 293 78 discriminator 1 view .LVU96
 353 0174 E368     		ldr	r3, [r4, #12]
 293:/home/vtrnnhlinh/STM32Cube/Repository/STM32Cube_FW_F4_V1.28.0/Drivers/STM32F4xx_HAL_Driver/Src/stm32f4xx_hal_rcc.c ****       {
 354              		.loc 1 293 57 discriminator 1 view .LVU97
 355 0176 012B     		cmp	r3, #1
 356 0178 40F0A781 		bne	.L68
 357              	.L22:
 301:/home/vtrnnhlinh/STM32Cube/Repository/STM32Cube_FW_F4_V1.28.0/Drivers/STM32F4xx_HAL_Driver/Src/stm32f4xx_hal_rcc.c ****       }
 358              		.loc 1 301 9 is_stmt 1 view .LVU98
 359 017c 2B4A     		ldr	r2, .L116
 360 017e 1368     		ldr	r3, [r2]
 361 0180 23F0F803 		bic	r3, r3, #248
 362 0184 2169     		ldr	r1, [r4, #16]
 363 0186 43EAC103 		orr	r3, r3, r1, lsl #3
 364 018a 1360     		str	r3, [r2]
 365              	.L17:
 321:/home/vtrnnhlinh/STM32Cube/Repository/STM32Cube_FW_F4_V1.28.0/Drivers/STM32F4xx_HAL_Driver/Src/stm32f4xx_hal_rcc.c ****           }
 322:/home/vtrnnhlinh/STM32Cube/Repository/STM32Cube_FW_F4_V1.28.0/Drivers/STM32F4xx_HAL_Driver/Src/stm32f4xx_hal_rcc.c ****         }
 323:/home/vtrnnhlinh/STM32Cube/Repository/STM32Cube_FW_F4_V1.28.0/Drivers/STM32F4xx_HAL_Driver/Src/stm32f4xx_hal_rcc.c **** 
 324:/home/vtrnnhlinh/STM32Cube/Repository/STM32Cube_FW_F4_V1.28.0/Drivers/STM32F4xx_HAL_Driver/Src/stm32f4xx_hal_rcc.c ****         /* Adjusts the Internal High Speed oscillator (HSI) calibration value. */
 325:/home/vtrnnhlinh/STM32Cube/Repository/STM32Cube_FW_F4_V1.28.0/Drivers/STM32F4xx_HAL_Driver/Src/stm32f4xx_hal_rcc.c ****         __HAL_RCC_HSI_CALIBRATIONVALUE_ADJUST(RCC_OscInitStruct->HSICalibrationValue);
 326:/home/vtrnnhlinh/STM32Cube/Repository/STM32Cube_FW_F4_V1.28.0/Drivers/STM32F4xx_HAL_Driver/Src/stm32f4xx_hal_rcc.c ****       }
 327:/home/vtrnnhlinh/STM32Cube/Repository/STM32Cube_FW_F4_V1.28.0/Drivers/STM32F4xx_HAL_Driver/Src/stm32f4xx_hal_rcc.c ****       else
 328:/home/vtrnnhlinh/STM32Cube/Repository/STM32Cube_FW_F4_V1.28.0/Drivers/STM32F4xx_HAL_Driver/Src/stm32f4xx_hal_rcc.c ****       {
 329:/home/vtrnnhlinh/STM32Cube/Repository/STM32Cube_FW_F4_V1.28.0/Drivers/STM32F4xx_HAL_Driver/Src/stm32f4xx_hal_rcc.c ****         /* Disable the Internal High Speed oscillator (HSI). */
 330:/home/vtrnnhlinh/STM32Cube/Repository/STM32Cube_FW_F4_V1.28.0/Drivers/STM32F4xx_HAL_Driver/Src/stm32f4xx_hal_rcc.c ****         __HAL_RCC_HSI_DISABLE();
 331:/home/vtrnnhlinh/STM32Cube/Repository/STM32Cube_FW_F4_V1.28.0/Drivers/STM32F4xx_HAL_Driver/Src/stm32f4xx_hal_rcc.c **** 
ARM GAS  /tmp/ccz6Q3rQ.s 			page 14


 332:/home/vtrnnhlinh/STM32Cube/Repository/STM32Cube_FW_F4_V1.28.0/Drivers/STM32F4xx_HAL_Driver/Src/stm32f4xx_hal_rcc.c ****         /* Get Start Tick*/
 333:/home/vtrnnhlinh/STM32Cube/Repository/STM32Cube_FW_F4_V1.28.0/Drivers/STM32F4xx_HAL_Driver/Src/stm32f4xx_hal_rcc.c ****         tickstart = HAL_GetTick();
 334:/home/vtrnnhlinh/STM32Cube/Repository/STM32Cube_FW_F4_V1.28.0/Drivers/STM32F4xx_HAL_Driver/Src/stm32f4xx_hal_rcc.c **** 
 335:/home/vtrnnhlinh/STM32Cube/Repository/STM32Cube_FW_F4_V1.28.0/Drivers/STM32F4xx_HAL_Driver/Src/stm32f4xx_hal_rcc.c ****         /* Wait till HSI is ready */
 336:/home/vtrnnhlinh/STM32Cube/Repository/STM32Cube_FW_F4_V1.28.0/Drivers/STM32F4xx_HAL_Driver/Src/stm32f4xx_hal_rcc.c ****         while(__HAL_RCC_GET_FLAG(RCC_FLAG_HSIRDY) != RESET)
 337:/home/vtrnnhlinh/STM32Cube/Repository/STM32Cube_FW_F4_V1.28.0/Drivers/STM32F4xx_HAL_Driver/Src/stm32f4xx_hal_rcc.c ****         {
 338:/home/vtrnnhlinh/STM32Cube/Repository/STM32Cube_FW_F4_V1.28.0/Drivers/STM32F4xx_HAL_Driver/Src/stm32f4xx_hal_rcc.c ****           if((HAL_GetTick() - tickstart ) > HSI_TIMEOUT_VALUE)
 339:/home/vtrnnhlinh/STM32Cube/Repository/STM32Cube_FW_F4_V1.28.0/Drivers/STM32F4xx_HAL_Driver/Src/stm32f4xx_hal_rcc.c ****           {
 340:/home/vtrnnhlinh/STM32Cube/Repository/STM32Cube_FW_F4_V1.28.0/Drivers/STM32F4xx_HAL_Driver/Src/stm32f4xx_hal_rcc.c ****             return HAL_TIMEOUT;
 341:/home/vtrnnhlinh/STM32Cube/Repository/STM32Cube_FW_F4_V1.28.0/Drivers/STM32F4xx_HAL_Driver/Src/stm32f4xx_hal_rcc.c ****           }
 342:/home/vtrnnhlinh/STM32Cube/Repository/STM32Cube_FW_F4_V1.28.0/Drivers/STM32F4xx_HAL_Driver/Src/stm32f4xx_hal_rcc.c ****         }
 343:/home/vtrnnhlinh/STM32Cube/Repository/STM32Cube_FW_F4_V1.28.0/Drivers/STM32F4xx_HAL_Driver/Src/stm32f4xx_hal_rcc.c ****       }
 344:/home/vtrnnhlinh/STM32Cube/Repository/STM32Cube_FW_F4_V1.28.0/Drivers/STM32F4xx_HAL_Driver/Src/stm32f4xx_hal_rcc.c ****     }
 345:/home/vtrnnhlinh/STM32Cube/Repository/STM32Cube_FW_F4_V1.28.0/Drivers/STM32F4xx_HAL_Driver/Src/stm32f4xx_hal_rcc.c ****   }
 346:/home/vtrnnhlinh/STM32Cube/Repository/STM32Cube_FW_F4_V1.28.0/Drivers/STM32F4xx_HAL_Driver/Src/stm32f4xx_hal_rcc.c ****   /*------------------------------ LSI Configuration -------------------------*/
 347:/home/vtrnnhlinh/STM32Cube/Repository/STM32Cube_FW_F4_V1.28.0/Drivers/STM32F4xx_HAL_Driver/Src/stm32f4xx_hal_rcc.c ****   if(((RCC_OscInitStruct->OscillatorType) & RCC_OSCILLATORTYPE_LSI) == RCC_OSCILLATORTYPE_LSI)
 366              		.loc 1 347 3 view .LVU99
 367              		.loc 1 347 25 is_stmt 0 view .LVU100
 368 018c 2368     		ldr	r3, [r4]
 369              		.loc 1 347 5 view .LVU101
 370 018e 13F0080F 		tst	r3, #8
 371 0192 51D0     		beq	.L28
 348:/home/vtrnnhlinh/STM32Cube/Repository/STM32Cube_FW_F4_V1.28.0/Drivers/STM32F4xx_HAL_Driver/Src/stm32f4xx_hal_rcc.c ****   {
 349:/home/vtrnnhlinh/STM32Cube/Repository/STM32Cube_FW_F4_V1.28.0/Drivers/STM32F4xx_HAL_Driver/Src/stm32f4xx_hal_rcc.c ****     /* Check the parameters */
 350:/home/vtrnnhlinh/STM32Cube/Repository/STM32Cube_FW_F4_V1.28.0/Drivers/STM32F4xx_HAL_Driver/Src/stm32f4xx_hal_rcc.c ****     assert_param(IS_RCC_LSI(RCC_OscInitStruct->LSIState));
 372              		.loc 1 350 5 is_stmt 1 view .LVU102
 373 0194 6369     		ldr	r3, [r4, #20]
 374 0196 012B     		cmp	r3, #1
 375 0198 2FD8     		bhi	.L101
 376              	.L29:
 351:/home/vtrnnhlinh/STM32Cube/Repository/STM32Cube_FW_F4_V1.28.0/Drivers/STM32F4xx_HAL_Driver/Src/stm32f4xx_hal_rcc.c **** 
 352:/home/vtrnnhlinh/STM32Cube/Repository/STM32Cube_FW_F4_V1.28.0/Drivers/STM32F4xx_HAL_Driver/Src/stm32f4xx_hal_rcc.c ****     /* Check the LSI State */
 353:/home/vtrnnhlinh/STM32Cube/Repository/STM32Cube_FW_F4_V1.28.0/Drivers/STM32F4xx_HAL_Driver/Src/stm32f4xx_hal_rcc.c ****     if((RCC_OscInitStruct->LSIState)!= RCC_LSI_OFF)
 377              		.loc 1 353 5 view .LVU103
 378              		.loc 1 353 26 is_stmt 0 view .LVU104
 379 019a 6369     		ldr	r3, [r4, #20]
 380              		.loc 1 353 7 view .LVU105
 381 019c 9BB3     		cbz	r3, .L30
 354:/home/vtrnnhlinh/STM32Cube/Repository/STM32Cube_FW_F4_V1.28.0/Drivers/STM32F4xx_HAL_Driver/Src/stm32f4xx_hal_rcc.c ****     {
 355:/home/vtrnnhlinh/STM32Cube/Repository/STM32Cube_FW_F4_V1.28.0/Drivers/STM32F4xx_HAL_Driver/Src/stm32f4xx_hal_rcc.c ****       /* Enable the Internal Low Speed oscillator (LSI). */
 356:/home/vtrnnhlinh/STM32Cube/Repository/STM32Cube_FW_F4_V1.28.0/Drivers/STM32F4xx_HAL_Driver/Src/stm32f4xx_hal_rcc.c ****       __HAL_RCC_LSI_ENABLE();
 382              		.loc 1 356 7 is_stmt 1 view .LVU106
 383 019e 254B     		ldr	r3, .L116+8
 384 01a0 0122     		movs	r2, #1
 385 01a2 C3F8802E 		str	r2, [r3, #3712]
 357:/home/vtrnnhlinh/STM32Cube/Repository/STM32Cube_FW_F4_V1.28.0/Drivers/STM32F4xx_HAL_Driver/Src/stm32f4xx_hal_rcc.c **** 
 358:/home/vtrnnhlinh/STM32Cube/Repository/STM32Cube_FW_F4_V1.28.0/Drivers/STM32F4xx_HAL_Driver/Src/stm32f4xx_hal_rcc.c ****       /* Get Start Tick*/
 359:/home/vtrnnhlinh/STM32Cube/Repository/STM32Cube_FW_F4_V1.28.0/Drivers/STM32F4xx_HAL_Driver/Src/stm32f4xx_hal_rcc.c ****       tickstart = HAL_GetTick();
 386              		.loc 1 359 7 view .LVU107
 387              		.loc 1 359 19 is_stmt 0 view .LVU108
 388 01a6 FFF7FEFF 		bl	HAL_GetTick
 389              	.LVL19:
 390 01aa 0546     		mov	r5, r0
 391              	.LVL20:
 360:/home/vtrnnhlinh/STM32Cube/Repository/STM32Cube_FW_F4_V1.28.0/Drivers/STM32F4xx_HAL_Driver/Src/stm32f4xx_hal_rcc.c **** 
 361:/home/vtrnnhlinh/STM32Cube/Repository/STM32Cube_FW_F4_V1.28.0/Drivers/STM32F4xx_HAL_Driver/Src/stm32f4xx_hal_rcc.c ****       /* Wait till LSI is ready */
 362:/home/vtrnnhlinh/STM32Cube/Repository/STM32Cube_FW_F4_V1.28.0/Drivers/STM32F4xx_HAL_Driver/Src/stm32f4xx_hal_rcc.c ****       while(__HAL_RCC_GET_FLAG(RCC_FLAG_LSIRDY) == RESET)
ARM GAS  /tmp/ccz6Q3rQ.s 			page 15


 392              		.loc 1 362 7 is_stmt 1 view .LVU109
 393              	.L31:
 394              		.loc 1 362 12 view .LVU110
 395              		.loc 1 362 13 is_stmt 0 view .LVU111
 396 01ac 1F4B     		ldr	r3, .L116
 397 01ae 5B6F     		ldr	r3, [r3, #116]
 398              		.loc 1 362 12 view .LVU112
 399 01b0 13F0020F 		tst	r3, #2
 400 01b4 40D1     		bne	.L28
 363:/home/vtrnnhlinh/STM32Cube/Repository/STM32Cube_FW_F4_V1.28.0/Drivers/STM32F4xx_HAL_Driver/Src/stm32f4xx_hal_rcc.c ****       {
 364:/home/vtrnnhlinh/STM32Cube/Repository/STM32Cube_FW_F4_V1.28.0/Drivers/STM32F4xx_HAL_Driver/Src/stm32f4xx_hal_rcc.c ****         if((HAL_GetTick() - tickstart ) > LSI_TIMEOUT_VALUE)
 401              		.loc 1 364 9 is_stmt 1 view .LVU113
 402              		.loc 1 364 13 is_stmt 0 view .LVU114
 403 01b6 FFF7FEFF 		bl	HAL_GetTick
 404              	.LVL21:
 405              		.loc 1 364 27 view .LVU115
 406 01ba 401B     		subs	r0, r0, r5
 407              		.loc 1 364 11 view .LVU116
 408 01bc 0228     		cmp	r0, #2
 409 01be F5D9     		bls	.L31
 365:/home/vtrnnhlinh/STM32Cube/Repository/STM32Cube_FW_F4_V1.28.0/Drivers/STM32F4xx_HAL_Driver/Src/stm32f4xx_hal_rcc.c ****         {
 366:/home/vtrnnhlinh/STM32Cube/Repository/STM32Cube_FW_F4_V1.28.0/Drivers/STM32F4xx_HAL_Driver/Src/stm32f4xx_hal_rcc.c ****           return HAL_TIMEOUT;
 410              		.loc 1 366 18 view .LVU117
 411 01c0 0320     		movs	r0, #3
 412 01c2 85E1     		b	.L3
 413              	.L100:
 325:/home/vtrnnhlinh/STM32Cube/Repository/STM32Cube_FW_F4_V1.28.0/Drivers/STM32F4xx_HAL_Driver/Src/stm32f4xx_hal_rcc.c ****       }
 414              		.loc 1 325 9 is_stmt 1 view .LVU118
 415 01c4 194A     		ldr	r2, .L116
 416 01c6 1368     		ldr	r3, [r2]
 417 01c8 23F0F803 		bic	r3, r3, #248
 418 01cc 2169     		ldr	r1, [r4, #16]
 419 01ce 43EAC103 		orr	r3, r3, r1, lsl #3
 420 01d2 1360     		str	r3, [r2]
 421 01d4 DAE7     		b	.L17
 422              	.LVL22:
 423              	.L23:
 330:/home/vtrnnhlinh/STM32Cube/Repository/STM32Cube_FW_F4_V1.28.0/Drivers/STM32F4xx_HAL_Driver/Src/stm32f4xx_hal_rcc.c **** 
 424              		.loc 1 330 9 view .LVU119
 425 01d6 174B     		ldr	r3, .L116+8
 426 01d8 0022     		movs	r2, #0
 427 01da 1A60     		str	r2, [r3]
 333:/home/vtrnnhlinh/STM32Cube/Repository/STM32Cube_FW_F4_V1.28.0/Drivers/STM32F4xx_HAL_Driver/Src/stm32f4xx_hal_rcc.c **** 
 428              		.loc 1 333 9 view .LVU120
 333:/home/vtrnnhlinh/STM32Cube/Repository/STM32Cube_FW_F4_V1.28.0/Drivers/STM32F4xx_HAL_Driver/Src/stm32f4xx_hal_rcc.c **** 
 429              		.loc 1 333 21 is_stmt 0 view .LVU121
 430 01dc FFF7FEFF 		bl	HAL_GetTick
 431              	.LVL23:
 432 01e0 0546     		mov	r5, r0
 433              	.LVL24:
 336:/home/vtrnnhlinh/STM32Cube/Repository/STM32Cube_FW_F4_V1.28.0/Drivers/STM32F4xx_HAL_Driver/Src/stm32f4xx_hal_rcc.c ****         {
 434              		.loc 1 336 9 is_stmt 1 view .LVU122
 435              	.L26:
 336:/home/vtrnnhlinh/STM32Cube/Repository/STM32Cube_FW_F4_V1.28.0/Drivers/STM32F4xx_HAL_Driver/Src/stm32f4xx_hal_rcc.c ****         {
 436              		.loc 1 336 14 view .LVU123
 336:/home/vtrnnhlinh/STM32Cube/Repository/STM32Cube_FW_F4_V1.28.0/Drivers/STM32F4xx_HAL_Driver/Src/stm32f4xx_hal_rcc.c ****         {
 437              		.loc 1 336 15 is_stmt 0 view .LVU124
ARM GAS  /tmp/ccz6Q3rQ.s 			page 16


 438 01e2 124B     		ldr	r3, .L116
 439 01e4 1B68     		ldr	r3, [r3]
 336:/home/vtrnnhlinh/STM32Cube/Repository/STM32Cube_FW_F4_V1.28.0/Drivers/STM32F4xx_HAL_Driver/Src/stm32f4xx_hal_rcc.c ****         {
 440              		.loc 1 336 14 view .LVU125
 441 01e6 13F0020F 		tst	r3, #2
 442 01ea CFD0     		beq	.L17
 338:/home/vtrnnhlinh/STM32Cube/Repository/STM32Cube_FW_F4_V1.28.0/Drivers/STM32F4xx_HAL_Driver/Src/stm32f4xx_hal_rcc.c ****           {
 443              		.loc 1 338 11 is_stmt 1 view .LVU126
 338:/home/vtrnnhlinh/STM32Cube/Repository/STM32Cube_FW_F4_V1.28.0/Drivers/STM32F4xx_HAL_Driver/Src/stm32f4xx_hal_rcc.c ****           {
 444              		.loc 1 338 15 is_stmt 0 view .LVU127
 445 01ec FFF7FEFF 		bl	HAL_GetTick
 446              	.LVL25:
 338:/home/vtrnnhlinh/STM32Cube/Repository/STM32Cube_FW_F4_V1.28.0/Drivers/STM32F4xx_HAL_Driver/Src/stm32f4xx_hal_rcc.c ****           {
 447              		.loc 1 338 29 view .LVU128
 448 01f0 401B     		subs	r0, r0, r5
 338:/home/vtrnnhlinh/STM32Cube/Repository/STM32Cube_FW_F4_V1.28.0/Drivers/STM32F4xx_HAL_Driver/Src/stm32f4xx_hal_rcc.c ****           {
 449              		.loc 1 338 13 view .LVU129
 450 01f2 0228     		cmp	r0, #2
 451 01f4 F5D9     		bls	.L26
 340:/home/vtrnnhlinh/STM32Cube/Repository/STM32Cube_FW_F4_V1.28.0/Drivers/STM32F4xx_HAL_Driver/Src/stm32f4xx_hal_rcc.c ****           }
 452              		.loc 1 340 20 view .LVU130
 453 01f6 0320     		movs	r0, #3
 454 01f8 6AE1     		b	.L3
 455              	.LVL26:
 456              	.L101:
 350:/home/vtrnnhlinh/STM32Cube/Repository/STM32Cube_FW_F4_V1.28.0/Drivers/STM32F4xx_HAL_Driver/Src/stm32f4xx_hal_rcc.c **** 
 457              		.loc 1 350 5 discriminator 1 view .LVU131
 458 01fa 4FF4AF71 		mov	r1, #350
 459 01fe 0C48     		ldr	r0, .L116+4
 460 0200 FFF7FEFF 		bl	assert_failed
 461              	.LVL27:
 462 0204 C9E7     		b	.L29
 463              	.L30:
 367:/home/vtrnnhlinh/STM32Cube/Repository/STM32Cube_FW_F4_V1.28.0/Drivers/STM32F4xx_HAL_Driver/Src/stm32f4xx_hal_rcc.c ****         }
 368:/home/vtrnnhlinh/STM32Cube/Repository/STM32Cube_FW_F4_V1.28.0/Drivers/STM32F4xx_HAL_Driver/Src/stm32f4xx_hal_rcc.c ****       }
 369:/home/vtrnnhlinh/STM32Cube/Repository/STM32Cube_FW_F4_V1.28.0/Drivers/STM32F4xx_HAL_Driver/Src/stm32f4xx_hal_rcc.c ****     }
 370:/home/vtrnnhlinh/STM32Cube/Repository/STM32Cube_FW_F4_V1.28.0/Drivers/STM32F4xx_HAL_Driver/Src/stm32f4xx_hal_rcc.c ****     else
 371:/home/vtrnnhlinh/STM32Cube/Repository/STM32Cube_FW_F4_V1.28.0/Drivers/STM32F4xx_HAL_Driver/Src/stm32f4xx_hal_rcc.c ****     {
 372:/home/vtrnnhlinh/STM32Cube/Repository/STM32Cube_FW_F4_V1.28.0/Drivers/STM32F4xx_HAL_Driver/Src/stm32f4xx_hal_rcc.c ****       /* Disable the Internal Low Speed oscillator (LSI). */
 373:/home/vtrnnhlinh/STM32Cube/Repository/STM32Cube_FW_F4_V1.28.0/Drivers/STM32F4xx_HAL_Driver/Src/stm32f4xx_hal_rcc.c ****       __HAL_RCC_LSI_DISABLE();
 464              		.loc 1 373 7 is_stmt 1 view .LVU132
 465 0206 0B4B     		ldr	r3, .L116+8
 466 0208 0022     		movs	r2, #0
 467 020a C3F8802E 		str	r2, [r3, #3712]
 374:/home/vtrnnhlinh/STM32Cube/Repository/STM32Cube_FW_F4_V1.28.0/Drivers/STM32F4xx_HAL_Driver/Src/stm32f4xx_hal_rcc.c **** 
 375:/home/vtrnnhlinh/STM32Cube/Repository/STM32Cube_FW_F4_V1.28.0/Drivers/STM32F4xx_HAL_Driver/Src/stm32f4xx_hal_rcc.c ****       /* Get Start Tick */
 376:/home/vtrnnhlinh/STM32Cube/Repository/STM32Cube_FW_F4_V1.28.0/Drivers/STM32F4xx_HAL_Driver/Src/stm32f4xx_hal_rcc.c ****       tickstart = HAL_GetTick();
 468              		.loc 1 376 7 view .LVU133
 469              		.loc 1 376 19 is_stmt 0 view .LVU134
 470 020e FFF7FEFF 		bl	HAL_GetTick
 471              	.LVL28:
 472 0212 0546     		mov	r5, r0
 473              	.LVL29:
 377:/home/vtrnnhlinh/STM32Cube/Repository/STM32Cube_FW_F4_V1.28.0/Drivers/STM32F4xx_HAL_Driver/Src/stm32f4xx_hal_rcc.c **** 
 378:/home/vtrnnhlinh/STM32Cube/Repository/STM32Cube_FW_F4_V1.28.0/Drivers/STM32F4xx_HAL_Driver/Src/stm32f4xx_hal_rcc.c ****       /* Wait till LSI is ready */
 379:/home/vtrnnhlinh/STM32Cube/Repository/STM32Cube_FW_F4_V1.28.0/Drivers/STM32F4xx_HAL_Driver/Src/stm32f4xx_hal_rcc.c ****       while(__HAL_RCC_GET_FLAG(RCC_FLAG_LSIRDY) != RESET)
 474              		.loc 1 379 7 is_stmt 1 view .LVU135
ARM GAS  /tmp/ccz6Q3rQ.s 			page 17


 475              	.L33:
 476              		.loc 1 379 12 view .LVU136
 477              		.loc 1 379 13 is_stmt 0 view .LVU137
 478 0214 054B     		ldr	r3, .L116
 479 0216 5B6F     		ldr	r3, [r3, #116]
 480              		.loc 1 379 12 view .LVU138
 481 0218 13F0020F 		tst	r3, #2
 482 021c 0CD0     		beq	.L28
 380:/home/vtrnnhlinh/STM32Cube/Repository/STM32Cube_FW_F4_V1.28.0/Drivers/STM32F4xx_HAL_Driver/Src/stm32f4xx_hal_rcc.c ****       {
 381:/home/vtrnnhlinh/STM32Cube/Repository/STM32Cube_FW_F4_V1.28.0/Drivers/STM32F4xx_HAL_Driver/Src/stm32f4xx_hal_rcc.c ****         if((HAL_GetTick() - tickstart ) > LSI_TIMEOUT_VALUE)
 483              		.loc 1 381 9 is_stmt 1 view .LVU139
 484              		.loc 1 381 13 is_stmt 0 view .LVU140
 485 021e FFF7FEFF 		bl	HAL_GetTick
 486              	.LVL30:
 487              		.loc 1 381 27 view .LVU141
 488 0222 401B     		subs	r0, r0, r5
 489              		.loc 1 381 11 view .LVU142
 490 0224 0228     		cmp	r0, #2
 491 0226 F5D9     		bls	.L33
 382:/home/vtrnnhlinh/STM32Cube/Repository/STM32Cube_FW_F4_V1.28.0/Drivers/STM32F4xx_HAL_Driver/Src/stm32f4xx_hal_rcc.c ****         {
 383:/home/vtrnnhlinh/STM32Cube/Repository/STM32Cube_FW_F4_V1.28.0/Drivers/STM32F4xx_HAL_Driver/Src/stm32f4xx_hal_rcc.c ****           return HAL_TIMEOUT;
 492              		.loc 1 383 18 view .LVU143
 493 0228 0320     		movs	r0, #3
 494 022a 51E1     		b	.L3
 495              	.L117:
 496              		.align	2
 497              	.L116:
 498 022c 00380240 		.word	1073887232
 499 0230 00000000 		.word	.LC0
 500 0234 00004742 		.word	1111949312
 501              	.LVL31:
 502              	.L28:
 384:/home/vtrnnhlinh/STM32Cube/Repository/STM32Cube_FW_F4_V1.28.0/Drivers/STM32F4xx_HAL_Driver/Src/stm32f4xx_hal_rcc.c ****         }
 385:/home/vtrnnhlinh/STM32Cube/Repository/STM32Cube_FW_F4_V1.28.0/Drivers/STM32F4xx_HAL_Driver/Src/stm32f4xx_hal_rcc.c ****       }
 386:/home/vtrnnhlinh/STM32Cube/Repository/STM32Cube_FW_F4_V1.28.0/Drivers/STM32F4xx_HAL_Driver/Src/stm32f4xx_hal_rcc.c ****     }
 387:/home/vtrnnhlinh/STM32Cube/Repository/STM32Cube_FW_F4_V1.28.0/Drivers/STM32F4xx_HAL_Driver/Src/stm32f4xx_hal_rcc.c ****   }
 388:/home/vtrnnhlinh/STM32Cube/Repository/STM32Cube_FW_F4_V1.28.0/Drivers/STM32F4xx_HAL_Driver/Src/stm32f4xx_hal_rcc.c ****   /*------------------------------ LSE Configuration -------------------------*/
 389:/home/vtrnnhlinh/STM32Cube/Repository/STM32Cube_FW_F4_V1.28.0/Drivers/STM32F4xx_HAL_Driver/Src/stm32f4xx_hal_rcc.c ****   if(((RCC_OscInitStruct->OscillatorType) & RCC_OSCILLATORTYPE_LSE) == RCC_OSCILLATORTYPE_LSE)
 503              		.loc 1 389 3 is_stmt 1 view .LVU144
 504              		.loc 1 389 25 is_stmt 0 view .LVU145
 505 0238 2368     		ldr	r3, [r4]
 506              		.loc 1 389 5 view .LVU146
 507 023a 13F0040F 		tst	r3, #4
 508 023e 7CD0     		beq	.L35
 509              	.LBB2:
 390:/home/vtrnnhlinh/STM32Cube/Repository/STM32Cube_FW_F4_V1.28.0/Drivers/STM32F4xx_HAL_Driver/Src/stm32f4xx_hal_rcc.c ****   {
 391:/home/vtrnnhlinh/STM32Cube/Repository/STM32Cube_FW_F4_V1.28.0/Drivers/STM32F4xx_HAL_Driver/Src/stm32f4xx_hal_rcc.c ****     FlagStatus       pwrclkchanged = RESET;
 510              		.loc 1 391 5 is_stmt 1 view .LVU147
 511              	.LVL32:
 392:/home/vtrnnhlinh/STM32Cube/Repository/STM32Cube_FW_F4_V1.28.0/Drivers/STM32F4xx_HAL_Driver/Src/stm32f4xx_hal_rcc.c **** 
 393:/home/vtrnnhlinh/STM32Cube/Repository/STM32Cube_FW_F4_V1.28.0/Drivers/STM32F4xx_HAL_Driver/Src/stm32f4xx_hal_rcc.c ****     /* Check the parameters */
 394:/home/vtrnnhlinh/STM32Cube/Repository/STM32Cube_FW_F4_V1.28.0/Drivers/STM32F4xx_HAL_Driver/Src/stm32f4xx_hal_rcc.c ****     assert_param(IS_RCC_LSE(RCC_OscInitStruct->LSEState));
 512              		.loc 1 394 5 view .LVU148
 513 0240 A368     		ldr	r3, [r4, #8]
 514 0242 012B     		cmp	r3, #1
 515 0244 01D9     		bls	.L36
 516              		.loc 1 394 5 is_stmt 0 discriminator 1 view .LVU149
ARM GAS  /tmp/ccz6Q3rQ.s 			page 18


 517 0246 052B     		cmp	r3, #5
 518 0248 38D1     		bne	.L102
 519              	.L36:
 395:/home/vtrnnhlinh/STM32Cube/Repository/STM32Cube_FW_F4_V1.28.0/Drivers/STM32F4xx_HAL_Driver/Src/stm32f4xx_hal_rcc.c **** 
 396:/home/vtrnnhlinh/STM32Cube/Repository/STM32Cube_FW_F4_V1.28.0/Drivers/STM32F4xx_HAL_Driver/Src/stm32f4xx_hal_rcc.c ****     /* Update LSE configuration in Backup Domain control register    */
 397:/home/vtrnnhlinh/STM32Cube/Repository/STM32Cube_FW_F4_V1.28.0/Drivers/STM32F4xx_HAL_Driver/Src/stm32f4xx_hal_rcc.c ****     /* Requires to enable write access to Backup Domain of necessary */
 398:/home/vtrnnhlinh/STM32Cube/Repository/STM32Cube_FW_F4_V1.28.0/Drivers/STM32F4xx_HAL_Driver/Src/stm32f4xx_hal_rcc.c ****     if(__HAL_RCC_PWR_IS_CLK_DISABLED())
 520              		.loc 1 398 5 is_stmt 1 view .LVU150
 521              		.loc 1 398 8 is_stmt 0 view .LVU151
 522 024a A44B     		ldr	r3, .L118
 523 024c 1B6C     		ldr	r3, [r3, #64]
 524              		.loc 1 398 7 view .LVU152
 525 024e 13F0805F 		tst	r3, #268435456
 526 0252 39D1     		bne	.L73
 399:/home/vtrnnhlinh/STM32Cube/Repository/STM32Cube_FW_F4_V1.28.0/Drivers/STM32F4xx_HAL_Driver/Src/stm32f4xx_hal_rcc.c ****     {
 400:/home/vtrnnhlinh/STM32Cube/Repository/STM32Cube_FW_F4_V1.28.0/Drivers/STM32F4xx_HAL_Driver/Src/stm32f4xx_hal_rcc.c ****       __HAL_RCC_PWR_CLK_ENABLE();
 527              		.loc 1 400 7 is_stmt 1 view .LVU153
 528              	.LBB3:
 529              		.loc 1 400 7 view .LVU154
 530 0254 0023     		movs	r3, #0
 531 0256 0193     		str	r3, [sp, #4]
 532              		.loc 1 400 7 view .LVU155
 533 0258 A04B     		ldr	r3, .L118
 534 025a 1A6C     		ldr	r2, [r3, #64]
 535 025c 42F08052 		orr	r2, r2, #268435456
 536 0260 1A64     		str	r2, [r3, #64]
 537              		.loc 1 400 7 view .LVU156
 538 0262 1B6C     		ldr	r3, [r3, #64]
 539 0264 03F08053 		and	r3, r3, #268435456
 540 0268 0193     		str	r3, [sp, #4]
 541              		.loc 1 400 7 view .LVU157
 542 026a 019B     		ldr	r3, [sp, #4]
 543              	.LBE3:
 544              		.loc 1 400 7 view .LVU158
 401:/home/vtrnnhlinh/STM32Cube/Repository/STM32Cube_FW_F4_V1.28.0/Drivers/STM32F4xx_HAL_Driver/Src/stm32f4xx_hal_rcc.c ****       pwrclkchanged = SET;
 545              		.loc 1 401 7 view .LVU159
 546              	.LVL33:
 547              		.loc 1 401 21 is_stmt 0 view .LVU160
 548 026c 0125     		movs	r5, #1
 549              	.LVL34:
 550              	.L37:
 402:/home/vtrnnhlinh/STM32Cube/Repository/STM32Cube_FW_F4_V1.28.0/Drivers/STM32F4xx_HAL_Driver/Src/stm32f4xx_hal_rcc.c ****     }
 403:/home/vtrnnhlinh/STM32Cube/Repository/STM32Cube_FW_F4_V1.28.0/Drivers/STM32F4xx_HAL_Driver/Src/stm32f4xx_hal_rcc.c **** 
 404:/home/vtrnnhlinh/STM32Cube/Repository/STM32Cube_FW_F4_V1.28.0/Drivers/STM32F4xx_HAL_Driver/Src/stm32f4xx_hal_rcc.c ****     if(HAL_IS_BIT_CLR(PWR->CR, PWR_CR_DBP))
 551              		.loc 1 404 5 is_stmt 1 view .LVU161
 552              		.loc 1 404 8 is_stmt 0 view .LVU162
 553 026e 9C4B     		ldr	r3, .L118+4
 554 0270 1B68     		ldr	r3, [r3]
 555              		.loc 1 404 7 view .LVU163
 556 0272 13F4807F 		tst	r3, #256
 557 0276 29D0     		beq	.L103
 558              	.L38:
 405:/home/vtrnnhlinh/STM32Cube/Repository/STM32Cube_FW_F4_V1.28.0/Drivers/STM32F4xx_HAL_Driver/Src/stm32f4xx_hal_rcc.c ****     {
 406:/home/vtrnnhlinh/STM32Cube/Repository/STM32Cube_FW_F4_V1.28.0/Drivers/STM32F4xx_HAL_Driver/Src/stm32f4xx_hal_rcc.c ****       /* Enable write access to Backup domain */
 407:/home/vtrnnhlinh/STM32Cube/Repository/STM32Cube_FW_F4_V1.28.0/Drivers/STM32F4xx_HAL_Driver/Src/stm32f4xx_hal_rcc.c ****       SET_BIT(PWR->CR, PWR_CR_DBP);
 408:/home/vtrnnhlinh/STM32Cube/Repository/STM32Cube_FW_F4_V1.28.0/Drivers/STM32F4xx_HAL_Driver/Src/stm32f4xx_hal_rcc.c **** 
 409:/home/vtrnnhlinh/STM32Cube/Repository/STM32Cube_FW_F4_V1.28.0/Drivers/STM32F4xx_HAL_Driver/Src/stm32f4xx_hal_rcc.c ****       /* Wait for Backup domain Write protection disable */
ARM GAS  /tmp/ccz6Q3rQ.s 			page 19


 410:/home/vtrnnhlinh/STM32Cube/Repository/STM32Cube_FW_F4_V1.28.0/Drivers/STM32F4xx_HAL_Driver/Src/stm32f4xx_hal_rcc.c ****       tickstart = HAL_GetTick();
 411:/home/vtrnnhlinh/STM32Cube/Repository/STM32Cube_FW_F4_V1.28.0/Drivers/STM32F4xx_HAL_Driver/Src/stm32f4xx_hal_rcc.c **** 
 412:/home/vtrnnhlinh/STM32Cube/Repository/STM32Cube_FW_F4_V1.28.0/Drivers/STM32F4xx_HAL_Driver/Src/stm32f4xx_hal_rcc.c ****       while(HAL_IS_BIT_CLR(PWR->CR, PWR_CR_DBP))
 413:/home/vtrnnhlinh/STM32Cube/Repository/STM32Cube_FW_F4_V1.28.0/Drivers/STM32F4xx_HAL_Driver/Src/stm32f4xx_hal_rcc.c ****       {
 414:/home/vtrnnhlinh/STM32Cube/Repository/STM32Cube_FW_F4_V1.28.0/Drivers/STM32F4xx_HAL_Driver/Src/stm32f4xx_hal_rcc.c ****         if((HAL_GetTick() - tickstart) > RCC_DBP_TIMEOUT_VALUE)
 415:/home/vtrnnhlinh/STM32Cube/Repository/STM32Cube_FW_F4_V1.28.0/Drivers/STM32F4xx_HAL_Driver/Src/stm32f4xx_hal_rcc.c ****         {
 416:/home/vtrnnhlinh/STM32Cube/Repository/STM32Cube_FW_F4_V1.28.0/Drivers/STM32F4xx_HAL_Driver/Src/stm32f4xx_hal_rcc.c ****           return HAL_TIMEOUT;
 417:/home/vtrnnhlinh/STM32Cube/Repository/STM32Cube_FW_F4_V1.28.0/Drivers/STM32F4xx_HAL_Driver/Src/stm32f4xx_hal_rcc.c ****         }
 418:/home/vtrnnhlinh/STM32Cube/Repository/STM32Cube_FW_F4_V1.28.0/Drivers/STM32F4xx_HAL_Driver/Src/stm32f4xx_hal_rcc.c ****       }
 419:/home/vtrnnhlinh/STM32Cube/Repository/STM32Cube_FW_F4_V1.28.0/Drivers/STM32F4xx_HAL_Driver/Src/stm32f4xx_hal_rcc.c ****     }
 420:/home/vtrnnhlinh/STM32Cube/Repository/STM32Cube_FW_F4_V1.28.0/Drivers/STM32F4xx_HAL_Driver/Src/stm32f4xx_hal_rcc.c **** 
 421:/home/vtrnnhlinh/STM32Cube/Repository/STM32Cube_FW_F4_V1.28.0/Drivers/STM32F4xx_HAL_Driver/Src/stm32f4xx_hal_rcc.c ****     /* Set the new LSE configuration -----------------------------------------*/
 422:/home/vtrnnhlinh/STM32Cube/Repository/STM32Cube_FW_F4_V1.28.0/Drivers/STM32F4xx_HAL_Driver/Src/stm32f4xx_hal_rcc.c ****     __HAL_RCC_LSE_CONFIG(RCC_OscInitStruct->LSEState);
 559              		.loc 1 422 5 is_stmt 1 view .LVU164
 560              		.loc 1 422 5 view .LVU165
 561 0278 A368     		ldr	r3, [r4, #8]
 562 027a 012B     		cmp	r3, #1
 563 027c 3AD0     		beq	.L104
 564              		.loc 1 422 5 discriminator 2 view .LVU166
 565 027e 052B     		cmp	r3, #5
 566 0280 3ED0     		beq	.L105
 567              		.loc 1 422 5 discriminator 5 view .LVU167
 568 0282 964B     		ldr	r3, .L118
 569 0284 1A6F     		ldr	r2, [r3, #112]
 570 0286 22F00102 		bic	r2, r2, #1
 571 028a 1A67     		str	r2, [r3, #112]
 572              		.loc 1 422 5 discriminator 5 view .LVU168
 573 028c 1A6F     		ldr	r2, [r3, #112]
 574 028e 22F00402 		bic	r2, r2, #4
 575 0292 1A67     		str	r2, [r3, #112]
 576              	.L42:
 577              		.loc 1 422 5 discriminator 7 view .LVU169
 423:/home/vtrnnhlinh/STM32Cube/Repository/STM32Cube_FW_F4_V1.28.0/Drivers/STM32F4xx_HAL_Driver/Src/stm32f4xx_hal_rcc.c ****     /* Check the LSE State */
 424:/home/vtrnnhlinh/STM32Cube/Repository/STM32Cube_FW_F4_V1.28.0/Drivers/STM32F4xx_HAL_Driver/Src/stm32f4xx_hal_rcc.c ****     if((RCC_OscInitStruct->LSEState) != RCC_LSE_OFF)
 578              		.loc 1 424 5 discriminator 7 view .LVU170
 579              		.loc 1 424 26 is_stmt 0 discriminator 7 view .LVU171
 580 0294 A368     		ldr	r3, [r4, #8]
 581              		.loc 1 424 7 discriminator 7 view .LVU172
 582 0296 002B     		cmp	r3, #0
 583 0298 3CD0     		beq	.L44
 425:/home/vtrnnhlinh/STM32Cube/Repository/STM32Cube_FW_F4_V1.28.0/Drivers/STM32F4xx_HAL_Driver/Src/stm32f4xx_hal_rcc.c ****     {
 426:/home/vtrnnhlinh/STM32Cube/Repository/STM32Cube_FW_F4_V1.28.0/Drivers/STM32F4xx_HAL_Driver/Src/stm32f4xx_hal_rcc.c ****       /* Get Start Tick*/
 427:/home/vtrnnhlinh/STM32Cube/Repository/STM32Cube_FW_F4_V1.28.0/Drivers/STM32F4xx_HAL_Driver/Src/stm32f4xx_hal_rcc.c ****       tickstart = HAL_GetTick();
 584              		.loc 1 427 7 is_stmt 1 view .LVU173
 585              		.loc 1 427 19 is_stmt 0 view .LVU174
 586 029a FFF7FEFF 		bl	HAL_GetTick
 587              	.LVL35:
 588 029e 0646     		mov	r6, r0
 589              	.LVL36:
 428:/home/vtrnnhlinh/STM32Cube/Repository/STM32Cube_FW_F4_V1.28.0/Drivers/STM32F4xx_HAL_Driver/Src/stm32f4xx_hal_rcc.c **** 
 429:/home/vtrnnhlinh/STM32Cube/Repository/STM32Cube_FW_F4_V1.28.0/Drivers/STM32F4xx_HAL_Driver/Src/stm32f4xx_hal_rcc.c ****       /* Wait till LSE is ready */
 430:/home/vtrnnhlinh/STM32Cube/Repository/STM32Cube_FW_F4_V1.28.0/Drivers/STM32F4xx_HAL_Driver/Src/stm32f4xx_hal_rcc.c ****       while(__HAL_RCC_GET_FLAG(RCC_FLAG_LSERDY) == RESET)
 590              		.loc 1 430 7 is_stmt 1 view .LVU175
 591              	.L45:
 592              		.loc 1 430 12 view .LVU176
 593              		.loc 1 430 13 is_stmt 0 view .LVU177
 594 02a0 8E4B     		ldr	r3, .L118
ARM GAS  /tmp/ccz6Q3rQ.s 			page 20


 595 02a2 1B6F     		ldr	r3, [r3, #112]
 596              		.loc 1 430 12 view .LVU178
 597 02a4 13F0020F 		tst	r3, #2
 598 02a8 45D1     		bne	.L47
 431:/home/vtrnnhlinh/STM32Cube/Repository/STM32Cube_FW_F4_V1.28.0/Drivers/STM32F4xx_HAL_Driver/Src/stm32f4xx_hal_rcc.c ****       {
 432:/home/vtrnnhlinh/STM32Cube/Repository/STM32Cube_FW_F4_V1.28.0/Drivers/STM32F4xx_HAL_Driver/Src/stm32f4xx_hal_rcc.c ****         if((HAL_GetTick() - tickstart ) > RCC_LSE_TIMEOUT_VALUE)
 599              		.loc 1 432 9 is_stmt 1 view .LVU179
 600              		.loc 1 432 13 is_stmt 0 view .LVU180
 601 02aa FFF7FEFF 		bl	HAL_GetTick
 602              	.LVL37:
 603              		.loc 1 432 27 view .LVU181
 604 02ae 801B     		subs	r0, r0, r6
 605              		.loc 1 432 11 view .LVU182
 606 02b0 41F28833 		movw	r3, #5000
 607 02b4 9842     		cmp	r0, r3
 608 02b6 F3D9     		bls	.L45
 433:/home/vtrnnhlinh/STM32Cube/Repository/STM32Cube_FW_F4_V1.28.0/Drivers/STM32F4xx_HAL_Driver/Src/stm32f4xx_hal_rcc.c ****         {
 434:/home/vtrnnhlinh/STM32Cube/Repository/STM32Cube_FW_F4_V1.28.0/Drivers/STM32F4xx_HAL_Driver/Src/stm32f4xx_hal_rcc.c ****           return HAL_TIMEOUT;
 609              		.loc 1 434 18 view .LVU183
 610 02b8 0320     		movs	r0, #3
 611 02ba 09E1     		b	.L3
 612              	.LVL38:
 613              	.L102:
 394:/home/vtrnnhlinh/STM32Cube/Repository/STM32Cube_FW_F4_V1.28.0/Drivers/STM32F4xx_HAL_Driver/Src/stm32f4xx_hal_rcc.c **** 
 614              		.loc 1 394 5 discriminator 2 view .LVU184
 615 02bc 4FF4C571 		mov	r1, #394
 616 02c0 8848     		ldr	r0, .L118+8
 617 02c2 FFF7FEFF 		bl	assert_failed
 618              	.LVL39:
 619 02c6 C0E7     		b	.L36
 620              	.L73:
 391:/home/vtrnnhlinh/STM32Cube/Repository/STM32Cube_FW_F4_V1.28.0/Drivers/STM32F4xx_HAL_Driver/Src/stm32f4xx_hal_rcc.c **** 
 621              		.loc 1 391 22 view .LVU185
 622 02c8 0025     		movs	r5, #0
 623 02ca D0E7     		b	.L37
 624              	.LVL40:
 625              	.L103:
 407:/home/vtrnnhlinh/STM32Cube/Repository/STM32Cube_FW_F4_V1.28.0/Drivers/STM32F4xx_HAL_Driver/Src/stm32f4xx_hal_rcc.c **** 
 626              		.loc 1 407 7 is_stmt 1 view .LVU186
 627 02cc 844A     		ldr	r2, .L118+4
 628 02ce 1368     		ldr	r3, [r2]
 629 02d0 43F48073 		orr	r3, r3, #256
 630 02d4 1360     		str	r3, [r2]
 410:/home/vtrnnhlinh/STM32Cube/Repository/STM32Cube_FW_F4_V1.28.0/Drivers/STM32F4xx_HAL_Driver/Src/stm32f4xx_hal_rcc.c **** 
 631              		.loc 1 410 7 view .LVU187
 410:/home/vtrnnhlinh/STM32Cube/Repository/STM32Cube_FW_F4_V1.28.0/Drivers/STM32F4xx_HAL_Driver/Src/stm32f4xx_hal_rcc.c **** 
 632              		.loc 1 410 19 is_stmt 0 view .LVU188
 633 02d6 FFF7FEFF 		bl	HAL_GetTick
 634              	.LVL41:
 635 02da 0646     		mov	r6, r0
 636              	.LVL42:
 412:/home/vtrnnhlinh/STM32Cube/Repository/STM32Cube_FW_F4_V1.28.0/Drivers/STM32F4xx_HAL_Driver/Src/stm32f4xx_hal_rcc.c ****       {
 637              		.loc 1 412 7 is_stmt 1 view .LVU189
 638              	.L39:
 412:/home/vtrnnhlinh/STM32Cube/Repository/STM32Cube_FW_F4_V1.28.0/Drivers/STM32F4xx_HAL_Driver/Src/stm32f4xx_hal_rcc.c ****       {
 639              		.loc 1 412 12 view .LVU190
 412:/home/vtrnnhlinh/STM32Cube/Repository/STM32Cube_FW_F4_V1.28.0/Drivers/STM32F4xx_HAL_Driver/Src/stm32f4xx_hal_rcc.c ****       {
ARM GAS  /tmp/ccz6Q3rQ.s 			page 21


 640              		.loc 1 412 13 is_stmt 0 view .LVU191
 641 02dc 804B     		ldr	r3, .L118+4
 642 02de 1B68     		ldr	r3, [r3]
 412:/home/vtrnnhlinh/STM32Cube/Repository/STM32Cube_FW_F4_V1.28.0/Drivers/STM32F4xx_HAL_Driver/Src/stm32f4xx_hal_rcc.c ****       {
 643              		.loc 1 412 12 view .LVU192
 644 02e0 13F4807F 		tst	r3, #256
 645 02e4 C8D1     		bne	.L38
 414:/home/vtrnnhlinh/STM32Cube/Repository/STM32Cube_FW_F4_V1.28.0/Drivers/STM32F4xx_HAL_Driver/Src/stm32f4xx_hal_rcc.c ****         {
 646              		.loc 1 414 9 is_stmt 1 view .LVU193
 414:/home/vtrnnhlinh/STM32Cube/Repository/STM32Cube_FW_F4_V1.28.0/Drivers/STM32F4xx_HAL_Driver/Src/stm32f4xx_hal_rcc.c ****         {
 647              		.loc 1 414 13 is_stmt 0 view .LVU194
 648 02e6 FFF7FEFF 		bl	HAL_GetTick
 649              	.LVL43:
 414:/home/vtrnnhlinh/STM32Cube/Repository/STM32Cube_FW_F4_V1.28.0/Drivers/STM32F4xx_HAL_Driver/Src/stm32f4xx_hal_rcc.c ****         {
 650              		.loc 1 414 27 view .LVU195
 651 02ea 801B     		subs	r0, r0, r6
 414:/home/vtrnnhlinh/STM32Cube/Repository/STM32Cube_FW_F4_V1.28.0/Drivers/STM32F4xx_HAL_Driver/Src/stm32f4xx_hal_rcc.c ****         {
 652              		.loc 1 414 11 view .LVU196
 653 02ec 0228     		cmp	r0, #2
 654 02ee F5D9     		bls	.L39
 416:/home/vtrnnhlinh/STM32Cube/Repository/STM32Cube_FW_F4_V1.28.0/Drivers/STM32F4xx_HAL_Driver/Src/stm32f4xx_hal_rcc.c ****         }
 655              		.loc 1 416 18 view .LVU197
 656 02f0 0320     		movs	r0, #3
 657 02f2 EDE0     		b	.L3
 658              	.LVL44:
 659              	.L104:
 422:/home/vtrnnhlinh/STM32Cube/Repository/STM32Cube_FW_F4_V1.28.0/Drivers/STM32F4xx_HAL_Driver/Src/stm32f4xx_hal_rcc.c ****     /* Check the LSE State */
 660              		.loc 1 422 5 is_stmt 1 discriminator 1 view .LVU198
 661 02f4 794A     		ldr	r2, .L118
 662 02f6 136F     		ldr	r3, [r2, #112]
 663 02f8 43F00103 		orr	r3, r3, #1
 664 02fc 1367     		str	r3, [r2, #112]
 665 02fe C9E7     		b	.L42
 666              	.L105:
 422:/home/vtrnnhlinh/STM32Cube/Repository/STM32Cube_FW_F4_V1.28.0/Drivers/STM32F4xx_HAL_Driver/Src/stm32f4xx_hal_rcc.c ****     /* Check the LSE State */
 667              		.loc 1 422 5 discriminator 4 view .LVU199
 668 0300 764B     		ldr	r3, .L118
 669 0302 1A6F     		ldr	r2, [r3, #112]
 670 0304 42F00402 		orr	r2, r2, #4
 671 0308 1A67     		str	r2, [r3, #112]
 422:/home/vtrnnhlinh/STM32Cube/Repository/STM32Cube_FW_F4_V1.28.0/Drivers/STM32F4xx_HAL_Driver/Src/stm32f4xx_hal_rcc.c ****     /* Check the LSE State */
 672              		.loc 1 422 5 discriminator 4 view .LVU200
 673 030a 1A6F     		ldr	r2, [r3, #112]
 674 030c 42F00102 		orr	r2, r2, #1
 675 0310 1A67     		str	r2, [r3, #112]
 676 0312 BFE7     		b	.L42
 677              	.L44:
 435:/home/vtrnnhlinh/STM32Cube/Repository/STM32Cube_FW_F4_V1.28.0/Drivers/STM32F4xx_HAL_Driver/Src/stm32f4xx_hal_rcc.c ****         }
 436:/home/vtrnnhlinh/STM32Cube/Repository/STM32Cube_FW_F4_V1.28.0/Drivers/STM32F4xx_HAL_Driver/Src/stm32f4xx_hal_rcc.c ****       }
 437:/home/vtrnnhlinh/STM32Cube/Repository/STM32Cube_FW_F4_V1.28.0/Drivers/STM32F4xx_HAL_Driver/Src/stm32f4xx_hal_rcc.c ****     }
 438:/home/vtrnnhlinh/STM32Cube/Repository/STM32Cube_FW_F4_V1.28.0/Drivers/STM32F4xx_HAL_Driver/Src/stm32f4xx_hal_rcc.c ****     else
 439:/home/vtrnnhlinh/STM32Cube/Repository/STM32Cube_FW_F4_V1.28.0/Drivers/STM32F4xx_HAL_Driver/Src/stm32f4xx_hal_rcc.c ****     {
 440:/home/vtrnnhlinh/STM32Cube/Repository/STM32Cube_FW_F4_V1.28.0/Drivers/STM32F4xx_HAL_Driver/Src/stm32f4xx_hal_rcc.c ****       /* Get Start Tick */
 441:/home/vtrnnhlinh/STM32Cube/Repository/STM32Cube_FW_F4_V1.28.0/Drivers/STM32F4xx_HAL_Driver/Src/stm32f4xx_hal_rcc.c ****       tickstart = HAL_GetTick();
 678              		.loc 1 441 7 view .LVU201
 679              		.loc 1 441 19 is_stmt 0 view .LVU202
 680 0314 FFF7FEFF 		bl	HAL_GetTick
ARM GAS  /tmp/ccz6Q3rQ.s 			page 22


 681              	.LVL45:
 682 0318 0646     		mov	r6, r0
 683              	.LVL46:
 442:/home/vtrnnhlinh/STM32Cube/Repository/STM32Cube_FW_F4_V1.28.0/Drivers/STM32F4xx_HAL_Driver/Src/stm32f4xx_hal_rcc.c **** 
 443:/home/vtrnnhlinh/STM32Cube/Repository/STM32Cube_FW_F4_V1.28.0/Drivers/STM32F4xx_HAL_Driver/Src/stm32f4xx_hal_rcc.c ****       /* Wait till LSE is ready */
 444:/home/vtrnnhlinh/STM32Cube/Repository/STM32Cube_FW_F4_V1.28.0/Drivers/STM32F4xx_HAL_Driver/Src/stm32f4xx_hal_rcc.c ****       while(__HAL_RCC_GET_FLAG(RCC_FLAG_LSERDY) != RESET)
 684              		.loc 1 444 7 is_stmt 1 view .LVU203
 685              	.L48:
 686              		.loc 1 444 12 view .LVU204
 687              		.loc 1 444 13 is_stmt 0 view .LVU205
 688 031a 704B     		ldr	r3, .L118
 689 031c 1B6F     		ldr	r3, [r3, #112]
 690              		.loc 1 444 12 view .LVU206
 691 031e 13F0020F 		tst	r3, #2
 692 0322 08D0     		beq	.L47
 445:/home/vtrnnhlinh/STM32Cube/Repository/STM32Cube_FW_F4_V1.28.0/Drivers/STM32F4xx_HAL_Driver/Src/stm32f4xx_hal_rcc.c ****       {
 446:/home/vtrnnhlinh/STM32Cube/Repository/STM32Cube_FW_F4_V1.28.0/Drivers/STM32F4xx_HAL_Driver/Src/stm32f4xx_hal_rcc.c ****         if((HAL_GetTick() - tickstart ) > RCC_LSE_TIMEOUT_VALUE)
 693              		.loc 1 446 9 is_stmt 1 view .LVU207
 694              		.loc 1 446 13 is_stmt 0 view .LVU208
 695 0324 FFF7FEFF 		bl	HAL_GetTick
 696              	.LVL47:
 697              		.loc 1 446 27 view .LVU209
 698 0328 801B     		subs	r0, r0, r6
 699              		.loc 1 446 11 view .LVU210
 700 032a 41F28833 		movw	r3, #5000
 701 032e 9842     		cmp	r0, r3
 702 0330 F3D9     		bls	.L48
 447:/home/vtrnnhlinh/STM32Cube/Repository/STM32Cube_FW_F4_V1.28.0/Drivers/STM32F4xx_HAL_Driver/Src/stm32f4xx_hal_rcc.c ****         {
 448:/home/vtrnnhlinh/STM32Cube/Repository/STM32Cube_FW_F4_V1.28.0/Drivers/STM32F4xx_HAL_Driver/Src/stm32f4xx_hal_rcc.c ****           return HAL_TIMEOUT;
 703              		.loc 1 448 18 view .LVU211
 704 0332 0320     		movs	r0, #3
 705 0334 CCE0     		b	.L3
 706              	.L47:
 449:/home/vtrnnhlinh/STM32Cube/Repository/STM32Cube_FW_F4_V1.28.0/Drivers/STM32F4xx_HAL_Driver/Src/stm32f4xx_hal_rcc.c ****         }
 450:/home/vtrnnhlinh/STM32Cube/Repository/STM32Cube_FW_F4_V1.28.0/Drivers/STM32F4xx_HAL_Driver/Src/stm32f4xx_hal_rcc.c ****       }
 451:/home/vtrnnhlinh/STM32Cube/Repository/STM32Cube_FW_F4_V1.28.0/Drivers/STM32F4xx_HAL_Driver/Src/stm32f4xx_hal_rcc.c ****     }
 452:/home/vtrnnhlinh/STM32Cube/Repository/STM32Cube_FW_F4_V1.28.0/Drivers/STM32F4xx_HAL_Driver/Src/stm32f4xx_hal_rcc.c **** 
 453:/home/vtrnnhlinh/STM32Cube/Repository/STM32Cube_FW_F4_V1.28.0/Drivers/STM32F4xx_HAL_Driver/Src/stm32f4xx_hal_rcc.c ****     /* Restore clock configuration if changed */
 454:/home/vtrnnhlinh/STM32Cube/Repository/STM32Cube_FW_F4_V1.28.0/Drivers/STM32F4xx_HAL_Driver/Src/stm32f4xx_hal_rcc.c ****     if(pwrclkchanged == SET)
 707              		.loc 1 454 5 is_stmt 1 view .LVU212
 708              		.loc 1 454 7 is_stmt 0 view .LVU213
 709 0336 002D     		cmp	r5, #0
 710 0338 3CD1     		bne	.L106
 711              	.LVL48:
 712              	.L35:
 713              		.loc 1 454 7 view .LVU214
 714              	.LBE2:
 455:/home/vtrnnhlinh/STM32Cube/Repository/STM32Cube_FW_F4_V1.28.0/Drivers/STM32F4xx_HAL_Driver/Src/stm32f4xx_hal_rcc.c ****     {
 456:/home/vtrnnhlinh/STM32Cube/Repository/STM32Cube_FW_F4_V1.28.0/Drivers/STM32F4xx_HAL_Driver/Src/stm32f4xx_hal_rcc.c ****       __HAL_RCC_PWR_CLK_DISABLE();
 457:/home/vtrnnhlinh/STM32Cube/Repository/STM32Cube_FW_F4_V1.28.0/Drivers/STM32F4xx_HAL_Driver/Src/stm32f4xx_hal_rcc.c ****     }
 458:/home/vtrnnhlinh/STM32Cube/Repository/STM32Cube_FW_F4_V1.28.0/Drivers/STM32F4xx_HAL_Driver/Src/stm32f4xx_hal_rcc.c ****   }
 459:/home/vtrnnhlinh/STM32Cube/Repository/STM32Cube_FW_F4_V1.28.0/Drivers/STM32F4xx_HAL_Driver/Src/stm32f4xx_hal_rcc.c ****   /*-------------------------------- PLL Configuration -----------------------*/
 460:/home/vtrnnhlinh/STM32Cube/Repository/STM32Cube_FW_F4_V1.28.0/Drivers/STM32F4xx_HAL_Driver/Src/stm32f4xx_hal_rcc.c ****   /* Check the parameters */
 461:/home/vtrnnhlinh/STM32Cube/Repository/STM32Cube_FW_F4_V1.28.0/Drivers/STM32F4xx_HAL_Driver/Src/stm32f4xx_hal_rcc.c ****   assert_param(IS_RCC_PLL(RCC_OscInitStruct->PLL.PLLState));
 715              		.loc 1 461 3 is_stmt 1 view .LVU215
 716 033a A369     		ldr	r3, [r4, #24]
 717 033c 022B     		cmp	r3, #2
ARM GAS  /tmp/ccz6Q3rQ.s 			page 23


 718 033e 3FD8     		bhi	.L107
 719              	.L50:
 462:/home/vtrnnhlinh/STM32Cube/Repository/STM32Cube_FW_F4_V1.28.0/Drivers/STM32F4xx_HAL_Driver/Src/stm32f4xx_hal_rcc.c ****   if ((RCC_OscInitStruct->PLL.PLLState) != RCC_PLL_NONE)
 720              		.loc 1 462 3 view .LVU216
 721              		.loc 1 462 30 is_stmt 0 view .LVU217
 722 0340 A369     		ldr	r3, [r4, #24]
 723              		.loc 1 462 6 view .LVU218
 724 0342 002B     		cmp	r3, #0
 725 0344 00F0C380 		beq	.L77
 463:/home/vtrnnhlinh/STM32Cube/Repository/STM32Cube_FW_F4_V1.28.0/Drivers/STM32F4xx_HAL_Driver/Src/stm32f4xx_hal_rcc.c ****   {
 464:/home/vtrnnhlinh/STM32Cube/Repository/STM32Cube_FW_F4_V1.28.0/Drivers/STM32F4xx_HAL_Driver/Src/stm32f4xx_hal_rcc.c ****     /* Check if the PLL is used as system clock or not */
 465:/home/vtrnnhlinh/STM32Cube/Repository/STM32Cube_FW_F4_V1.28.0/Drivers/STM32F4xx_HAL_Driver/Src/stm32f4xx_hal_rcc.c ****     if(__HAL_RCC_GET_SYSCLK_SOURCE() != RCC_CFGR_SWS_PLL)
 726              		.loc 1 465 5 is_stmt 1 view .LVU219
 727              		.loc 1 465 8 is_stmt 0 view .LVU220
 728 0348 644A     		ldr	r2, .L118
 729 034a 9268     		ldr	r2, [r2, #8]
 730 034c 02F00C02 		and	r2, r2, #12
 731              		.loc 1 465 7 view .LVU221
 732 0350 082A     		cmp	r2, #8
 733 0352 00F09180 		beq	.L51
 466:/home/vtrnnhlinh/STM32Cube/Repository/STM32Cube_FW_F4_V1.28.0/Drivers/STM32F4xx_HAL_Driver/Src/stm32f4xx_hal_rcc.c ****     {
 467:/home/vtrnnhlinh/STM32Cube/Repository/STM32Cube_FW_F4_V1.28.0/Drivers/STM32F4xx_HAL_Driver/Src/stm32f4xx_hal_rcc.c ****       if((RCC_OscInitStruct->PLL.PLLState) == RCC_PLL_ON)
 734              		.loc 1 467 7 is_stmt 1 view .LVU222
 735              		.loc 1 467 9 is_stmt 0 view .LVU223
 736 0356 022B     		cmp	r3, #2
 737 0358 7AD1     		bne	.L52
 468:/home/vtrnnhlinh/STM32Cube/Repository/STM32Cube_FW_F4_V1.28.0/Drivers/STM32F4xx_HAL_Driver/Src/stm32f4xx_hal_rcc.c ****       {
 469:/home/vtrnnhlinh/STM32Cube/Repository/STM32Cube_FW_F4_V1.28.0/Drivers/STM32F4xx_HAL_Driver/Src/stm32f4xx_hal_rcc.c ****         /* Check the parameters */
 470:/home/vtrnnhlinh/STM32Cube/Repository/STM32Cube_FW_F4_V1.28.0/Drivers/STM32F4xx_HAL_Driver/Src/stm32f4xx_hal_rcc.c ****         assert_param(IS_RCC_PLLSOURCE(RCC_OscInitStruct->PLL.PLLSource));
 738              		.loc 1 470 9 is_stmt 1 view .LVU224
 739 035a E369     		ldr	r3, [r4, #28]
 740 035c 13B1     		cbz	r3, .L53
 741              		.loc 1 470 9 is_stmt 0 discriminator 1 view .LVU225
 742 035e B3F5800F 		cmp	r3, #4194304
 743 0362 33D1     		bne	.L108
 744              	.L53:
 471:/home/vtrnnhlinh/STM32Cube/Repository/STM32Cube_FW_F4_V1.28.0/Drivers/STM32F4xx_HAL_Driver/Src/stm32f4xx_hal_rcc.c ****         assert_param(IS_RCC_PLLM_VALUE(RCC_OscInitStruct->PLL.PLLM));
 745              		.loc 1 471 9 is_stmt 1 view .LVU226
 746 0364 236A     		ldr	r3, [r4, #32]
 747 0366 023B     		subs	r3, r3, #2
 748 0368 3D2B     		cmp	r3, #61
 749 036a 35D8     		bhi	.L109
 750              	.L54:
 472:/home/vtrnnhlinh/STM32Cube/Repository/STM32Cube_FW_F4_V1.28.0/Drivers/STM32F4xx_HAL_Driver/Src/stm32f4xx_hal_rcc.c ****         assert_param(IS_RCC_PLLN_VALUE(RCC_OscInitStruct->PLL.PLLN));
 751              		.loc 1 472 9 view .LVU227
 752 036c 636A     		ldr	r3, [r4, #36]
 753 036e 323B     		subs	r3, r3, #50
 754 0370 B3F5BF7F 		cmp	r3, #382
 755 0374 36D8     		bhi	.L110
 756              	.L55:
 473:/home/vtrnnhlinh/STM32Cube/Repository/STM32Cube_FW_F4_V1.28.0/Drivers/STM32F4xx_HAL_Driver/Src/stm32f4xx_hal_rcc.c ****         assert_param(IS_RCC_PLLP_VALUE(RCC_OscInitStruct->PLL.PLLP));
 757              		.loc 1 473 9 view .LVU228
 758 0376 A36A     		ldr	r3, [r4, #40]
 759 0378 022B     		cmp	r3, #2
 760 037a 05D0     		beq	.L56
 761              		.loc 1 473 9 is_stmt 0 discriminator 1 view .LVU229
 762 037c 042B     		cmp	r3, #4
ARM GAS  /tmp/ccz6Q3rQ.s 			page 24


 763 037e 03D0     		beq	.L56
 764              		.loc 1 473 9 discriminator 2 view .LVU230
 765 0380 062B     		cmp	r3, #6
 766 0382 01D0     		beq	.L56
 767              		.loc 1 473 9 discriminator 3 view .LVU231
 768 0384 082B     		cmp	r3, #8
 769 0386 33D1     		bne	.L111
 770              	.L56:
 474:/home/vtrnnhlinh/STM32Cube/Repository/STM32Cube_FW_F4_V1.28.0/Drivers/STM32F4xx_HAL_Driver/Src/stm32f4xx_hal_rcc.c ****         assert_param(IS_RCC_PLLQ_VALUE(RCC_OscInitStruct->PLL.PLLQ));
 771              		.loc 1 474 9 is_stmt 1 view .LVU232
 772 0388 E36A     		ldr	r3, [r4, #44]
 773 038a 023B     		subs	r3, r3, #2
 774 038c 0D2B     		cmp	r3, #13
 775 038e 35D8     		bhi	.L112
 776              	.L57:
 475:/home/vtrnnhlinh/STM32Cube/Repository/STM32Cube_FW_F4_V1.28.0/Drivers/STM32F4xx_HAL_Driver/Src/stm32f4xx_hal_rcc.c **** 
 476:/home/vtrnnhlinh/STM32Cube/Repository/STM32Cube_FW_F4_V1.28.0/Drivers/STM32F4xx_HAL_Driver/Src/stm32f4xx_hal_rcc.c ****         /* Disable the main PLL. */
 477:/home/vtrnnhlinh/STM32Cube/Repository/STM32Cube_FW_F4_V1.28.0/Drivers/STM32F4xx_HAL_Driver/Src/stm32f4xx_hal_rcc.c ****         __HAL_RCC_PLL_DISABLE();
 777              		.loc 1 477 9 view .LVU233
 778 0390 554B     		ldr	r3, .L118+12
 779 0392 0022     		movs	r2, #0
 780 0394 1A66     		str	r2, [r3, #96]
 478:/home/vtrnnhlinh/STM32Cube/Repository/STM32Cube_FW_F4_V1.28.0/Drivers/STM32F4xx_HAL_Driver/Src/stm32f4xx_hal_rcc.c **** 
 479:/home/vtrnnhlinh/STM32Cube/Repository/STM32Cube_FW_F4_V1.28.0/Drivers/STM32F4xx_HAL_Driver/Src/stm32f4xx_hal_rcc.c ****         /* Get Start Tick */
 480:/home/vtrnnhlinh/STM32Cube/Repository/STM32Cube_FW_F4_V1.28.0/Drivers/STM32F4xx_HAL_Driver/Src/stm32f4xx_hal_rcc.c ****         tickstart = HAL_GetTick();
 781              		.loc 1 480 9 view .LVU234
 782              		.loc 1 480 21 is_stmt 0 view .LVU235
 783 0396 FFF7FEFF 		bl	HAL_GetTick
 784              	.LVL49:
 785 039a 0546     		mov	r5, r0
 786              	.LVL50:
 481:/home/vtrnnhlinh/STM32Cube/Repository/STM32Cube_FW_F4_V1.28.0/Drivers/STM32F4xx_HAL_Driver/Src/stm32f4xx_hal_rcc.c **** 
 482:/home/vtrnnhlinh/STM32Cube/Repository/STM32Cube_FW_F4_V1.28.0/Drivers/STM32F4xx_HAL_Driver/Src/stm32f4xx_hal_rcc.c ****         /* Wait till PLL is disabled */
 483:/home/vtrnnhlinh/STM32Cube/Repository/STM32Cube_FW_F4_V1.28.0/Drivers/STM32F4xx_HAL_Driver/Src/stm32f4xx_hal_rcc.c ****         while(__HAL_RCC_GET_FLAG(RCC_FLAG_PLLRDY) != RESET)
 787              		.loc 1 483 9 is_stmt 1 view .LVU236
 788              	.L58:
 789              		.loc 1 483 14 view .LVU237
 790              		.loc 1 483 15 is_stmt 0 view .LVU238
 791 039c 4F4B     		ldr	r3, .L118
 792 039e 1B68     		ldr	r3, [r3]
 793              		.loc 1 483 14 view .LVU239
 794 03a0 13F0007F 		tst	r3, #33554432
 795 03a4 30D0     		beq	.L113
 484:/home/vtrnnhlinh/STM32Cube/Repository/STM32Cube_FW_F4_V1.28.0/Drivers/STM32F4xx_HAL_Driver/Src/stm32f4xx_hal_rcc.c ****         {
 485:/home/vtrnnhlinh/STM32Cube/Repository/STM32Cube_FW_F4_V1.28.0/Drivers/STM32F4xx_HAL_Driver/Src/stm32f4xx_hal_rcc.c ****           if((HAL_GetTick() - tickstart ) > PLL_TIMEOUT_VALUE)
 796              		.loc 1 485 11 is_stmt 1 view .LVU240
 797              		.loc 1 485 15 is_stmt 0 view .LVU241
 798 03a6 FFF7FEFF 		bl	HAL_GetTick
 799              	.LVL51:
 800              		.loc 1 485 29 view .LVU242
 801 03aa 401B     		subs	r0, r0, r5
 802              		.loc 1 485 13 view .LVU243
 803 03ac 0228     		cmp	r0, #2
 804 03ae F5D9     		bls	.L58
 486:/home/vtrnnhlinh/STM32Cube/Repository/STM32Cube_FW_F4_V1.28.0/Drivers/STM32F4xx_HAL_Driver/Src/stm32f4xx_hal_rcc.c ****           {
 487:/home/vtrnnhlinh/STM32Cube/Repository/STM32Cube_FW_F4_V1.28.0/Drivers/STM32F4xx_HAL_Driver/Src/stm32f4xx_hal_rcc.c ****             return HAL_TIMEOUT;
 805              		.loc 1 487 20 view .LVU244
ARM GAS  /tmp/ccz6Q3rQ.s 			page 25


 806 03b0 0320     		movs	r0, #3
 807 03b2 8DE0     		b	.L3
 808              	.LVL52:
 809              	.L106:
 810              	.LBB4:
 456:/home/vtrnnhlinh/STM32Cube/Repository/STM32Cube_FW_F4_V1.28.0/Drivers/STM32F4xx_HAL_Driver/Src/stm32f4xx_hal_rcc.c ****     }
 811              		.loc 1 456 7 is_stmt 1 view .LVU245
 812 03b4 494A     		ldr	r2, .L118
 813 03b6 136C     		ldr	r3, [r2, #64]
 814 03b8 23F08053 		bic	r3, r3, #268435456
 815 03bc 1364     		str	r3, [r2, #64]
 816 03be BCE7     		b	.L35
 817              	.LVL53:
 818              	.L107:
 456:/home/vtrnnhlinh/STM32Cube/Repository/STM32Cube_FW_F4_V1.28.0/Drivers/STM32F4xx_HAL_Driver/Src/stm32f4xx_hal_rcc.c ****     }
 819              		.loc 1 456 7 is_stmt 0 view .LVU246
 820              	.LBE4:
 461:/home/vtrnnhlinh/STM32Cube/Repository/STM32Cube_FW_F4_V1.28.0/Drivers/STM32F4xx_HAL_Driver/Src/stm32f4xx_hal_rcc.c ****   if ((RCC_OscInitStruct->PLL.PLLState) != RCC_PLL_NONE)
 821              		.loc 1 461 3 discriminator 1 view .LVU247
 822 03c0 40F2CD11 		movw	r1, #461
 823 03c4 4748     		ldr	r0, .L118+8
 824 03c6 FFF7FEFF 		bl	assert_failed
 825              	.LVL54:
 826 03ca B9E7     		b	.L50
 827              	.L108:
 470:/home/vtrnnhlinh/STM32Cube/Repository/STM32Cube_FW_F4_V1.28.0/Drivers/STM32F4xx_HAL_Driver/Src/stm32f4xx_hal_rcc.c ****         assert_param(IS_RCC_PLLM_VALUE(RCC_OscInitStruct->PLL.PLLM));
 828              		.loc 1 470 9 discriminator 2 view .LVU248
 829 03cc 4FF4EB71 		mov	r1, #470
 830 03d0 4448     		ldr	r0, .L118+8
 831 03d2 FFF7FEFF 		bl	assert_failed
 832              	.LVL55:
 833 03d6 C5E7     		b	.L53
 834              	.L109:
 471:/home/vtrnnhlinh/STM32Cube/Repository/STM32Cube_FW_F4_V1.28.0/Drivers/STM32F4xx_HAL_Driver/Src/stm32f4xx_hal_rcc.c ****         assert_param(IS_RCC_PLLN_VALUE(RCC_OscInitStruct->PLL.PLLN));
 835              		.loc 1 471 9 discriminator 1 view .LVU249
 836 03d8 40F2D711 		movw	r1, #471
 837 03dc 4148     		ldr	r0, .L118+8
 838 03de FFF7FEFF 		bl	assert_failed
 839              	.LVL56:
 840 03e2 C3E7     		b	.L54
 841              	.L110:
 472:/home/vtrnnhlinh/STM32Cube/Repository/STM32Cube_FW_F4_V1.28.0/Drivers/STM32F4xx_HAL_Driver/Src/stm32f4xx_hal_rcc.c ****         assert_param(IS_RCC_PLLP_VALUE(RCC_OscInitStruct->PLL.PLLP));
 842              		.loc 1 472 9 discriminator 1 view .LVU250
 843 03e4 4FF4EC71 		mov	r1, #472
 844 03e8 3E48     		ldr	r0, .L118+8
 845 03ea FFF7FEFF 		bl	assert_failed
 846              	.LVL57:
 847 03ee C2E7     		b	.L55
 848              	.L111:
 473:/home/vtrnnhlinh/STM32Cube/Repository/STM32Cube_FW_F4_V1.28.0/Drivers/STM32F4xx_HAL_Driver/Src/stm32f4xx_hal_rcc.c ****         assert_param(IS_RCC_PLLQ_VALUE(RCC_OscInitStruct->PLL.PLLQ));
 849              		.loc 1 473 9 discriminator 4 view .LVU251
 850 03f0 40F2D911 		movw	r1, #473
 851 03f4 3B48     		ldr	r0, .L118+8
 852 03f6 FFF7FEFF 		bl	assert_failed
 853              	.LVL58:
 854 03fa C5E7     		b	.L56
 855              	.L112:
ARM GAS  /tmp/ccz6Q3rQ.s 			page 26


 474:/home/vtrnnhlinh/STM32Cube/Repository/STM32Cube_FW_F4_V1.28.0/Drivers/STM32F4xx_HAL_Driver/Src/stm32f4xx_hal_rcc.c **** 
 856              		.loc 1 474 9 discriminator 1 view .LVU252
 857 03fc 4FF4ED71 		mov	r1, #474
 858 0400 3848     		ldr	r0, .L118+8
 859 0402 FFF7FEFF 		bl	assert_failed
 860              	.LVL59:
 861 0406 C3E7     		b	.L57
 862              	.LVL60:
 863              	.L113:
 488:/home/vtrnnhlinh/STM32Cube/Repository/STM32Cube_FW_F4_V1.28.0/Drivers/STM32F4xx_HAL_Driver/Src/stm32f4xx_hal_rcc.c ****           }
 489:/home/vtrnnhlinh/STM32Cube/Repository/STM32Cube_FW_F4_V1.28.0/Drivers/STM32F4xx_HAL_Driver/Src/stm32f4xx_hal_rcc.c ****         }
 490:/home/vtrnnhlinh/STM32Cube/Repository/STM32Cube_FW_F4_V1.28.0/Drivers/STM32F4xx_HAL_Driver/Src/stm32f4xx_hal_rcc.c **** 
 491:/home/vtrnnhlinh/STM32Cube/Repository/STM32Cube_FW_F4_V1.28.0/Drivers/STM32F4xx_HAL_Driver/Src/stm32f4xx_hal_rcc.c ****         /* Configure the main PLL clock source, multiplication and division factors. */
 492:/home/vtrnnhlinh/STM32Cube/Repository/STM32Cube_FW_F4_V1.28.0/Drivers/STM32F4xx_HAL_Driver/Src/stm32f4xx_hal_rcc.c ****         WRITE_REG(RCC->PLLCFGR, (RCC_OscInitStruct->PLL.PLLSource                                  
 864              		.loc 1 492 9 is_stmt 1 view .LVU253
 865 0408 E369     		ldr	r3, [r4, #28]
 866 040a 226A     		ldr	r2, [r4, #32]
 867 040c 1343     		orrs	r3, r3, r2
 868 040e 626A     		ldr	r2, [r4, #36]
 869 0410 43EA8213 		orr	r3, r3, r2, lsl #6
 870 0414 A26A     		ldr	r2, [r4, #40]
 871 0416 5208     		lsrs	r2, r2, #1
 872 0418 013A     		subs	r2, r2, #1
 873 041a 43EA0243 		orr	r3, r3, r2, lsl #16
 874 041e E26A     		ldr	r2, [r4, #44]
 875 0420 43EA0263 		orr	r3, r3, r2, lsl #24
 876 0424 2D4A     		ldr	r2, .L118
 877 0426 5360     		str	r3, [r2, #4]
 493:/home/vtrnnhlinh/STM32Cube/Repository/STM32Cube_FW_F4_V1.28.0/Drivers/STM32F4xx_HAL_Driver/Src/stm32f4xx_hal_rcc.c ****                                  RCC_OscInitStruct->PLL.PLLM                                       
 494:/home/vtrnnhlinh/STM32Cube/Repository/STM32Cube_FW_F4_V1.28.0/Drivers/STM32F4xx_HAL_Driver/Src/stm32f4xx_hal_rcc.c ****                                  (RCC_OscInitStruct->PLL.PLLN << RCC_PLLCFGR_PLLN_Pos)             
 495:/home/vtrnnhlinh/STM32Cube/Repository/STM32Cube_FW_F4_V1.28.0/Drivers/STM32F4xx_HAL_Driver/Src/stm32f4xx_hal_rcc.c ****                                  (((RCC_OscInitStruct->PLL.PLLP >> 1U) - 1U) << RCC_PLLCFGR_PLLP_Po
 496:/home/vtrnnhlinh/STM32Cube/Repository/STM32Cube_FW_F4_V1.28.0/Drivers/STM32F4xx_HAL_Driver/Src/stm32f4xx_hal_rcc.c ****                                  (RCC_OscInitStruct->PLL.PLLQ << RCC_PLLCFGR_PLLQ_Pos)));
 497:/home/vtrnnhlinh/STM32Cube/Repository/STM32Cube_FW_F4_V1.28.0/Drivers/STM32F4xx_HAL_Driver/Src/stm32f4xx_hal_rcc.c ****         /* Enable the main PLL. */
 498:/home/vtrnnhlinh/STM32Cube/Repository/STM32Cube_FW_F4_V1.28.0/Drivers/STM32F4xx_HAL_Driver/Src/stm32f4xx_hal_rcc.c ****         __HAL_RCC_PLL_ENABLE();
 878              		.loc 1 498 9 view .LVU254
 879 0428 2F4B     		ldr	r3, .L118+12
 880 042a 0122     		movs	r2, #1
 881 042c 1A66     		str	r2, [r3, #96]
 499:/home/vtrnnhlinh/STM32Cube/Repository/STM32Cube_FW_F4_V1.28.0/Drivers/STM32F4xx_HAL_Driver/Src/stm32f4xx_hal_rcc.c **** 
 500:/home/vtrnnhlinh/STM32Cube/Repository/STM32Cube_FW_F4_V1.28.0/Drivers/STM32F4xx_HAL_Driver/Src/stm32f4xx_hal_rcc.c ****         /* Get Start Tick */
 501:/home/vtrnnhlinh/STM32Cube/Repository/STM32Cube_FW_F4_V1.28.0/Drivers/STM32F4xx_HAL_Driver/Src/stm32f4xx_hal_rcc.c ****         tickstart = HAL_GetTick();
 882              		.loc 1 501 9 view .LVU255
 883              		.loc 1 501 21 is_stmt 0 view .LVU256
 884 042e FFF7FEFF 		bl	HAL_GetTick
 885              	.LVL61:
 886 0432 0446     		mov	r4, r0
 887              	.LVL62:
 502:/home/vtrnnhlinh/STM32Cube/Repository/STM32Cube_FW_F4_V1.28.0/Drivers/STM32F4xx_HAL_Driver/Src/stm32f4xx_hal_rcc.c **** 
 503:/home/vtrnnhlinh/STM32Cube/Repository/STM32Cube_FW_F4_V1.28.0/Drivers/STM32F4xx_HAL_Driver/Src/stm32f4xx_hal_rcc.c ****         /* Wait till PLL is ready */
 504:/home/vtrnnhlinh/STM32Cube/Repository/STM32Cube_FW_F4_V1.28.0/Drivers/STM32F4xx_HAL_Driver/Src/stm32f4xx_hal_rcc.c ****         while(__HAL_RCC_GET_FLAG(RCC_FLAG_PLLRDY) == RESET)
 888              		.loc 1 504 9 is_stmt 1 view .LVU257
 889              	.L60:
 890              		.loc 1 504 14 view .LVU258
 891              		.loc 1 504 15 is_stmt 0 view .LVU259
 892 0434 294B     		ldr	r3, .L118
 893 0436 1B68     		ldr	r3, [r3]
 894              		.loc 1 504 14 view .LVU260
ARM GAS  /tmp/ccz6Q3rQ.s 			page 27


 895 0438 13F0007F 		tst	r3, #33554432
 896 043c 06D1     		bne	.L114
 505:/home/vtrnnhlinh/STM32Cube/Repository/STM32Cube_FW_F4_V1.28.0/Drivers/STM32F4xx_HAL_Driver/Src/stm32f4xx_hal_rcc.c ****         {
 506:/home/vtrnnhlinh/STM32Cube/Repository/STM32Cube_FW_F4_V1.28.0/Drivers/STM32F4xx_HAL_Driver/Src/stm32f4xx_hal_rcc.c ****           if((HAL_GetTick() - tickstart ) > PLL_TIMEOUT_VALUE)
 897              		.loc 1 506 11 is_stmt 1 view .LVU261
 898              		.loc 1 506 15 is_stmt 0 view .LVU262
 899 043e FFF7FEFF 		bl	HAL_GetTick
 900              	.LVL63:
 901              		.loc 1 506 29 view .LVU263
 902 0442 001B     		subs	r0, r0, r4
 903              		.loc 1 506 13 view .LVU264
 904 0444 0228     		cmp	r0, #2
 905 0446 F5D9     		bls	.L60
 507:/home/vtrnnhlinh/STM32Cube/Repository/STM32Cube_FW_F4_V1.28.0/Drivers/STM32F4xx_HAL_Driver/Src/stm32f4xx_hal_rcc.c ****           {
 508:/home/vtrnnhlinh/STM32Cube/Repository/STM32Cube_FW_F4_V1.28.0/Drivers/STM32F4xx_HAL_Driver/Src/stm32f4xx_hal_rcc.c ****             return HAL_TIMEOUT;
 906              		.loc 1 508 20 view .LVU265
 907 0448 0320     		movs	r0, #3
 908 044a 41E0     		b	.L3
 909              	.L114:
 509:/home/vtrnnhlinh/STM32Cube/Repository/STM32Cube_FW_F4_V1.28.0/Drivers/STM32F4xx_HAL_Driver/Src/stm32f4xx_hal_rcc.c ****           }
 510:/home/vtrnnhlinh/STM32Cube/Repository/STM32Cube_FW_F4_V1.28.0/Drivers/STM32F4xx_HAL_Driver/Src/stm32f4xx_hal_rcc.c ****         }
 511:/home/vtrnnhlinh/STM32Cube/Repository/STM32Cube_FW_F4_V1.28.0/Drivers/STM32F4xx_HAL_Driver/Src/stm32f4xx_hal_rcc.c ****       }
 512:/home/vtrnnhlinh/STM32Cube/Repository/STM32Cube_FW_F4_V1.28.0/Drivers/STM32F4xx_HAL_Driver/Src/stm32f4xx_hal_rcc.c ****       else
 513:/home/vtrnnhlinh/STM32Cube/Repository/STM32Cube_FW_F4_V1.28.0/Drivers/STM32F4xx_HAL_Driver/Src/stm32f4xx_hal_rcc.c ****       {
 514:/home/vtrnnhlinh/STM32Cube/Repository/STM32Cube_FW_F4_V1.28.0/Drivers/STM32F4xx_HAL_Driver/Src/stm32f4xx_hal_rcc.c ****         /* Disable the main PLL. */
 515:/home/vtrnnhlinh/STM32Cube/Repository/STM32Cube_FW_F4_V1.28.0/Drivers/STM32F4xx_HAL_Driver/Src/stm32f4xx_hal_rcc.c ****         __HAL_RCC_PLL_DISABLE();
 516:/home/vtrnnhlinh/STM32Cube/Repository/STM32Cube_FW_F4_V1.28.0/Drivers/STM32F4xx_HAL_Driver/Src/stm32f4xx_hal_rcc.c **** 
 517:/home/vtrnnhlinh/STM32Cube/Repository/STM32Cube_FW_F4_V1.28.0/Drivers/STM32F4xx_HAL_Driver/Src/stm32f4xx_hal_rcc.c ****         /* Get Start Tick */
 518:/home/vtrnnhlinh/STM32Cube/Repository/STM32Cube_FW_F4_V1.28.0/Drivers/STM32F4xx_HAL_Driver/Src/stm32f4xx_hal_rcc.c ****         tickstart = HAL_GetTick();
 519:/home/vtrnnhlinh/STM32Cube/Repository/STM32Cube_FW_F4_V1.28.0/Drivers/STM32F4xx_HAL_Driver/Src/stm32f4xx_hal_rcc.c **** 
 520:/home/vtrnnhlinh/STM32Cube/Repository/STM32Cube_FW_F4_V1.28.0/Drivers/STM32F4xx_HAL_Driver/Src/stm32f4xx_hal_rcc.c ****         /* Wait till PLL is disabled */
 521:/home/vtrnnhlinh/STM32Cube/Repository/STM32Cube_FW_F4_V1.28.0/Drivers/STM32F4xx_HAL_Driver/Src/stm32f4xx_hal_rcc.c ****         while(__HAL_RCC_GET_FLAG(RCC_FLAG_PLLRDY) != RESET)
 522:/home/vtrnnhlinh/STM32Cube/Repository/STM32Cube_FW_F4_V1.28.0/Drivers/STM32F4xx_HAL_Driver/Src/stm32f4xx_hal_rcc.c ****         {
 523:/home/vtrnnhlinh/STM32Cube/Repository/STM32Cube_FW_F4_V1.28.0/Drivers/STM32F4xx_HAL_Driver/Src/stm32f4xx_hal_rcc.c ****           if((HAL_GetTick() - tickstart ) > PLL_TIMEOUT_VALUE)
 524:/home/vtrnnhlinh/STM32Cube/Repository/STM32Cube_FW_F4_V1.28.0/Drivers/STM32F4xx_HAL_Driver/Src/stm32f4xx_hal_rcc.c ****           {
 525:/home/vtrnnhlinh/STM32Cube/Repository/STM32Cube_FW_F4_V1.28.0/Drivers/STM32F4xx_HAL_Driver/Src/stm32f4xx_hal_rcc.c ****             return HAL_TIMEOUT;
 526:/home/vtrnnhlinh/STM32Cube/Repository/STM32Cube_FW_F4_V1.28.0/Drivers/STM32F4xx_HAL_Driver/Src/stm32f4xx_hal_rcc.c ****           }
 527:/home/vtrnnhlinh/STM32Cube/Repository/STM32Cube_FW_F4_V1.28.0/Drivers/STM32F4xx_HAL_Driver/Src/stm32f4xx_hal_rcc.c ****         }
 528:/home/vtrnnhlinh/STM32Cube/Repository/STM32Cube_FW_F4_V1.28.0/Drivers/STM32F4xx_HAL_Driver/Src/stm32f4xx_hal_rcc.c ****       }
 529:/home/vtrnnhlinh/STM32Cube/Repository/STM32Cube_FW_F4_V1.28.0/Drivers/STM32F4xx_HAL_Driver/Src/stm32f4xx_hal_rcc.c ****     }
 530:/home/vtrnnhlinh/STM32Cube/Repository/STM32Cube_FW_F4_V1.28.0/Drivers/STM32F4xx_HAL_Driver/Src/stm32f4xx_hal_rcc.c ****     else
 531:/home/vtrnnhlinh/STM32Cube/Repository/STM32Cube_FW_F4_V1.28.0/Drivers/STM32F4xx_HAL_Driver/Src/stm32f4xx_hal_rcc.c ****     {
 532:/home/vtrnnhlinh/STM32Cube/Repository/STM32Cube_FW_F4_V1.28.0/Drivers/STM32F4xx_HAL_Driver/Src/stm32f4xx_hal_rcc.c ****       /* Check if there is a request to disable the PLL used as System clock source */
 533:/home/vtrnnhlinh/STM32Cube/Repository/STM32Cube_FW_F4_V1.28.0/Drivers/STM32F4xx_HAL_Driver/Src/stm32f4xx_hal_rcc.c ****       if((RCC_OscInitStruct->PLL.PLLState) == RCC_PLL_OFF)
 534:/home/vtrnnhlinh/STM32Cube/Repository/STM32Cube_FW_F4_V1.28.0/Drivers/STM32F4xx_HAL_Driver/Src/stm32f4xx_hal_rcc.c ****       {
 535:/home/vtrnnhlinh/STM32Cube/Repository/STM32Cube_FW_F4_V1.28.0/Drivers/STM32F4xx_HAL_Driver/Src/stm32f4xx_hal_rcc.c ****         return HAL_ERROR;
 536:/home/vtrnnhlinh/STM32Cube/Repository/STM32Cube_FW_F4_V1.28.0/Drivers/STM32F4xx_HAL_Driver/Src/stm32f4xx_hal_rcc.c ****       }
 537:/home/vtrnnhlinh/STM32Cube/Repository/STM32Cube_FW_F4_V1.28.0/Drivers/STM32F4xx_HAL_Driver/Src/stm32f4xx_hal_rcc.c ****       else
 538:/home/vtrnnhlinh/STM32Cube/Repository/STM32Cube_FW_F4_V1.28.0/Drivers/STM32F4xx_HAL_Driver/Src/stm32f4xx_hal_rcc.c ****       {
 539:/home/vtrnnhlinh/STM32Cube/Repository/STM32Cube_FW_F4_V1.28.0/Drivers/STM32F4xx_HAL_Driver/Src/stm32f4xx_hal_rcc.c ****         /* Do not return HAL_ERROR if request repeats the current configuration */
 540:/home/vtrnnhlinh/STM32Cube/Repository/STM32Cube_FW_F4_V1.28.0/Drivers/STM32F4xx_HAL_Driver/Src/stm32f4xx_hal_rcc.c ****         pll_config = RCC->PLLCFGR;
 541:/home/vtrnnhlinh/STM32Cube/Repository/STM32Cube_FW_F4_V1.28.0/Drivers/STM32F4xx_HAL_Driver/Src/stm32f4xx_hal_rcc.c **** #if defined (RCC_PLLCFGR_PLLR)
 542:/home/vtrnnhlinh/STM32Cube/Repository/STM32Cube_FW_F4_V1.28.0/Drivers/STM32F4xx_HAL_Driver/Src/stm32f4xx_hal_rcc.c ****         if (((RCC_OscInitStruct->PLL.PLLState) == RCC_PLL_OFF) ||
 543:/home/vtrnnhlinh/STM32Cube/Repository/STM32Cube_FW_F4_V1.28.0/Drivers/STM32F4xx_HAL_Driver/Src/stm32f4xx_hal_rcc.c ****             (READ_BIT(pll_config, RCC_PLLCFGR_PLLSRC) != RCC_OscInitStruct->PLL.PLLSource) ||
 544:/home/vtrnnhlinh/STM32Cube/Repository/STM32Cube_FW_F4_V1.28.0/Drivers/STM32F4xx_HAL_Driver/Src/stm32f4xx_hal_rcc.c ****             (READ_BIT(pll_config, RCC_PLLCFGR_PLLM) != (RCC_OscInitStruct->PLL.PLLM) << RCC_PLLCFGR
 545:/home/vtrnnhlinh/STM32Cube/Repository/STM32Cube_FW_F4_V1.28.0/Drivers/STM32F4xx_HAL_Driver/Src/stm32f4xx_hal_rcc.c ****             (READ_BIT(pll_config, RCC_PLLCFGR_PLLN) != (RCC_OscInitStruct->PLL.PLLN) << RCC_PLLCFGR
 546:/home/vtrnnhlinh/STM32Cube/Repository/STM32Cube_FW_F4_V1.28.0/Drivers/STM32F4xx_HAL_Driver/Src/stm32f4xx_hal_rcc.c ****             (READ_BIT(pll_config, RCC_PLLCFGR_PLLP) != (((RCC_OscInitStruct->PLL.PLLP >> 1U) - 1U))
ARM GAS  /tmp/ccz6Q3rQ.s 			page 28


 547:/home/vtrnnhlinh/STM32Cube/Repository/STM32Cube_FW_F4_V1.28.0/Drivers/STM32F4xx_HAL_Driver/Src/stm32f4xx_hal_rcc.c ****             (READ_BIT(pll_config, RCC_PLLCFGR_PLLQ) != (RCC_OscInitStruct->PLL.PLLQ << RCC_PLLCFGR_
 548:/home/vtrnnhlinh/STM32Cube/Repository/STM32Cube_FW_F4_V1.28.0/Drivers/STM32F4xx_HAL_Driver/Src/stm32f4xx_hal_rcc.c ****             (READ_BIT(pll_config, RCC_PLLCFGR_PLLR) != (RCC_OscInitStruct->PLL.PLLR << RCC_PLLCFGR_
 549:/home/vtrnnhlinh/STM32Cube/Repository/STM32Cube_FW_F4_V1.28.0/Drivers/STM32F4xx_HAL_Driver/Src/stm32f4xx_hal_rcc.c **** #else
 550:/home/vtrnnhlinh/STM32Cube/Repository/STM32Cube_FW_F4_V1.28.0/Drivers/STM32F4xx_HAL_Driver/Src/stm32f4xx_hal_rcc.c ****         if (((RCC_OscInitStruct->PLL.PLLState) == RCC_PLL_OFF) ||
 551:/home/vtrnnhlinh/STM32Cube/Repository/STM32Cube_FW_F4_V1.28.0/Drivers/STM32F4xx_HAL_Driver/Src/stm32f4xx_hal_rcc.c ****             (READ_BIT(pll_config, RCC_PLLCFGR_PLLSRC) != RCC_OscInitStruct->PLL.PLLSource) ||
 552:/home/vtrnnhlinh/STM32Cube/Repository/STM32Cube_FW_F4_V1.28.0/Drivers/STM32F4xx_HAL_Driver/Src/stm32f4xx_hal_rcc.c ****             (READ_BIT(pll_config, RCC_PLLCFGR_PLLM) != (RCC_OscInitStruct->PLL.PLLM) << RCC_PLLCFGR
 553:/home/vtrnnhlinh/STM32Cube/Repository/STM32Cube_FW_F4_V1.28.0/Drivers/STM32F4xx_HAL_Driver/Src/stm32f4xx_hal_rcc.c ****             (READ_BIT(pll_config, RCC_PLLCFGR_PLLN) != (RCC_OscInitStruct->PLL.PLLN) << RCC_PLLCFGR
 554:/home/vtrnnhlinh/STM32Cube/Repository/STM32Cube_FW_F4_V1.28.0/Drivers/STM32F4xx_HAL_Driver/Src/stm32f4xx_hal_rcc.c ****             (READ_BIT(pll_config, RCC_PLLCFGR_PLLP) != (((RCC_OscInitStruct->PLL.PLLP >> 1U) - 1U))
 555:/home/vtrnnhlinh/STM32Cube/Repository/STM32Cube_FW_F4_V1.28.0/Drivers/STM32F4xx_HAL_Driver/Src/stm32f4xx_hal_rcc.c ****             (READ_BIT(pll_config, RCC_PLLCFGR_PLLQ) != (RCC_OscInitStruct->PLL.PLLQ << RCC_PLLCFGR_
 556:/home/vtrnnhlinh/STM32Cube/Repository/STM32Cube_FW_F4_V1.28.0/Drivers/STM32F4xx_HAL_Driver/Src/stm32f4xx_hal_rcc.c **** #endif
 557:/home/vtrnnhlinh/STM32Cube/Repository/STM32Cube_FW_F4_V1.28.0/Drivers/STM32F4xx_HAL_Driver/Src/stm32f4xx_hal_rcc.c ****         {
 558:/home/vtrnnhlinh/STM32Cube/Repository/STM32Cube_FW_F4_V1.28.0/Drivers/STM32F4xx_HAL_Driver/Src/stm32f4xx_hal_rcc.c ****           return HAL_ERROR;
 559:/home/vtrnnhlinh/STM32Cube/Repository/STM32Cube_FW_F4_V1.28.0/Drivers/STM32F4xx_HAL_Driver/Src/stm32f4xx_hal_rcc.c ****         }
 560:/home/vtrnnhlinh/STM32Cube/Repository/STM32Cube_FW_F4_V1.28.0/Drivers/STM32F4xx_HAL_Driver/Src/stm32f4xx_hal_rcc.c ****       }
 561:/home/vtrnnhlinh/STM32Cube/Repository/STM32Cube_FW_F4_V1.28.0/Drivers/STM32F4xx_HAL_Driver/Src/stm32f4xx_hal_rcc.c ****     }
 562:/home/vtrnnhlinh/STM32Cube/Repository/STM32Cube_FW_F4_V1.28.0/Drivers/STM32F4xx_HAL_Driver/Src/stm32f4xx_hal_rcc.c ****   }
 563:/home/vtrnnhlinh/STM32Cube/Repository/STM32Cube_FW_F4_V1.28.0/Drivers/STM32F4xx_HAL_Driver/Src/stm32f4xx_hal_rcc.c ****   return HAL_OK;
 910              		.loc 1 563 10 view .LVU266
 911 044c 0020     		movs	r0, #0
 912 044e 3FE0     		b	.L3
 913              	.LVL64:
 914              	.L52:
 515:/home/vtrnnhlinh/STM32Cube/Repository/STM32Cube_FW_F4_V1.28.0/Drivers/STM32F4xx_HAL_Driver/Src/stm32f4xx_hal_rcc.c **** 
 915              		.loc 1 515 9 is_stmt 1 view .LVU267
 916 0450 254B     		ldr	r3, .L118+12
 917 0452 0022     		movs	r2, #0
 918 0454 1A66     		str	r2, [r3, #96]
 518:/home/vtrnnhlinh/STM32Cube/Repository/STM32Cube_FW_F4_V1.28.0/Drivers/STM32F4xx_HAL_Driver/Src/stm32f4xx_hal_rcc.c **** 
 919              		.loc 1 518 9 view .LVU268
 518:/home/vtrnnhlinh/STM32Cube/Repository/STM32Cube_FW_F4_V1.28.0/Drivers/STM32F4xx_HAL_Driver/Src/stm32f4xx_hal_rcc.c **** 
 920              		.loc 1 518 21 is_stmt 0 view .LVU269
 921 0456 FFF7FEFF 		bl	HAL_GetTick
 922              	.LVL65:
 923 045a 0446     		mov	r4, r0
 924              	.LVL66:
 521:/home/vtrnnhlinh/STM32Cube/Repository/STM32Cube_FW_F4_V1.28.0/Drivers/STM32F4xx_HAL_Driver/Src/stm32f4xx_hal_rcc.c ****         {
 925              		.loc 1 521 9 is_stmt 1 view .LVU270
 926              	.L62:
 521:/home/vtrnnhlinh/STM32Cube/Repository/STM32Cube_FW_F4_V1.28.0/Drivers/STM32F4xx_HAL_Driver/Src/stm32f4xx_hal_rcc.c ****         {
 927              		.loc 1 521 14 view .LVU271
 521:/home/vtrnnhlinh/STM32Cube/Repository/STM32Cube_FW_F4_V1.28.0/Drivers/STM32F4xx_HAL_Driver/Src/stm32f4xx_hal_rcc.c ****         {
 928              		.loc 1 521 15 is_stmt 0 view .LVU272
 929 045c 1F4B     		ldr	r3, .L118
 930 045e 1B68     		ldr	r3, [r3]
 521:/home/vtrnnhlinh/STM32Cube/Repository/STM32Cube_FW_F4_V1.28.0/Drivers/STM32F4xx_HAL_Driver/Src/stm32f4xx_hal_rcc.c ****         {
 931              		.loc 1 521 14 view .LVU273
 932 0460 13F0007F 		tst	r3, #33554432
 933 0464 06D0     		beq	.L115
 523:/home/vtrnnhlinh/STM32Cube/Repository/STM32Cube_FW_F4_V1.28.0/Drivers/STM32F4xx_HAL_Driver/Src/stm32f4xx_hal_rcc.c ****           {
 934              		.loc 1 523 11 is_stmt 1 view .LVU274
 523:/home/vtrnnhlinh/STM32Cube/Repository/STM32Cube_FW_F4_V1.28.0/Drivers/STM32F4xx_HAL_Driver/Src/stm32f4xx_hal_rcc.c ****           {
 935              		.loc 1 523 15 is_stmt 0 view .LVU275
 936 0466 FFF7FEFF 		bl	HAL_GetTick
 937              	.LVL67:
 523:/home/vtrnnhlinh/STM32Cube/Repository/STM32Cube_FW_F4_V1.28.0/Drivers/STM32F4xx_HAL_Driver/Src/stm32f4xx_hal_rcc.c ****           {
 938              		.loc 1 523 29 view .LVU276
 939 046a 001B     		subs	r0, r0, r4
ARM GAS  /tmp/ccz6Q3rQ.s 			page 29


 523:/home/vtrnnhlinh/STM32Cube/Repository/STM32Cube_FW_F4_V1.28.0/Drivers/STM32F4xx_HAL_Driver/Src/stm32f4xx_hal_rcc.c ****           {
 940              		.loc 1 523 13 view .LVU277
 941 046c 0228     		cmp	r0, #2
 942 046e F5D9     		bls	.L62
 525:/home/vtrnnhlinh/STM32Cube/Repository/STM32Cube_FW_F4_V1.28.0/Drivers/STM32F4xx_HAL_Driver/Src/stm32f4xx_hal_rcc.c ****           }
 943              		.loc 1 525 20 view .LVU278
 944 0470 0320     		movs	r0, #3
 945 0472 2DE0     		b	.L3
 946              	.L115:
 947              		.loc 1 563 10 view .LVU279
 948 0474 0020     		movs	r0, #0
 949 0476 2BE0     		b	.L3
 950              	.LVL68:
 951              	.L51:
 533:/home/vtrnnhlinh/STM32Cube/Repository/STM32Cube_FW_F4_V1.28.0/Drivers/STM32F4xx_HAL_Driver/Src/stm32f4xx_hal_rcc.c ****       {
 952              		.loc 1 533 7 is_stmt 1 view .LVU280
 533:/home/vtrnnhlinh/STM32Cube/Repository/STM32Cube_FW_F4_V1.28.0/Drivers/STM32F4xx_HAL_Driver/Src/stm32f4xx_hal_rcc.c ****       {
 953              		.loc 1 533 9 is_stmt 0 view .LVU281
 954 0478 012B     		cmp	r3, #1
 955 047a 2BD0     		beq	.L81
 540:/home/vtrnnhlinh/STM32Cube/Repository/STM32Cube_FW_F4_V1.28.0/Drivers/STM32F4xx_HAL_Driver/Src/stm32f4xx_hal_rcc.c **** #if defined (RCC_PLLCFGR_PLLR)
 956              		.loc 1 540 9 is_stmt 1 view .LVU282
 540:/home/vtrnnhlinh/STM32Cube/Repository/STM32Cube_FW_F4_V1.28.0/Drivers/STM32F4xx_HAL_Driver/Src/stm32f4xx_hal_rcc.c **** #if defined (RCC_PLLCFGR_PLLR)
 957              		.loc 1 540 20 is_stmt 0 view .LVU283
 958 047c 174B     		ldr	r3, .L118
 959 047e 5B68     		ldr	r3, [r3, #4]
 960              	.LVL69:
 550:/home/vtrnnhlinh/STM32Cube/Repository/STM32Cube_FW_F4_V1.28.0/Drivers/STM32F4xx_HAL_Driver/Src/stm32f4xx_hal_rcc.c ****             (READ_BIT(pll_config, RCC_PLLCFGR_PLLSRC) != RCC_OscInitStruct->PLL.PLLSource) ||
 961              		.loc 1 550 9 is_stmt 1 view .LVU284
 551:/home/vtrnnhlinh/STM32Cube/Repository/STM32Cube_FW_F4_V1.28.0/Drivers/STM32F4xx_HAL_Driver/Src/stm32f4xx_hal_rcc.c ****             (READ_BIT(pll_config, RCC_PLLCFGR_PLLM) != (RCC_OscInitStruct->PLL.PLLM) << RCC_PLLCFGR
 962              		.loc 1 551 14 is_stmt 0 view .LVU285
 963 0480 03F48001 		and	r1, r3, #4194304
 551:/home/vtrnnhlinh/STM32Cube/Repository/STM32Cube_FW_F4_V1.28.0/Drivers/STM32F4xx_HAL_Driver/Src/stm32f4xx_hal_rcc.c ****             (READ_BIT(pll_config, RCC_PLLCFGR_PLLM) != (RCC_OscInitStruct->PLL.PLLM) << RCC_PLLCFGR
 964              		.loc 1 551 80 view .LVU286
 965 0484 E269     		ldr	r2, [r4, #28]
 550:/home/vtrnnhlinh/STM32Cube/Repository/STM32Cube_FW_F4_V1.28.0/Drivers/STM32F4xx_HAL_Driver/Src/stm32f4xx_hal_rcc.c ****             (READ_BIT(pll_config, RCC_PLLCFGR_PLLSRC) != RCC_OscInitStruct->PLL.PLLSource) ||
 966              		.loc 1 550 64 view .LVU287
 967 0486 9142     		cmp	r1, r2
 968 0488 26D1     		bne	.L82
 552:/home/vtrnnhlinh/STM32Cube/Repository/STM32Cube_FW_F4_V1.28.0/Drivers/STM32F4xx_HAL_Driver/Src/stm32f4xx_hal_rcc.c ****             (READ_BIT(pll_config, RCC_PLLCFGR_PLLN) != (RCC_OscInitStruct->PLL.PLLN) << RCC_PLLCFGR
 969              		.loc 1 552 14 view .LVU288
 970 048a 03F03F02 		and	r2, r3, #63
 552:/home/vtrnnhlinh/STM32Cube/Repository/STM32Cube_FW_F4_V1.28.0/Drivers/STM32F4xx_HAL_Driver/Src/stm32f4xx_hal_rcc.c ****             (READ_BIT(pll_config, RCC_PLLCFGR_PLLN) != (RCC_OscInitStruct->PLL.PLLN) << RCC_PLLCFGR
 971              		.loc 1 552 86 view .LVU289
 972 048e 216A     		ldr	r1, [r4, #32]
 551:/home/vtrnnhlinh/STM32Cube/Repository/STM32Cube_FW_F4_V1.28.0/Drivers/STM32F4xx_HAL_Driver/Src/stm32f4xx_hal_rcc.c ****             (READ_BIT(pll_config, RCC_PLLCFGR_PLLM) != (RCC_OscInitStruct->PLL.PLLM) << RCC_PLLCFGR
 973              		.loc 1 551 92 view .LVU290
 974 0490 8A42     		cmp	r2, r1
 975 0492 2BD1     		bne	.L83
 553:/home/vtrnnhlinh/STM32Cube/Repository/STM32Cube_FW_F4_V1.28.0/Drivers/STM32F4xx_HAL_Driver/Src/stm32f4xx_hal_rcc.c ****             (READ_BIT(pll_config, RCC_PLLCFGR_PLLP) != (((RCC_OscInitStruct->PLL.PLLP >> 1U) - 1U))
 976              		.loc 1 553 79 view .LVU291
 977 0494 616A     		ldr	r1, [r4, #36]
 552:/home/vtrnnhlinh/STM32Cube/Repository/STM32Cube_FW_F4_V1.28.0/Drivers/STM32F4xx_HAL_Driver/Src/stm32f4xx_hal_rcc.c ****             (READ_BIT(pll_config, RCC_PLLCFGR_PLLN) != (RCC_OscInitStruct->PLL.PLLN) << RCC_PLLCFGR
 978              		.loc 1 552 111 view .LVU292
 979 0496 47F6C072 		movw	r2, #32704
 980 049a 1A40     		ands	r2, r2, r3
 981 049c B2EB811F 		cmp	r2, r1, lsl #6
ARM GAS  /tmp/ccz6Q3rQ.s 			page 30


 982 04a0 26D1     		bne	.L84
 554:/home/vtrnnhlinh/STM32Cube/Repository/STM32Cube_FW_F4_V1.28.0/Drivers/STM32F4xx_HAL_Driver/Src/stm32f4xx_hal_rcc.c ****             (READ_BIT(pll_config, RCC_PLLCFGR_PLLQ) != (RCC_OscInitStruct->PLL.PLLQ << RCC_PLLCFGR_
 983              		.loc 1 554 14 view .LVU293
 984 04a2 03F44031 		and	r1, r3, #196608
 554:/home/vtrnnhlinh/STM32Cube/Repository/STM32Cube_FW_F4_V1.28.0/Drivers/STM32F4xx_HAL_Driver/Src/stm32f4xx_hal_rcc.c ****             (READ_BIT(pll_config, RCC_PLLCFGR_PLLQ) != (RCC_OscInitStruct->PLL.PLLQ << RCC_PLLCFGR_
 985              		.loc 1 554 81 view .LVU294
 986 04a6 A26A     		ldr	r2, [r4, #40]
 554:/home/vtrnnhlinh/STM32Cube/Repository/STM32Cube_FW_F4_V1.28.0/Drivers/STM32F4xx_HAL_Driver/Src/stm32f4xx_hal_rcc.c ****             (READ_BIT(pll_config, RCC_PLLCFGR_PLLQ) != (RCC_OscInitStruct->PLL.PLLQ << RCC_PLLCFGR_
 987              		.loc 1 554 87 view .LVU295
 988 04a8 5208     		lsrs	r2, r2, #1
 554:/home/vtrnnhlinh/STM32Cube/Repository/STM32Cube_FW_F4_V1.28.0/Drivers/STM32F4xx_HAL_Driver/Src/stm32f4xx_hal_rcc.c ****             (READ_BIT(pll_config, RCC_PLLCFGR_PLLQ) != (RCC_OscInitStruct->PLL.PLLQ << RCC_PLLCFGR_
 989              		.loc 1 554 94 view .LVU296
 990 04aa 013A     		subs	r2, r2, #1
 553:/home/vtrnnhlinh/STM32Cube/Repository/STM32Cube_FW_F4_V1.28.0/Drivers/STM32F4xx_HAL_Driver/Src/stm32f4xx_hal_rcc.c ****             (READ_BIT(pll_config, RCC_PLLCFGR_PLLP) != (((RCC_OscInitStruct->PLL.PLLP >> 1U) - 1U))
 991              		.loc 1 553 111 view .LVU297
 992 04ac B1EB024F 		cmp	r1, r2, lsl #16
 993 04b0 20D1     		bne	.L85
 555:/home/vtrnnhlinh/STM32Cube/Repository/STM32Cube_FW_F4_V1.28.0/Drivers/STM32F4xx_HAL_Driver/Src/stm32f4xx_hal_rcc.c **** #endif
 994              		.loc 1 555 14 view .LVU298
 995 04b2 03F07063 		and	r3, r3, #251658240
 996              	.LVL70:
 555:/home/vtrnnhlinh/STM32Cube/Repository/STM32Cube_FW_F4_V1.28.0/Drivers/STM32F4xx_HAL_Driver/Src/stm32f4xx_hal_rcc.c **** #endif
 997              		.loc 1 555 79 view .LVU299
 998 04b6 E26A     		ldr	r2, [r4, #44]
 554:/home/vtrnnhlinh/STM32Cube/Repository/STM32Cube_FW_F4_V1.28.0/Drivers/STM32F4xx_HAL_Driver/Src/stm32f4xx_hal_rcc.c ****             (READ_BIT(pll_config, RCC_PLLCFGR_PLLQ) != (RCC_OscInitStruct->PLL.PLLQ << RCC_PLLCFGR_
 999              		.loc 1 554 126 view .LVU300
 1000 04b8 B3EB026F 		cmp	r3, r2, lsl #24
 1001 04bc 1CD1     		bne	.L86
 1002              		.loc 1 563 10 view .LVU301
 1003 04be 0020     		movs	r0, #0
 1004 04c0 06E0     		b	.L3
 1005              	.LVL71:
 1006              	.L64:
 1007              	.LCFI2:
 1008              		.cfi_def_cfa_offset 0
 1009              		.cfi_restore 4
 1010              		.cfi_restore 5
 1011              		.cfi_restore 6
 1012              		.cfi_restore 14
 226:/home/vtrnnhlinh/STM32Cube/Repository/STM32Cube_FW_F4_V1.28.0/Drivers/STM32F4xx_HAL_Driver/Src/stm32f4xx_hal_rcc.c ****   }
 1013              		.loc 1 226 12 view .LVU302
 1014 04c2 0120     		movs	r0, #1
 1015              	.LVL72:
 564:/home/vtrnnhlinh/STM32Cube/Repository/STM32Cube_FW_F4_V1.28.0/Drivers/STM32F4xx_HAL_Driver/Src/stm32f4xx_hal_rcc.c **** }
 1016              		.loc 1 564 1 view .LVU303
 1017 04c4 7047     		bx	lr
 1018              	.LVL73:
 1019              	.L96:
 1020              	.LCFI3:
 1021              		.cfi_def_cfa_offset 24
 1022              		.cfi_offset 4, -16
 1023              		.cfi_offset 5, -12
 1024              		.cfi_offset 6, -8
 1025              		.cfi_offset 14, -4
 242:/home/vtrnnhlinh/STM32Cube/Repository/STM32Cube_FW_F4_V1.28.0/Drivers/STM32F4xx_HAL_Driver/Src/stm32f4xx_hal_rcc.c ****       }
 1026              		.loc 1 242 16 view .LVU304
 1027 04c6 0120     		movs	r0, #1
ARM GAS  /tmp/ccz6Q3rQ.s 			page 31


 1028 04c8 02E0     		b	.L3
 1029              	.L68:
 295:/home/vtrnnhlinh/STM32Cube/Repository/STM32Cube_FW_F4_V1.28.0/Drivers/STM32F4xx_HAL_Driver/Src/stm32f4xx_hal_rcc.c ****       }
 1030              		.loc 1 295 16 view .LVU305
 1031 04ca 0120     		movs	r0, #1
 1032 04cc 00E0     		b	.L3
 1033              	.L77:
 563:/home/vtrnnhlinh/STM32Cube/Repository/STM32Cube_FW_F4_V1.28.0/Drivers/STM32F4xx_HAL_Driver/Src/stm32f4xx_hal_rcc.c **** }
 1034              		.loc 1 563 10 view .LVU306
 1035 04ce 0020     		movs	r0, #0
 1036              	.LVL74:
 1037              	.L3:
 1038              		.loc 1 564 1 view .LVU307
 1039 04d0 02B0     		add	sp, sp, #8
 1040              	.LCFI4:
 1041              		.cfi_remember_state
 1042              		.cfi_def_cfa_offset 16
 1043              		@ sp needed
 1044 04d2 70BD     		pop	{r4, r5, r6, pc}
 1045              	.LVL75:
 1046              	.L81:
 1047              	.LCFI5:
 1048              		.cfi_restore_state
 535:/home/vtrnnhlinh/STM32Cube/Repository/STM32Cube_FW_F4_V1.28.0/Drivers/STM32F4xx_HAL_Driver/Src/stm32f4xx_hal_rcc.c ****       }
 1049              		.loc 1 535 16 view .LVU308
 1050 04d4 0120     		movs	r0, #1
 1051 04d6 FBE7     		b	.L3
 1052              	.LVL76:
 1053              	.L82:
 558:/home/vtrnnhlinh/STM32Cube/Repository/STM32Cube_FW_F4_V1.28.0/Drivers/STM32F4xx_HAL_Driver/Src/stm32f4xx_hal_rcc.c ****         }
 1054              		.loc 1 558 18 view .LVU309
 1055 04d8 0120     		movs	r0, #1
 1056 04da F9E7     		b	.L3
 1057              	.L119:
 1058              		.align	2
 1059              	.L118:
 1060 04dc 00380240 		.word	1073887232
 1061 04e0 00700040 		.word	1073770496
 1062 04e4 00000000 		.word	.LC0
 1063 04e8 00004742 		.word	1111949312
 1064              	.L83:
 1065 04ec 0120     		movs	r0, #1
 1066 04ee EFE7     		b	.L3
 1067              	.L84:
 1068 04f0 0120     		movs	r0, #1
 1069 04f2 EDE7     		b	.L3
 1070              	.L85:
 1071 04f4 0120     		movs	r0, #1
 1072 04f6 EBE7     		b	.L3
 1073              	.LVL77:
 1074              	.L86:
 558:/home/vtrnnhlinh/STM32Cube/Repository/STM32Cube_FW_F4_V1.28.0/Drivers/STM32F4xx_HAL_Driver/Src/stm32f4xx_hal_rcc.c ****         }
 1075              		.loc 1 558 18 view .LVU310
 1076 04f8 0120     		movs	r0, #1
 1077 04fa E9E7     		b	.L3
 1078              		.cfi_endproc
 1079              	.LFE135:
ARM GAS  /tmp/ccz6Q3rQ.s 			page 32


 1081              		.section	.text.HAL_RCC_MCOConfig,"ax",%progbits
 1082              		.align	1
 1083              		.global	HAL_RCC_MCOConfig
 1084              		.syntax unified
 1085              		.thumb
 1086              		.thumb_func
 1087              		.fpu fpv4-sp-d16
 1089              	HAL_RCC_MCOConfig:
 1090              	.LVL78:
 1091              	.LFB137:
 565:/home/vtrnnhlinh/STM32Cube/Repository/STM32Cube_FW_F4_V1.28.0/Drivers/STM32F4xx_HAL_Driver/Src/stm32f4xx_hal_rcc.c **** 
 566:/home/vtrnnhlinh/STM32Cube/Repository/STM32Cube_FW_F4_V1.28.0/Drivers/STM32F4xx_HAL_Driver/Src/stm32f4xx_hal_rcc.c **** /**
 567:/home/vtrnnhlinh/STM32Cube/Repository/STM32Cube_FW_F4_V1.28.0/Drivers/STM32F4xx_HAL_Driver/Src/stm32f4xx_hal_rcc.c ****   * @brief  Initializes the CPU, AHB and APB busses clocks according to the specified
 568:/home/vtrnnhlinh/STM32Cube/Repository/STM32Cube_FW_F4_V1.28.0/Drivers/STM32F4xx_HAL_Driver/Src/stm32f4xx_hal_rcc.c ****   *         parameters in the RCC_ClkInitStruct.
 569:/home/vtrnnhlinh/STM32Cube/Repository/STM32Cube_FW_F4_V1.28.0/Drivers/STM32F4xx_HAL_Driver/Src/stm32f4xx_hal_rcc.c ****   * @param  RCC_ClkInitStruct pointer to an RCC_OscInitTypeDef structure that
 570:/home/vtrnnhlinh/STM32Cube/Repository/STM32Cube_FW_F4_V1.28.0/Drivers/STM32F4xx_HAL_Driver/Src/stm32f4xx_hal_rcc.c ****   *         contains the configuration information for the RCC peripheral.
 571:/home/vtrnnhlinh/STM32Cube/Repository/STM32Cube_FW_F4_V1.28.0/Drivers/STM32F4xx_HAL_Driver/Src/stm32f4xx_hal_rcc.c ****   * @param  FLatency FLASH Latency, this parameter depend on device selected
 572:/home/vtrnnhlinh/STM32Cube/Repository/STM32Cube_FW_F4_V1.28.0/Drivers/STM32F4xx_HAL_Driver/Src/stm32f4xx_hal_rcc.c ****   *
 573:/home/vtrnnhlinh/STM32Cube/Repository/STM32Cube_FW_F4_V1.28.0/Drivers/STM32F4xx_HAL_Driver/Src/stm32f4xx_hal_rcc.c ****   * @note   The SystemCoreClock CMSIS variable is used to store System Clock Frequency
 574:/home/vtrnnhlinh/STM32Cube/Repository/STM32Cube_FW_F4_V1.28.0/Drivers/STM32F4xx_HAL_Driver/Src/stm32f4xx_hal_rcc.c ****   *         and updated by HAL_RCC_GetHCLKFreq() function called within this function
 575:/home/vtrnnhlinh/STM32Cube/Repository/STM32Cube_FW_F4_V1.28.0/Drivers/STM32F4xx_HAL_Driver/Src/stm32f4xx_hal_rcc.c ****   *
 576:/home/vtrnnhlinh/STM32Cube/Repository/STM32Cube_FW_F4_V1.28.0/Drivers/STM32F4xx_HAL_Driver/Src/stm32f4xx_hal_rcc.c ****   * @note   The HSI is used (enabled by hardware) as system clock source after
 577:/home/vtrnnhlinh/STM32Cube/Repository/STM32Cube_FW_F4_V1.28.0/Drivers/STM32F4xx_HAL_Driver/Src/stm32f4xx_hal_rcc.c ****   *         startup from Reset, wake-up from STOP and STANDBY mode, or in case
 578:/home/vtrnnhlinh/STM32Cube/Repository/STM32Cube_FW_F4_V1.28.0/Drivers/STM32F4xx_HAL_Driver/Src/stm32f4xx_hal_rcc.c ****   *         of failure of the HSE used directly or indirectly as system clock
 579:/home/vtrnnhlinh/STM32Cube/Repository/STM32Cube_FW_F4_V1.28.0/Drivers/STM32F4xx_HAL_Driver/Src/stm32f4xx_hal_rcc.c ****   *         (if the Clock Security System CSS is enabled).
 580:/home/vtrnnhlinh/STM32Cube/Repository/STM32Cube_FW_F4_V1.28.0/Drivers/STM32F4xx_HAL_Driver/Src/stm32f4xx_hal_rcc.c ****   *
 581:/home/vtrnnhlinh/STM32Cube/Repository/STM32Cube_FW_F4_V1.28.0/Drivers/STM32F4xx_HAL_Driver/Src/stm32f4xx_hal_rcc.c ****   * @note   A switch from one clock source to another occurs only if the target
 582:/home/vtrnnhlinh/STM32Cube/Repository/STM32Cube_FW_F4_V1.28.0/Drivers/STM32F4xx_HAL_Driver/Src/stm32f4xx_hal_rcc.c ****   *         clock source is ready (clock stable after startup delay or PLL locked).
 583:/home/vtrnnhlinh/STM32Cube/Repository/STM32Cube_FW_F4_V1.28.0/Drivers/STM32F4xx_HAL_Driver/Src/stm32f4xx_hal_rcc.c ****   *         If a clock source which is not yet ready is selected, the switch will
 584:/home/vtrnnhlinh/STM32Cube/Repository/STM32Cube_FW_F4_V1.28.0/Drivers/STM32F4xx_HAL_Driver/Src/stm32f4xx_hal_rcc.c ****   *         occur when the clock source will be ready.
 585:/home/vtrnnhlinh/STM32Cube/Repository/STM32Cube_FW_F4_V1.28.0/Drivers/STM32F4xx_HAL_Driver/Src/stm32f4xx_hal_rcc.c ****   *
 586:/home/vtrnnhlinh/STM32Cube/Repository/STM32Cube_FW_F4_V1.28.0/Drivers/STM32F4xx_HAL_Driver/Src/stm32f4xx_hal_rcc.c ****   * @note   Depending on the device voltage range, the software has to set correctly
 587:/home/vtrnnhlinh/STM32Cube/Repository/STM32Cube_FW_F4_V1.28.0/Drivers/STM32F4xx_HAL_Driver/Src/stm32f4xx_hal_rcc.c ****   *         HPRE[3:0] bits to ensure that HCLK not exceed the maximum allowed frequency
 588:/home/vtrnnhlinh/STM32Cube/Repository/STM32Cube_FW_F4_V1.28.0/Drivers/STM32F4xx_HAL_Driver/Src/stm32f4xx_hal_rcc.c ****   *         (for more details refer to section above "Initialization/de-initialization functions")
 589:/home/vtrnnhlinh/STM32Cube/Repository/STM32Cube_FW_F4_V1.28.0/Drivers/STM32F4xx_HAL_Driver/Src/stm32f4xx_hal_rcc.c ****   * @retval None
 590:/home/vtrnnhlinh/STM32Cube/Repository/STM32Cube_FW_F4_V1.28.0/Drivers/STM32F4xx_HAL_Driver/Src/stm32f4xx_hal_rcc.c ****   */
 591:/home/vtrnnhlinh/STM32Cube/Repository/STM32Cube_FW_F4_V1.28.0/Drivers/STM32F4xx_HAL_Driver/Src/stm32f4xx_hal_rcc.c **** HAL_StatusTypeDef HAL_RCC_ClockConfig(RCC_ClkInitTypeDef  *RCC_ClkInitStruct, uint32_t FLatency)
 592:/home/vtrnnhlinh/STM32Cube/Repository/STM32Cube_FW_F4_V1.28.0/Drivers/STM32F4xx_HAL_Driver/Src/stm32f4xx_hal_rcc.c **** {
 593:/home/vtrnnhlinh/STM32Cube/Repository/STM32Cube_FW_F4_V1.28.0/Drivers/STM32F4xx_HAL_Driver/Src/stm32f4xx_hal_rcc.c ****   uint32_t tickstart;
 594:/home/vtrnnhlinh/STM32Cube/Repository/STM32Cube_FW_F4_V1.28.0/Drivers/STM32F4xx_HAL_Driver/Src/stm32f4xx_hal_rcc.c **** 
 595:/home/vtrnnhlinh/STM32Cube/Repository/STM32Cube_FW_F4_V1.28.0/Drivers/STM32F4xx_HAL_Driver/Src/stm32f4xx_hal_rcc.c ****   /* Check Null pointer */
 596:/home/vtrnnhlinh/STM32Cube/Repository/STM32Cube_FW_F4_V1.28.0/Drivers/STM32F4xx_HAL_Driver/Src/stm32f4xx_hal_rcc.c ****   if(RCC_ClkInitStruct == NULL)
 597:/home/vtrnnhlinh/STM32Cube/Repository/STM32Cube_FW_F4_V1.28.0/Drivers/STM32F4xx_HAL_Driver/Src/stm32f4xx_hal_rcc.c ****   {
 598:/home/vtrnnhlinh/STM32Cube/Repository/STM32Cube_FW_F4_V1.28.0/Drivers/STM32F4xx_HAL_Driver/Src/stm32f4xx_hal_rcc.c ****     return HAL_ERROR;
 599:/home/vtrnnhlinh/STM32Cube/Repository/STM32Cube_FW_F4_V1.28.0/Drivers/STM32F4xx_HAL_Driver/Src/stm32f4xx_hal_rcc.c ****   }
 600:/home/vtrnnhlinh/STM32Cube/Repository/STM32Cube_FW_F4_V1.28.0/Drivers/STM32F4xx_HAL_Driver/Src/stm32f4xx_hal_rcc.c **** 
 601:/home/vtrnnhlinh/STM32Cube/Repository/STM32Cube_FW_F4_V1.28.0/Drivers/STM32F4xx_HAL_Driver/Src/stm32f4xx_hal_rcc.c ****   /* Check the parameters */
 602:/home/vtrnnhlinh/STM32Cube/Repository/STM32Cube_FW_F4_V1.28.0/Drivers/STM32F4xx_HAL_Driver/Src/stm32f4xx_hal_rcc.c ****   assert_param(IS_RCC_CLOCKTYPE(RCC_ClkInitStruct->ClockType));
 603:/home/vtrnnhlinh/STM32Cube/Repository/STM32Cube_FW_F4_V1.28.0/Drivers/STM32F4xx_HAL_Driver/Src/stm32f4xx_hal_rcc.c ****   assert_param(IS_FLASH_LATENCY(FLatency));
 604:/home/vtrnnhlinh/STM32Cube/Repository/STM32Cube_FW_F4_V1.28.0/Drivers/STM32F4xx_HAL_Driver/Src/stm32f4xx_hal_rcc.c **** 
 605:/home/vtrnnhlinh/STM32Cube/Repository/STM32Cube_FW_F4_V1.28.0/Drivers/STM32F4xx_HAL_Driver/Src/stm32f4xx_hal_rcc.c ****   /* To correctly read data from FLASH memory, the number of wait states (LATENCY)
 606:/home/vtrnnhlinh/STM32Cube/Repository/STM32Cube_FW_F4_V1.28.0/Drivers/STM32F4xx_HAL_Driver/Src/stm32f4xx_hal_rcc.c ****     must be correctly programmed according to the frequency of the CPU clock
 607:/home/vtrnnhlinh/STM32Cube/Repository/STM32Cube_FW_F4_V1.28.0/Drivers/STM32F4xx_HAL_Driver/Src/stm32f4xx_hal_rcc.c ****     (HCLK) and the supply voltage of the device. */
 608:/home/vtrnnhlinh/STM32Cube/Repository/STM32Cube_FW_F4_V1.28.0/Drivers/STM32F4xx_HAL_Driver/Src/stm32f4xx_hal_rcc.c **** 
 609:/home/vtrnnhlinh/STM32Cube/Repository/STM32Cube_FW_F4_V1.28.0/Drivers/STM32F4xx_HAL_Driver/Src/stm32f4xx_hal_rcc.c ****   /* Increasing the number of wait states because of higher CPU frequency */
 610:/home/vtrnnhlinh/STM32Cube/Repository/STM32Cube_FW_F4_V1.28.0/Drivers/STM32F4xx_HAL_Driver/Src/stm32f4xx_hal_rcc.c ****   if(FLatency > __HAL_FLASH_GET_LATENCY())
 611:/home/vtrnnhlinh/STM32Cube/Repository/STM32Cube_FW_F4_V1.28.0/Drivers/STM32F4xx_HAL_Driver/Src/stm32f4xx_hal_rcc.c ****   {
ARM GAS  /tmp/ccz6Q3rQ.s 			page 33


 612:/home/vtrnnhlinh/STM32Cube/Repository/STM32Cube_FW_F4_V1.28.0/Drivers/STM32F4xx_HAL_Driver/Src/stm32f4xx_hal_rcc.c ****     /* Program the new number of wait states to the LATENCY bits in the FLASH_ACR register */
 613:/home/vtrnnhlinh/STM32Cube/Repository/STM32Cube_FW_F4_V1.28.0/Drivers/STM32F4xx_HAL_Driver/Src/stm32f4xx_hal_rcc.c ****     __HAL_FLASH_SET_LATENCY(FLatency);
 614:/home/vtrnnhlinh/STM32Cube/Repository/STM32Cube_FW_F4_V1.28.0/Drivers/STM32F4xx_HAL_Driver/Src/stm32f4xx_hal_rcc.c **** 
 615:/home/vtrnnhlinh/STM32Cube/Repository/STM32Cube_FW_F4_V1.28.0/Drivers/STM32F4xx_HAL_Driver/Src/stm32f4xx_hal_rcc.c ****     /* Check that the new number of wait states is taken into account to access the Flash
 616:/home/vtrnnhlinh/STM32Cube/Repository/STM32Cube_FW_F4_V1.28.0/Drivers/STM32F4xx_HAL_Driver/Src/stm32f4xx_hal_rcc.c ****     memory by reading the FLASH_ACR register */
 617:/home/vtrnnhlinh/STM32Cube/Repository/STM32Cube_FW_F4_V1.28.0/Drivers/STM32F4xx_HAL_Driver/Src/stm32f4xx_hal_rcc.c ****     if(__HAL_FLASH_GET_LATENCY() != FLatency)
 618:/home/vtrnnhlinh/STM32Cube/Repository/STM32Cube_FW_F4_V1.28.0/Drivers/STM32F4xx_HAL_Driver/Src/stm32f4xx_hal_rcc.c ****     {
 619:/home/vtrnnhlinh/STM32Cube/Repository/STM32Cube_FW_F4_V1.28.0/Drivers/STM32F4xx_HAL_Driver/Src/stm32f4xx_hal_rcc.c ****       return HAL_ERROR;
 620:/home/vtrnnhlinh/STM32Cube/Repository/STM32Cube_FW_F4_V1.28.0/Drivers/STM32F4xx_HAL_Driver/Src/stm32f4xx_hal_rcc.c ****     }
 621:/home/vtrnnhlinh/STM32Cube/Repository/STM32Cube_FW_F4_V1.28.0/Drivers/STM32F4xx_HAL_Driver/Src/stm32f4xx_hal_rcc.c ****   }
 622:/home/vtrnnhlinh/STM32Cube/Repository/STM32Cube_FW_F4_V1.28.0/Drivers/STM32F4xx_HAL_Driver/Src/stm32f4xx_hal_rcc.c **** 
 623:/home/vtrnnhlinh/STM32Cube/Repository/STM32Cube_FW_F4_V1.28.0/Drivers/STM32F4xx_HAL_Driver/Src/stm32f4xx_hal_rcc.c ****   /*-------------------------- HCLK Configuration --------------------------*/
 624:/home/vtrnnhlinh/STM32Cube/Repository/STM32Cube_FW_F4_V1.28.0/Drivers/STM32F4xx_HAL_Driver/Src/stm32f4xx_hal_rcc.c ****   if(((RCC_ClkInitStruct->ClockType) & RCC_CLOCKTYPE_HCLK) == RCC_CLOCKTYPE_HCLK)
 625:/home/vtrnnhlinh/STM32Cube/Repository/STM32Cube_FW_F4_V1.28.0/Drivers/STM32F4xx_HAL_Driver/Src/stm32f4xx_hal_rcc.c ****   {
 626:/home/vtrnnhlinh/STM32Cube/Repository/STM32Cube_FW_F4_V1.28.0/Drivers/STM32F4xx_HAL_Driver/Src/stm32f4xx_hal_rcc.c ****     /* Set the highest APBx dividers in order to ensure that we do not go through
 627:/home/vtrnnhlinh/STM32Cube/Repository/STM32Cube_FW_F4_V1.28.0/Drivers/STM32F4xx_HAL_Driver/Src/stm32f4xx_hal_rcc.c ****        a non-spec phase whatever we decrease or increase HCLK. */
 628:/home/vtrnnhlinh/STM32Cube/Repository/STM32Cube_FW_F4_V1.28.0/Drivers/STM32F4xx_HAL_Driver/Src/stm32f4xx_hal_rcc.c ****     if(((RCC_ClkInitStruct->ClockType) & RCC_CLOCKTYPE_PCLK1) == RCC_CLOCKTYPE_PCLK1)
 629:/home/vtrnnhlinh/STM32Cube/Repository/STM32Cube_FW_F4_V1.28.0/Drivers/STM32F4xx_HAL_Driver/Src/stm32f4xx_hal_rcc.c ****     {
 630:/home/vtrnnhlinh/STM32Cube/Repository/STM32Cube_FW_F4_V1.28.0/Drivers/STM32F4xx_HAL_Driver/Src/stm32f4xx_hal_rcc.c ****       MODIFY_REG(RCC->CFGR, RCC_CFGR_PPRE1, RCC_HCLK_DIV16);
 631:/home/vtrnnhlinh/STM32Cube/Repository/STM32Cube_FW_F4_V1.28.0/Drivers/STM32F4xx_HAL_Driver/Src/stm32f4xx_hal_rcc.c ****     }
 632:/home/vtrnnhlinh/STM32Cube/Repository/STM32Cube_FW_F4_V1.28.0/Drivers/STM32F4xx_HAL_Driver/Src/stm32f4xx_hal_rcc.c **** 
 633:/home/vtrnnhlinh/STM32Cube/Repository/STM32Cube_FW_F4_V1.28.0/Drivers/STM32F4xx_HAL_Driver/Src/stm32f4xx_hal_rcc.c ****     if(((RCC_ClkInitStruct->ClockType) & RCC_CLOCKTYPE_PCLK2) == RCC_CLOCKTYPE_PCLK2)
 634:/home/vtrnnhlinh/STM32Cube/Repository/STM32Cube_FW_F4_V1.28.0/Drivers/STM32F4xx_HAL_Driver/Src/stm32f4xx_hal_rcc.c ****     {
 635:/home/vtrnnhlinh/STM32Cube/Repository/STM32Cube_FW_F4_V1.28.0/Drivers/STM32F4xx_HAL_Driver/Src/stm32f4xx_hal_rcc.c ****       MODIFY_REG(RCC->CFGR, RCC_CFGR_PPRE2, (RCC_HCLK_DIV16 << 3));
 636:/home/vtrnnhlinh/STM32Cube/Repository/STM32Cube_FW_F4_V1.28.0/Drivers/STM32F4xx_HAL_Driver/Src/stm32f4xx_hal_rcc.c ****     }
 637:/home/vtrnnhlinh/STM32Cube/Repository/STM32Cube_FW_F4_V1.28.0/Drivers/STM32F4xx_HAL_Driver/Src/stm32f4xx_hal_rcc.c **** 
 638:/home/vtrnnhlinh/STM32Cube/Repository/STM32Cube_FW_F4_V1.28.0/Drivers/STM32F4xx_HAL_Driver/Src/stm32f4xx_hal_rcc.c ****     assert_param(IS_RCC_HCLK(RCC_ClkInitStruct->AHBCLKDivider));
 639:/home/vtrnnhlinh/STM32Cube/Repository/STM32Cube_FW_F4_V1.28.0/Drivers/STM32F4xx_HAL_Driver/Src/stm32f4xx_hal_rcc.c ****     MODIFY_REG(RCC->CFGR, RCC_CFGR_HPRE, RCC_ClkInitStruct->AHBCLKDivider);
 640:/home/vtrnnhlinh/STM32Cube/Repository/STM32Cube_FW_F4_V1.28.0/Drivers/STM32F4xx_HAL_Driver/Src/stm32f4xx_hal_rcc.c ****   }
 641:/home/vtrnnhlinh/STM32Cube/Repository/STM32Cube_FW_F4_V1.28.0/Drivers/STM32F4xx_HAL_Driver/Src/stm32f4xx_hal_rcc.c **** 
 642:/home/vtrnnhlinh/STM32Cube/Repository/STM32Cube_FW_F4_V1.28.0/Drivers/STM32F4xx_HAL_Driver/Src/stm32f4xx_hal_rcc.c ****   /*------------------------- SYSCLK Configuration ---------------------------*/
 643:/home/vtrnnhlinh/STM32Cube/Repository/STM32Cube_FW_F4_V1.28.0/Drivers/STM32F4xx_HAL_Driver/Src/stm32f4xx_hal_rcc.c ****   if(((RCC_ClkInitStruct->ClockType) & RCC_CLOCKTYPE_SYSCLK) == RCC_CLOCKTYPE_SYSCLK)
 644:/home/vtrnnhlinh/STM32Cube/Repository/STM32Cube_FW_F4_V1.28.0/Drivers/STM32F4xx_HAL_Driver/Src/stm32f4xx_hal_rcc.c ****   {
 645:/home/vtrnnhlinh/STM32Cube/Repository/STM32Cube_FW_F4_V1.28.0/Drivers/STM32F4xx_HAL_Driver/Src/stm32f4xx_hal_rcc.c ****     assert_param(IS_RCC_SYSCLKSOURCE(RCC_ClkInitStruct->SYSCLKSource));
 646:/home/vtrnnhlinh/STM32Cube/Repository/STM32Cube_FW_F4_V1.28.0/Drivers/STM32F4xx_HAL_Driver/Src/stm32f4xx_hal_rcc.c **** 
 647:/home/vtrnnhlinh/STM32Cube/Repository/STM32Cube_FW_F4_V1.28.0/Drivers/STM32F4xx_HAL_Driver/Src/stm32f4xx_hal_rcc.c ****     /* HSE is selected as System Clock Source */
 648:/home/vtrnnhlinh/STM32Cube/Repository/STM32Cube_FW_F4_V1.28.0/Drivers/STM32F4xx_HAL_Driver/Src/stm32f4xx_hal_rcc.c ****     if(RCC_ClkInitStruct->SYSCLKSource == RCC_SYSCLKSOURCE_HSE)
 649:/home/vtrnnhlinh/STM32Cube/Repository/STM32Cube_FW_F4_V1.28.0/Drivers/STM32F4xx_HAL_Driver/Src/stm32f4xx_hal_rcc.c ****     {
 650:/home/vtrnnhlinh/STM32Cube/Repository/STM32Cube_FW_F4_V1.28.0/Drivers/STM32F4xx_HAL_Driver/Src/stm32f4xx_hal_rcc.c ****       /* Check the HSE ready flag */
 651:/home/vtrnnhlinh/STM32Cube/Repository/STM32Cube_FW_F4_V1.28.0/Drivers/STM32F4xx_HAL_Driver/Src/stm32f4xx_hal_rcc.c ****       if(__HAL_RCC_GET_FLAG(RCC_FLAG_HSERDY) == RESET)
 652:/home/vtrnnhlinh/STM32Cube/Repository/STM32Cube_FW_F4_V1.28.0/Drivers/STM32F4xx_HAL_Driver/Src/stm32f4xx_hal_rcc.c ****       {
 653:/home/vtrnnhlinh/STM32Cube/Repository/STM32Cube_FW_F4_V1.28.0/Drivers/STM32F4xx_HAL_Driver/Src/stm32f4xx_hal_rcc.c ****         return HAL_ERROR;
 654:/home/vtrnnhlinh/STM32Cube/Repository/STM32Cube_FW_F4_V1.28.0/Drivers/STM32F4xx_HAL_Driver/Src/stm32f4xx_hal_rcc.c ****       }
 655:/home/vtrnnhlinh/STM32Cube/Repository/STM32Cube_FW_F4_V1.28.0/Drivers/STM32F4xx_HAL_Driver/Src/stm32f4xx_hal_rcc.c ****     }
 656:/home/vtrnnhlinh/STM32Cube/Repository/STM32Cube_FW_F4_V1.28.0/Drivers/STM32F4xx_HAL_Driver/Src/stm32f4xx_hal_rcc.c ****     /* PLL is selected as System Clock Source */
 657:/home/vtrnnhlinh/STM32Cube/Repository/STM32Cube_FW_F4_V1.28.0/Drivers/STM32F4xx_HAL_Driver/Src/stm32f4xx_hal_rcc.c ****     else if((RCC_ClkInitStruct->SYSCLKSource == RCC_SYSCLKSOURCE_PLLCLK)   ||
 658:/home/vtrnnhlinh/STM32Cube/Repository/STM32Cube_FW_F4_V1.28.0/Drivers/STM32F4xx_HAL_Driver/Src/stm32f4xx_hal_rcc.c ****             (RCC_ClkInitStruct->SYSCLKSource == RCC_SYSCLKSOURCE_PLLRCLK))
 659:/home/vtrnnhlinh/STM32Cube/Repository/STM32Cube_FW_F4_V1.28.0/Drivers/STM32F4xx_HAL_Driver/Src/stm32f4xx_hal_rcc.c ****     {
 660:/home/vtrnnhlinh/STM32Cube/Repository/STM32Cube_FW_F4_V1.28.0/Drivers/STM32F4xx_HAL_Driver/Src/stm32f4xx_hal_rcc.c ****       /* Check the PLL ready flag */
 661:/home/vtrnnhlinh/STM32Cube/Repository/STM32Cube_FW_F4_V1.28.0/Drivers/STM32F4xx_HAL_Driver/Src/stm32f4xx_hal_rcc.c ****       if(__HAL_RCC_GET_FLAG(RCC_FLAG_PLLRDY) == RESET)
 662:/home/vtrnnhlinh/STM32Cube/Repository/STM32Cube_FW_F4_V1.28.0/Drivers/STM32F4xx_HAL_Driver/Src/stm32f4xx_hal_rcc.c ****       {
 663:/home/vtrnnhlinh/STM32Cube/Repository/STM32Cube_FW_F4_V1.28.0/Drivers/STM32F4xx_HAL_Driver/Src/stm32f4xx_hal_rcc.c ****         return HAL_ERROR;
 664:/home/vtrnnhlinh/STM32Cube/Repository/STM32Cube_FW_F4_V1.28.0/Drivers/STM32F4xx_HAL_Driver/Src/stm32f4xx_hal_rcc.c ****       }
 665:/home/vtrnnhlinh/STM32Cube/Repository/STM32Cube_FW_F4_V1.28.0/Drivers/STM32F4xx_HAL_Driver/Src/stm32f4xx_hal_rcc.c ****     }
 666:/home/vtrnnhlinh/STM32Cube/Repository/STM32Cube_FW_F4_V1.28.0/Drivers/STM32F4xx_HAL_Driver/Src/stm32f4xx_hal_rcc.c ****     /* HSI is selected as System Clock Source */
 667:/home/vtrnnhlinh/STM32Cube/Repository/STM32Cube_FW_F4_V1.28.0/Drivers/STM32F4xx_HAL_Driver/Src/stm32f4xx_hal_rcc.c ****     else
 668:/home/vtrnnhlinh/STM32Cube/Repository/STM32Cube_FW_F4_V1.28.0/Drivers/STM32F4xx_HAL_Driver/Src/stm32f4xx_hal_rcc.c ****     {
ARM GAS  /tmp/ccz6Q3rQ.s 			page 34


 669:/home/vtrnnhlinh/STM32Cube/Repository/STM32Cube_FW_F4_V1.28.0/Drivers/STM32F4xx_HAL_Driver/Src/stm32f4xx_hal_rcc.c ****       /* Check the HSI ready flag */
 670:/home/vtrnnhlinh/STM32Cube/Repository/STM32Cube_FW_F4_V1.28.0/Drivers/STM32F4xx_HAL_Driver/Src/stm32f4xx_hal_rcc.c ****       if(__HAL_RCC_GET_FLAG(RCC_FLAG_HSIRDY) == RESET)
 671:/home/vtrnnhlinh/STM32Cube/Repository/STM32Cube_FW_F4_V1.28.0/Drivers/STM32F4xx_HAL_Driver/Src/stm32f4xx_hal_rcc.c ****       {
 672:/home/vtrnnhlinh/STM32Cube/Repository/STM32Cube_FW_F4_V1.28.0/Drivers/STM32F4xx_HAL_Driver/Src/stm32f4xx_hal_rcc.c ****         return HAL_ERROR;
 673:/home/vtrnnhlinh/STM32Cube/Repository/STM32Cube_FW_F4_V1.28.0/Drivers/STM32F4xx_HAL_Driver/Src/stm32f4xx_hal_rcc.c ****       }
 674:/home/vtrnnhlinh/STM32Cube/Repository/STM32Cube_FW_F4_V1.28.0/Drivers/STM32F4xx_HAL_Driver/Src/stm32f4xx_hal_rcc.c ****     }
 675:/home/vtrnnhlinh/STM32Cube/Repository/STM32Cube_FW_F4_V1.28.0/Drivers/STM32F4xx_HAL_Driver/Src/stm32f4xx_hal_rcc.c **** 
 676:/home/vtrnnhlinh/STM32Cube/Repository/STM32Cube_FW_F4_V1.28.0/Drivers/STM32F4xx_HAL_Driver/Src/stm32f4xx_hal_rcc.c ****     __HAL_RCC_SYSCLK_CONFIG(RCC_ClkInitStruct->SYSCLKSource);
 677:/home/vtrnnhlinh/STM32Cube/Repository/STM32Cube_FW_F4_V1.28.0/Drivers/STM32F4xx_HAL_Driver/Src/stm32f4xx_hal_rcc.c **** 
 678:/home/vtrnnhlinh/STM32Cube/Repository/STM32Cube_FW_F4_V1.28.0/Drivers/STM32F4xx_HAL_Driver/Src/stm32f4xx_hal_rcc.c ****     /* Get Start Tick */
 679:/home/vtrnnhlinh/STM32Cube/Repository/STM32Cube_FW_F4_V1.28.0/Drivers/STM32F4xx_HAL_Driver/Src/stm32f4xx_hal_rcc.c ****     tickstart = HAL_GetTick();
 680:/home/vtrnnhlinh/STM32Cube/Repository/STM32Cube_FW_F4_V1.28.0/Drivers/STM32F4xx_HAL_Driver/Src/stm32f4xx_hal_rcc.c **** 
 681:/home/vtrnnhlinh/STM32Cube/Repository/STM32Cube_FW_F4_V1.28.0/Drivers/STM32F4xx_HAL_Driver/Src/stm32f4xx_hal_rcc.c ****     while (__HAL_RCC_GET_SYSCLK_SOURCE() != (RCC_ClkInitStruct->SYSCLKSource << RCC_CFGR_SWS_Pos))
 682:/home/vtrnnhlinh/STM32Cube/Repository/STM32Cube_FW_F4_V1.28.0/Drivers/STM32F4xx_HAL_Driver/Src/stm32f4xx_hal_rcc.c ****     {
 683:/home/vtrnnhlinh/STM32Cube/Repository/STM32Cube_FW_F4_V1.28.0/Drivers/STM32F4xx_HAL_Driver/Src/stm32f4xx_hal_rcc.c ****       if ((HAL_GetTick() - tickstart) > CLOCKSWITCH_TIMEOUT_VALUE)
 684:/home/vtrnnhlinh/STM32Cube/Repository/STM32Cube_FW_F4_V1.28.0/Drivers/STM32F4xx_HAL_Driver/Src/stm32f4xx_hal_rcc.c ****       {
 685:/home/vtrnnhlinh/STM32Cube/Repository/STM32Cube_FW_F4_V1.28.0/Drivers/STM32F4xx_HAL_Driver/Src/stm32f4xx_hal_rcc.c ****         return HAL_TIMEOUT;
 686:/home/vtrnnhlinh/STM32Cube/Repository/STM32Cube_FW_F4_V1.28.0/Drivers/STM32F4xx_HAL_Driver/Src/stm32f4xx_hal_rcc.c ****       }
 687:/home/vtrnnhlinh/STM32Cube/Repository/STM32Cube_FW_F4_V1.28.0/Drivers/STM32F4xx_HAL_Driver/Src/stm32f4xx_hal_rcc.c ****     }
 688:/home/vtrnnhlinh/STM32Cube/Repository/STM32Cube_FW_F4_V1.28.0/Drivers/STM32F4xx_HAL_Driver/Src/stm32f4xx_hal_rcc.c ****   }
 689:/home/vtrnnhlinh/STM32Cube/Repository/STM32Cube_FW_F4_V1.28.0/Drivers/STM32F4xx_HAL_Driver/Src/stm32f4xx_hal_rcc.c **** 
 690:/home/vtrnnhlinh/STM32Cube/Repository/STM32Cube_FW_F4_V1.28.0/Drivers/STM32F4xx_HAL_Driver/Src/stm32f4xx_hal_rcc.c ****   /* Decreasing the number of wait states because of lower CPU frequency */
 691:/home/vtrnnhlinh/STM32Cube/Repository/STM32Cube_FW_F4_V1.28.0/Drivers/STM32F4xx_HAL_Driver/Src/stm32f4xx_hal_rcc.c ****   if(FLatency < __HAL_FLASH_GET_LATENCY())
 692:/home/vtrnnhlinh/STM32Cube/Repository/STM32Cube_FW_F4_V1.28.0/Drivers/STM32F4xx_HAL_Driver/Src/stm32f4xx_hal_rcc.c ****   {
 693:/home/vtrnnhlinh/STM32Cube/Repository/STM32Cube_FW_F4_V1.28.0/Drivers/STM32F4xx_HAL_Driver/Src/stm32f4xx_hal_rcc.c ****      /* Program the new number of wait states to the LATENCY bits in the FLASH_ACR register */
 694:/home/vtrnnhlinh/STM32Cube/Repository/STM32Cube_FW_F4_V1.28.0/Drivers/STM32F4xx_HAL_Driver/Src/stm32f4xx_hal_rcc.c ****     __HAL_FLASH_SET_LATENCY(FLatency);
 695:/home/vtrnnhlinh/STM32Cube/Repository/STM32Cube_FW_F4_V1.28.0/Drivers/STM32F4xx_HAL_Driver/Src/stm32f4xx_hal_rcc.c **** 
 696:/home/vtrnnhlinh/STM32Cube/Repository/STM32Cube_FW_F4_V1.28.0/Drivers/STM32F4xx_HAL_Driver/Src/stm32f4xx_hal_rcc.c ****     /* Check that the new number of wait states is taken into account to access the Flash
 697:/home/vtrnnhlinh/STM32Cube/Repository/STM32Cube_FW_F4_V1.28.0/Drivers/STM32F4xx_HAL_Driver/Src/stm32f4xx_hal_rcc.c ****     memory by reading the FLASH_ACR register */
 698:/home/vtrnnhlinh/STM32Cube/Repository/STM32Cube_FW_F4_V1.28.0/Drivers/STM32F4xx_HAL_Driver/Src/stm32f4xx_hal_rcc.c ****     if(__HAL_FLASH_GET_LATENCY() != FLatency)
 699:/home/vtrnnhlinh/STM32Cube/Repository/STM32Cube_FW_F4_V1.28.0/Drivers/STM32F4xx_HAL_Driver/Src/stm32f4xx_hal_rcc.c ****     {
 700:/home/vtrnnhlinh/STM32Cube/Repository/STM32Cube_FW_F4_V1.28.0/Drivers/STM32F4xx_HAL_Driver/Src/stm32f4xx_hal_rcc.c ****       return HAL_ERROR;
 701:/home/vtrnnhlinh/STM32Cube/Repository/STM32Cube_FW_F4_V1.28.0/Drivers/STM32F4xx_HAL_Driver/Src/stm32f4xx_hal_rcc.c ****     }
 702:/home/vtrnnhlinh/STM32Cube/Repository/STM32Cube_FW_F4_V1.28.0/Drivers/STM32F4xx_HAL_Driver/Src/stm32f4xx_hal_rcc.c ****   }
 703:/home/vtrnnhlinh/STM32Cube/Repository/STM32Cube_FW_F4_V1.28.0/Drivers/STM32F4xx_HAL_Driver/Src/stm32f4xx_hal_rcc.c **** 
 704:/home/vtrnnhlinh/STM32Cube/Repository/STM32Cube_FW_F4_V1.28.0/Drivers/STM32F4xx_HAL_Driver/Src/stm32f4xx_hal_rcc.c ****   /*-------------------------- PCLK1 Configuration ---------------------------*/
 705:/home/vtrnnhlinh/STM32Cube/Repository/STM32Cube_FW_F4_V1.28.0/Drivers/STM32F4xx_HAL_Driver/Src/stm32f4xx_hal_rcc.c ****   if(((RCC_ClkInitStruct->ClockType) & RCC_CLOCKTYPE_PCLK1) == RCC_CLOCKTYPE_PCLK1)
 706:/home/vtrnnhlinh/STM32Cube/Repository/STM32Cube_FW_F4_V1.28.0/Drivers/STM32F4xx_HAL_Driver/Src/stm32f4xx_hal_rcc.c ****   {
 707:/home/vtrnnhlinh/STM32Cube/Repository/STM32Cube_FW_F4_V1.28.0/Drivers/STM32F4xx_HAL_Driver/Src/stm32f4xx_hal_rcc.c ****     assert_param(IS_RCC_PCLK(RCC_ClkInitStruct->APB1CLKDivider));
 708:/home/vtrnnhlinh/STM32Cube/Repository/STM32Cube_FW_F4_V1.28.0/Drivers/STM32F4xx_HAL_Driver/Src/stm32f4xx_hal_rcc.c ****     MODIFY_REG(RCC->CFGR, RCC_CFGR_PPRE1, RCC_ClkInitStruct->APB1CLKDivider);
 709:/home/vtrnnhlinh/STM32Cube/Repository/STM32Cube_FW_F4_V1.28.0/Drivers/STM32F4xx_HAL_Driver/Src/stm32f4xx_hal_rcc.c ****   }
 710:/home/vtrnnhlinh/STM32Cube/Repository/STM32Cube_FW_F4_V1.28.0/Drivers/STM32F4xx_HAL_Driver/Src/stm32f4xx_hal_rcc.c **** 
 711:/home/vtrnnhlinh/STM32Cube/Repository/STM32Cube_FW_F4_V1.28.0/Drivers/STM32F4xx_HAL_Driver/Src/stm32f4xx_hal_rcc.c ****   /*-------------------------- PCLK2 Configuration ---------------------------*/
 712:/home/vtrnnhlinh/STM32Cube/Repository/STM32Cube_FW_F4_V1.28.0/Drivers/STM32F4xx_HAL_Driver/Src/stm32f4xx_hal_rcc.c ****   if(((RCC_ClkInitStruct->ClockType) & RCC_CLOCKTYPE_PCLK2) == RCC_CLOCKTYPE_PCLK2)
 713:/home/vtrnnhlinh/STM32Cube/Repository/STM32Cube_FW_F4_V1.28.0/Drivers/STM32F4xx_HAL_Driver/Src/stm32f4xx_hal_rcc.c ****   {
 714:/home/vtrnnhlinh/STM32Cube/Repository/STM32Cube_FW_F4_V1.28.0/Drivers/STM32F4xx_HAL_Driver/Src/stm32f4xx_hal_rcc.c ****     assert_param(IS_RCC_PCLK(RCC_ClkInitStruct->APB2CLKDivider));
 715:/home/vtrnnhlinh/STM32Cube/Repository/STM32Cube_FW_F4_V1.28.0/Drivers/STM32F4xx_HAL_Driver/Src/stm32f4xx_hal_rcc.c ****     MODIFY_REG(RCC->CFGR, RCC_CFGR_PPRE2, ((RCC_ClkInitStruct->APB2CLKDivider) << 3U));
 716:/home/vtrnnhlinh/STM32Cube/Repository/STM32Cube_FW_F4_V1.28.0/Drivers/STM32F4xx_HAL_Driver/Src/stm32f4xx_hal_rcc.c ****   }
 717:/home/vtrnnhlinh/STM32Cube/Repository/STM32Cube_FW_F4_V1.28.0/Drivers/STM32F4xx_HAL_Driver/Src/stm32f4xx_hal_rcc.c **** 
 718:/home/vtrnnhlinh/STM32Cube/Repository/STM32Cube_FW_F4_V1.28.0/Drivers/STM32F4xx_HAL_Driver/Src/stm32f4xx_hal_rcc.c ****   /* Update the SystemCoreClock global variable */
 719:/home/vtrnnhlinh/STM32Cube/Repository/STM32Cube_FW_F4_V1.28.0/Drivers/STM32F4xx_HAL_Driver/Src/stm32f4xx_hal_rcc.c ****   SystemCoreClock = HAL_RCC_GetSysClockFreq() >> AHBPrescTable[(RCC->CFGR & RCC_CFGR_HPRE)>> RCC_CF
 720:/home/vtrnnhlinh/STM32Cube/Repository/STM32Cube_FW_F4_V1.28.0/Drivers/STM32F4xx_HAL_Driver/Src/stm32f4xx_hal_rcc.c **** 
 721:/home/vtrnnhlinh/STM32Cube/Repository/STM32Cube_FW_F4_V1.28.0/Drivers/STM32F4xx_HAL_Driver/Src/stm32f4xx_hal_rcc.c ****   /* Configure the source of time base considering new system clocks settings */
 722:/home/vtrnnhlinh/STM32Cube/Repository/STM32Cube_FW_F4_V1.28.0/Drivers/STM32F4xx_HAL_Driver/Src/stm32f4xx_hal_rcc.c ****   HAL_InitTick (uwTickPrio);
 723:/home/vtrnnhlinh/STM32Cube/Repository/STM32Cube_FW_F4_V1.28.0/Drivers/STM32F4xx_HAL_Driver/Src/stm32f4xx_hal_rcc.c **** 
 724:/home/vtrnnhlinh/STM32Cube/Repository/STM32Cube_FW_F4_V1.28.0/Drivers/STM32F4xx_HAL_Driver/Src/stm32f4xx_hal_rcc.c ****   return HAL_OK;
 725:/home/vtrnnhlinh/STM32Cube/Repository/STM32Cube_FW_F4_V1.28.0/Drivers/STM32F4xx_HAL_Driver/Src/stm32f4xx_hal_rcc.c **** }
ARM GAS  /tmp/ccz6Q3rQ.s 			page 35


 726:/home/vtrnnhlinh/STM32Cube/Repository/STM32Cube_FW_F4_V1.28.0/Drivers/STM32F4xx_HAL_Driver/Src/stm32f4xx_hal_rcc.c **** 
 727:/home/vtrnnhlinh/STM32Cube/Repository/STM32Cube_FW_F4_V1.28.0/Drivers/STM32F4xx_HAL_Driver/Src/stm32f4xx_hal_rcc.c **** /**
 728:/home/vtrnnhlinh/STM32Cube/Repository/STM32Cube_FW_F4_V1.28.0/Drivers/STM32F4xx_HAL_Driver/Src/stm32f4xx_hal_rcc.c ****   * @}
 729:/home/vtrnnhlinh/STM32Cube/Repository/STM32Cube_FW_F4_V1.28.0/Drivers/STM32F4xx_HAL_Driver/Src/stm32f4xx_hal_rcc.c ****   */
 730:/home/vtrnnhlinh/STM32Cube/Repository/STM32Cube_FW_F4_V1.28.0/Drivers/STM32F4xx_HAL_Driver/Src/stm32f4xx_hal_rcc.c **** 
 731:/home/vtrnnhlinh/STM32Cube/Repository/STM32Cube_FW_F4_V1.28.0/Drivers/STM32F4xx_HAL_Driver/Src/stm32f4xx_hal_rcc.c **** /** @defgroup RCC_Exported_Functions_Group2 Peripheral Control functions
 732:/home/vtrnnhlinh/STM32Cube/Repository/STM32Cube_FW_F4_V1.28.0/Drivers/STM32F4xx_HAL_Driver/Src/stm32f4xx_hal_rcc.c ****  *  @brief   RCC clocks control functions
 733:/home/vtrnnhlinh/STM32Cube/Repository/STM32Cube_FW_F4_V1.28.0/Drivers/STM32F4xx_HAL_Driver/Src/stm32f4xx_hal_rcc.c ****  *
 734:/home/vtrnnhlinh/STM32Cube/Repository/STM32Cube_FW_F4_V1.28.0/Drivers/STM32F4xx_HAL_Driver/Src/stm32f4xx_hal_rcc.c **** @verbatim
 735:/home/vtrnnhlinh/STM32Cube/Repository/STM32Cube_FW_F4_V1.28.0/Drivers/STM32F4xx_HAL_Driver/Src/stm32f4xx_hal_rcc.c ****  ===============================================================================
 736:/home/vtrnnhlinh/STM32Cube/Repository/STM32Cube_FW_F4_V1.28.0/Drivers/STM32F4xx_HAL_Driver/Src/stm32f4xx_hal_rcc.c ****                       ##### Peripheral Control functions #####
 737:/home/vtrnnhlinh/STM32Cube/Repository/STM32Cube_FW_F4_V1.28.0/Drivers/STM32F4xx_HAL_Driver/Src/stm32f4xx_hal_rcc.c ****  ===============================================================================
 738:/home/vtrnnhlinh/STM32Cube/Repository/STM32Cube_FW_F4_V1.28.0/Drivers/STM32F4xx_HAL_Driver/Src/stm32f4xx_hal_rcc.c ****     [..]
 739:/home/vtrnnhlinh/STM32Cube/Repository/STM32Cube_FW_F4_V1.28.0/Drivers/STM32F4xx_HAL_Driver/Src/stm32f4xx_hal_rcc.c ****     This subsection provides a set of functions allowing to control the RCC Clocks
 740:/home/vtrnnhlinh/STM32Cube/Repository/STM32Cube_FW_F4_V1.28.0/Drivers/STM32F4xx_HAL_Driver/Src/stm32f4xx_hal_rcc.c ****     frequencies.
 741:/home/vtrnnhlinh/STM32Cube/Repository/STM32Cube_FW_F4_V1.28.0/Drivers/STM32F4xx_HAL_Driver/Src/stm32f4xx_hal_rcc.c **** 
 742:/home/vtrnnhlinh/STM32Cube/Repository/STM32Cube_FW_F4_V1.28.0/Drivers/STM32F4xx_HAL_Driver/Src/stm32f4xx_hal_rcc.c **** @endverbatim
 743:/home/vtrnnhlinh/STM32Cube/Repository/STM32Cube_FW_F4_V1.28.0/Drivers/STM32F4xx_HAL_Driver/Src/stm32f4xx_hal_rcc.c ****   * @{
 744:/home/vtrnnhlinh/STM32Cube/Repository/STM32Cube_FW_F4_V1.28.0/Drivers/STM32F4xx_HAL_Driver/Src/stm32f4xx_hal_rcc.c ****   */
 745:/home/vtrnnhlinh/STM32Cube/Repository/STM32Cube_FW_F4_V1.28.0/Drivers/STM32F4xx_HAL_Driver/Src/stm32f4xx_hal_rcc.c **** 
 746:/home/vtrnnhlinh/STM32Cube/Repository/STM32Cube_FW_F4_V1.28.0/Drivers/STM32F4xx_HAL_Driver/Src/stm32f4xx_hal_rcc.c **** /**
 747:/home/vtrnnhlinh/STM32Cube/Repository/STM32Cube_FW_F4_V1.28.0/Drivers/STM32F4xx_HAL_Driver/Src/stm32f4xx_hal_rcc.c ****   * @brief  Selects the clock source to output on MCO1 pin(PA8) or on MCO2 pin(PC9).
 748:/home/vtrnnhlinh/STM32Cube/Repository/STM32Cube_FW_F4_V1.28.0/Drivers/STM32F4xx_HAL_Driver/Src/stm32f4xx_hal_rcc.c ****   * @note   PA8/PC9 should be configured in alternate function mode.
 749:/home/vtrnnhlinh/STM32Cube/Repository/STM32Cube_FW_F4_V1.28.0/Drivers/STM32F4xx_HAL_Driver/Src/stm32f4xx_hal_rcc.c ****   * @param  RCC_MCOx specifies the output direction for the clock source.
 750:/home/vtrnnhlinh/STM32Cube/Repository/STM32Cube_FW_F4_V1.28.0/Drivers/STM32F4xx_HAL_Driver/Src/stm32f4xx_hal_rcc.c ****   *          This parameter can be one of the following values:
 751:/home/vtrnnhlinh/STM32Cube/Repository/STM32Cube_FW_F4_V1.28.0/Drivers/STM32F4xx_HAL_Driver/Src/stm32f4xx_hal_rcc.c ****   *            @arg RCC_MCO1: Clock source to output on MCO1 pin(PA8).
 752:/home/vtrnnhlinh/STM32Cube/Repository/STM32Cube_FW_F4_V1.28.0/Drivers/STM32F4xx_HAL_Driver/Src/stm32f4xx_hal_rcc.c ****   *            @arg RCC_MCO2: Clock source to output on MCO2 pin(PC9).
 753:/home/vtrnnhlinh/STM32Cube/Repository/STM32Cube_FW_F4_V1.28.0/Drivers/STM32F4xx_HAL_Driver/Src/stm32f4xx_hal_rcc.c ****   * @param  RCC_MCOSource specifies the clock source to output.
 754:/home/vtrnnhlinh/STM32Cube/Repository/STM32Cube_FW_F4_V1.28.0/Drivers/STM32F4xx_HAL_Driver/Src/stm32f4xx_hal_rcc.c ****   *          This parameter can be one of the following values:
 755:/home/vtrnnhlinh/STM32Cube/Repository/STM32Cube_FW_F4_V1.28.0/Drivers/STM32F4xx_HAL_Driver/Src/stm32f4xx_hal_rcc.c ****   *            @arg RCC_MCO1SOURCE_HSI: HSI clock selected as MCO1 source
 756:/home/vtrnnhlinh/STM32Cube/Repository/STM32Cube_FW_F4_V1.28.0/Drivers/STM32F4xx_HAL_Driver/Src/stm32f4xx_hal_rcc.c ****   *            @arg RCC_MCO1SOURCE_LSE: LSE clock selected as MCO1 source
 757:/home/vtrnnhlinh/STM32Cube/Repository/STM32Cube_FW_F4_V1.28.0/Drivers/STM32F4xx_HAL_Driver/Src/stm32f4xx_hal_rcc.c ****   *            @arg RCC_MCO1SOURCE_HSE: HSE clock selected as MCO1 source
 758:/home/vtrnnhlinh/STM32Cube/Repository/STM32Cube_FW_F4_V1.28.0/Drivers/STM32F4xx_HAL_Driver/Src/stm32f4xx_hal_rcc.c ****   *            @arg RCC_MCO1SOURCE_PLLCLK: main PLL clock selected as MCO1 source
 759:/home/vtrnnhlinh/STM32Cube/Repository/STM32Cube_FW_F4_V1.28.0/Drivers/STM32F4xx_HAL_Driver/Src/stm32f4xx_hal_rcc.c ****   *            @arg RCC_MCO2SOURCE_SYSCLK: System clock (SYSCLK) selected as MCO2 source
 760:/home/vtrnnhlinh/STM32Cube/Repository/STM32Cube_FW_F4_V1.28.0/Drivers/STM32F4xx_HAL_Driver/Src/stm32f4xx_hal_rcc.c ****   *            @arg RCC_MCO2SOURCE_PLLI2SCLK: PLLI2S clock selected as MCO2 source, available for a
 761:/home/vtrnnhlinh/STM32Cube/Repository/STM32Cube_FW_F4_V1.28.0/Drivers/STM32F4xx_HAL_Driver/Src/stm32f4xx_hal_rcc.c ****   *            @arg RCC_MCO2SOURCE_I2SCLK: I2SCLK clock selected as MCO2 source, available only for
 762:/home/vtrnnhlinh/STM32Cube/Repository/STM32Cube_FW_F4_V1.28.0/Drivers/STM32F4xx_HAL_Driver/Src/stm32f4xx_hal_rcc.c ****   *            @arg RCC_MCO2SOURCE_HSE: HSE clock selected as MCO2 source
 763:/home/vtrnnhlinh/STM32Cube/Repository/STM32Cube_FW_F4_V1.28.0/Drivers/STM32F4xx_HAL_Driver/Src/stm32f4xx_hal_rcc.c ****   *            @arg RCC_MCO2SOURCE_PLLCLK: main PLL clock selected as MCO2 source
 764:/home/vtrnnhlinh/STM32Cube/Repository/STM32Cube_FW_F4_V1.28.0/Drivers/STM32F4xx_HAL_Driver/Src/stm32f4xx_hal_rcc.c ****   * @param  RCC_MCODiv specifies the MCOx prescaler.
 765:/home/vtrnnhlinh/STM32Cube/Repository/STM32Cube_FW_F4_V1.28.0/Drivers/STM32F4xx_HAL_Driver/Src/stm32f4xx_hal_rcc.c ****   *          This parameter can be one of the following values:
 766:/home/vtrnnhlinh/STM32Cube/Repository/STM32Cube_FW_F4_V1.28.0/Drivers/STM32F4xx_HAL_Driver/Src/stm32f4xx_hal_rcc.c ****   *            @arg RCC_MCODIV_1: no division applied to MCOx clock
 767:/home/vtrnnhlinh/STM32Cube/Repository/STM32Cube_FW_F4_V1.28.0/Drivers/STM32F4xx_HAL_Driver/Src/stm32f4xx_hal_rcc.c ****   *            @arg RCC_MCODIV_2: division by 2 applied to MCOx clock
 768:/home/vtrnnhlinh/STM32Cube/Repository/STM32Cube_FW_F4_V1.28.0/Drivers/STM32F4xx_HAL_Driver/Src/stm32f4xx_hal_rcc.c ****   *            @arg RCC_MCODIV_3: division by 3 applied to MCOx clock
 769:/home/vtrnnhlinh/STM32Cube/Repository/STM32Cube_FW_F4_V1.28.0/Drivers/STM32F4xx_HAL_Driver/Src/stm32f4xx_hal_rcc.c ****   *            @arg RCC_MCODIV_4: division by 4 applied to MCOx clock
 770:/home/vtrnnhlinh/STM32Cube/Repository/STM32Cube_FW_F4_V1.28.0/Drivers/STM32F4xx_HAL_Driver/Src/stm32f4xx_hal_rcc.c ****   *            @arg RCC_MCODIV_5: division by 5 applied to MCOx clock
 771:/home/vtrnnhlinh/STM32Cube/Repository/STM32Cube_FW_F4_V1.28.0/Drivers/STM32F4xx_HAL_Driver/Src/stm32f4xx_hal_rcc.c ****   * @note  For STM32F410Rx devices to output I2SCLK clock on MCO2 you should have
 772:/home/vtrnnhlinh/STM32Cube/Repository/STM32Cube_FW_F4_V1.28.0/Drivers/STM32F4xx_HAL_Driver/Src/stm32f4xx_hal_rcc.c ****   *        at last one of the SPI clocks enabled (SPI1, SPI2 or SPI5).
 773:/home/vtrnnhlinh/STM32Cube/Repository/STM32Cube_FW_F4_V1.28.0/Drivers/STM32F4xx_HAL_Driver/Src/stm32f4xx_hal_rcc.c ****   * @retval None
 774:/home/vtrnnhlinh/STM32Cube/Repository/STM32Cube_FW_F4_V1.28.0/Drivers/STM32F4xx_HAL_Driver/Src/stm32f4xx_hal_rcc.c ****   */
 775:/home/vtrnnhlinh/STM32Cube/Repository/STM32Cube_FW_F4_V1.28.0/Drivers/STM32F4xx_HAL_Driver/Src/stm32f4xx_hal_rcc.c **** void HAL_RCC_MCOConfig(uint32_t RCC_MCOx, uint32_t RCC_MCOSource, uint32_t RCC_MCODiv)
 776:/home/vtrnnhlinh/STM32Cube/Repository/STM32Cube_FW_F4_V1.28.0/Drivers/STM32F4xx_HAL_Driver/Src/stm32f4xx_hal_rcc.c **** {
 1092              		.loc 1 776 1 is_stmt 1 view -0
 1093              		.cfi_startproc
 1094              		@ args = 0, pretend = 0, frame = 32
 1095              		@ frame_needed = 0, uses_anonymous_args = 0
 1096              		.loc 1 776 1 is_stmt 0 view .LVU312
 1097 0000 70B5     		push	{r4, r5, r6, lr}
ARM GAS  /tmp/ccz6Q3rQ.s 			page 36


 1098              	.LCFI6:
 1099              		.cfi_def_cfa_offset 16
 1100              		.cfi_offset 4, -16
 1101              		.cfi_offset 5, -12
 1102              		.cfi_offset 6, -8
 1103              		.cfi_offset 14, -4
 1104 0002 88B0     		sub	sp, sp, #32
 1105              	.LCFI7:
 1106              		.cfi_def_cfa_offset 48
 1107 0004 0646     		mov	r6, r0
 1108 0006 0D46     		mov	r5, r1
 1109 0008 1446     		mov	r4, r2
 777:/home/vtrnnhlinh/STM32Cube/Repository/STM32Cube_FW_F4_V1.28.0/Drivers/STM32F4xx_HAL_Driver/Src/stm32f4xx_hal_rcc.c ****   GPIO_InitTypeDef GPIO_InitStruct;
 1110              		.loc 1 777 3 is_stmt 1 view .LVU313
 778:/home/vtrnnhlinh/STM32Cube/Repository/STM32Cube_FW_F4_V1.28.0/Drivers/STM32F4xx_HAL_Driver/Src/stm32f4xx_hal_rcc.c ****   /* Check the parameters */
 779:/home/vtrnnhlinh/STM32Cube/Repository/STM32Cube_FW_F4_V1.28.0/Drivers/STM32F4xx_HAL_Driver/Src/stm32f4xx_hal_rcc.c ****   assert_param(IS_RCC_MCO(RCC_MCOx));
 1111              		.loc 1 779 3 view .LVU314
 1112 000a 0128     		cmp	r0, #1
 1113 000c 39D8     		bhi	.L128
 1114              	.LVL79:
 1115              	.L121:
 780:/home/vtrnnhlinh/STM32Cube/Repository/STM32Cube_FW_F4_V1.28.0/Drivers/STM32F4xx_HAL_Driver/Src/stm32f4xx_hal_rcc.c ****   assert_param(IS_RCC_MCODIV(RCC_MCODiv));
 1116              		.loc 1 780 3 view .LVU315
 1117 000e 5CB1     		cbz	r4, .L122
 1118              		.loc 1 780 3 is_stmt 0 discriminator 1 view .LVU316
 1119 0010 B4F1806F 		cmp	r4, #67108864
 1120 0014 08D0     		beq	.L122
 1121              		.loc 1 780 3 discriminator 2 view .LVU317
 1122 0016 B4F1A06F 		cmp	r4, #83886080
 1123 001a 05D0     		beq	.L122
 1124              		.loc 1 780 3 discriminator 3 view .LVU318
 1125 001c B4F1C06F 		cmp	r4, #100663296
 1126 0020 02D0     		beq	.L122
 1127              		.loc 1 780 3 discriminator 4 view .LVU319
 1128 0022 B4F1E06F 		cmp	r4, #117440512
 1129 0026 32D1     		bne	.L129
 1130              	.L122:
 781:/home/vtrnnhlinh/STM32Cube/Repository/STM32Cube_FW_F4_V1.28.0/Drivers/STM32F4xx_HAL_Driver/Src/stm32f4xx_hal_rcc.c ****   /* RCC_MCO1 */
 782:/home/vtrnnhlinh/STM32Cube/Repository/STM32Cube_FW_F4_V1.28.0/Drivers/STM32F4xx_HAL_Driver/Src/stm32f4xx_hal_rcc.c ****   if(RCC_MCOx == RCC_MCO1)
 1131              		.loc 1 782 3 is_stmt 1 view .LVU320
 1132              		.loc 1 782 5 is_stmt 0 view .LVU321
 1133 0028 002E     		cmp	r6, #0
 1134 002a 3CD1     		bne	.L123
 783:/home/vtrnnhlinh/STM32Cube/Repository/STM32Cube_FW_F4_V1.28.0/Drivers/STM32F4xx_HAL_Driver/Src/stm32f4xx_hal_rcc.c ****   {
 784:/home/vtrnnhlinh/STM32Cube/Repository/STM32Cube_FW_F4_V1.28.0/Drivers/STM32F4xx_HAL_Driver/Src/stm32f4xx_hal_rcc.c ****     assert_param(IS_RCC_MCO1SOURCE(RCC_MCOSource));
 1135              		.loc 1 784 5 is_stmt 1 view .LVU322
 1136 002c 45B1     		cbz	r5, .L124
 1137              		.loc 1 784 5 is_stmt 0 discriminator 1 view .LVU323
 1138 002e B5F5001F 		cmp	r5, #2097152
 1139 0032 05D0     		beq	.L124
 1140              		.loc 1 784 5 discriminator 2 view .LVU324
 1141 0034 B5F5800F 		cmp	r5, #4194304
 1142 0038 02D0     		beq	.L124
 1143              		.loc 1 784 5 discriminator 3 view .LVU325
 1144 003a B5F5C00F 		cmp	r5, #6291456
 1145 003e 2CD1     		bne	.L130
 1146              	.L124:
ARM GAS  /tmp/ccz6Q3rQ.s 			page 37


 785:/home/vtrnnhlinh/STM32Cube/Repository/STM32Cube_FW_F4_V1.28.0/Drivers/STM32F4xx_HAL_Driver/Src/stm32f4xx_hal_rcc.c **** 
 786:/home/vtrnnhlinh/STM32Cube/Repository/STM32Cube_FW_F4_V1.28.0/Drivers/STM32F4xx_HAL_Driver/Src/stm32f4xx_hal_rcc.c ****     /* MCO1 Clock Enable */
 787:/home/vtrnnhlinh/STM32Cube/Repository/STM32Cube_FW_F4_V1.28.0/Drivers/STM32F4xx_HAL_Driver/Src/stm32f4xx_hal_rcc.c ****     __MCO1_CLK_ENABLE();
 1147              		.loc 1 787 5 is_stmt 1 view .LVU326
 1148              	.LBB5:
 1149              		.loc 1 787 5 view .LVU327
 1150 0040 0023     		movs	r3, #0
 1151 0042 0193     		str	r3, [sp, #4]
 1152              		.loc 1 787 5 view .LVU328
 1153 0044 304E     		ldr	r6, .L132
 1154              	.LVL80:
 1155              		.loc 1 787 5 is_stmt 0 view .LVU329
 1156 0046 326B     		ldr	r2, [r6, #48]
 1157 0048 42F00102 		orr	r2, r2, #1
 1158 004c 3263     		str	r2, [r6, #48]
 1159              		.loc 1 787 5 is_stmt 1 view .LVU330
 1160 004e 326B     		ldr	r2, [r6, #48]
 1161 0050 02F00102 		and	r2, r2, #1
 1162 0054 0192     		str	r2, [sp, #4]
 1163              		.loc 1 787 5 view .LVU331
 1164 0056 019A     		ldr	r2, [sp, #4]
 1165              	.LBE5:
 1166              		.loc 1 787 5 view .LVU332
 788:/home/vtrnnhlinh/STM32Cube/Repository/STM32Cube_FW_F4_V1.28.0/Drivers/STM32F4xx_HAL_Driver/Src/stm32f4xx_hal_rcc.c **** 
 789:/home/vtrnnhlinh/STM32Cube/Repository/STM32Cube_FW_F4_V1.28.0/Drivers/STM32F4xx_HAL_Driver/Src/stm32f4xx_hal_rcc.c ****     /* Configure the MCO1 pin in alternate function mode */
 790:/home/vtrnnhlinh/STM32Cube/Repository/STM32Cube_FW_F4_V1.28.0/Drivers/STM32F4xx_HAL_Driver/Src/stm32f4xx_hal_rcc.c ****     GPIO_InitStruct.Pin = MCO1_PIN;
 1167              		.loc 1 790 5 view .LVU333
 1168              		.loc 1 790 25 is_stmt 0 view .LVU334
 1169 0058 4FF48072 		mov	r2, #256
 1170 005c 0392     		str	r2, [sp, #12]
 791:/home/vtrnnhlinh/STM32Cube/Repository/STM32Cube_FW_F4_V1.28.0/Drivers/STM32F4xx_HAL_Driver/Src/stm32f4xx_hal_rcc.c ****     GPIO_InitStruct.Mode = GPIO_MODE_AF_PP;
 1171              		.loc 1 791 5 is_stmt 1 view .LVU335
 1172              		.loc 1 791 26 is_stmt 0 view .LVU336
 1173 005e 0222     		movs	r2, #2
 1174 0060 0492     		str	r2, [sp, #16]
 792:/home/vtrnnhlinh/STM32Cube/Repository/STM32Cube_FW_F4_V1.28.0/Drivers/STM32F4xx_HAL_Driver/Src/stm32f4xx_hal_rcc.c ****     GPIO_InitStruct.Speed = GPIO_SPEED_FREQ_VERY_HIGH;
 1175              		.loc 1 792 5 is_stmt 1 view .LVU337
 1176              		.loc 1 792 27 is_stmt 0 view .LVU338
 1177 0062 0322     		movs	r2, #3
 1178 0064 0692     		str	r2, [sp, #24]
 793:/home/vtrnnhlinh/STM32Cube/Repository/STM32Cube_FW_F4_V1.28.0/Drivers/STM32F4xx_HAL_Driver/Src/stm32f4xx_hal_rcc.c ****     GPIO_InitStruct.Pull = GPIO_NOPULL;
 1179              		.loc 1 793 5 is_stmt 1 view .LVU339
 1180              		.loc 1 793 26 is_stmt 0 view .LVU340
 1181 0066 0593     		str	r3, [sp, #20]
 794:/home/vtrnnhlinh/STM32Cube/Repository/STM32Cube_FW_F4_V1.28.0/Drivers/STM32F4xx_HAL_Driver/Src/stm32f4xx_hal_rcc.c ****     GPIO_InitStruct.Alternate = GPIO_AF0_MCO;
 1182              		.loc 1 794 5 is_stmt 1 view .LVU341
 1183              		.loc 1 794 31 is_stmt 0 view .LVU342
 1184 0068 0793     		str	r3, [sp, #28]
 795:/home/vtrnnhlinh/STM32Cube/Repository/STM32Cube_FW_F4_V1.28.0/Drivers/STM32F4xx_HAL_Driver/Src/stm32f4xx_hal_rcc.c ****     HAL_GPIO_Init(MCO1_GPIO_PORT, &GPIO_InitStruct);
 1185              		.loc 1 795 5 is_stmt 1 view .LVU343
 1186 006a 03A9     		add	r1, sp, #12
 1187 006c 2748     		ldr	r0, .L132+4
 1188 006e FFF7FEFF 		bl	HAL_GPIO_Init
 1189              	.LVL81:
 796:/home/vtrnnhlinh/STM32Cube/Repository/STM32Cube_FW_F4_V1.28.0/Drivers/STM32F4xx_HAL_Driver/Src/stm32f4xx_hal_rcc.c **** 
 797:/home/vtrnnhlinh/STM32Cube/Repository/STM32Cube_FW_F4_V1.28.0/Drivers/STM32F4xx_HAL_Driver/Src/stm32f4xx_hal_rcc.c ****     /* Mask MCO1 and MCO1PRE[2:0] bits then Select MCO1 clock source and prescaler */
 798:/home/vtrnnhlinh/STM32Cube/Repository/STM32Cube_FW_F4_V1.28.0/Drivers/STM32F4xx_HAL_Driver/Src/stm32f4xx_hal_rcc.c ****     MODIFY_REG(RCC->CFGR, (RCC_CFGR_MCO1 | RCC_CFGR_MCO1PRE), (RCC_MCOSource | RCC_MCODiv));
ARM GAS  /tmp/ccz6Q3rQ.s 			page 38


 1190              		.loc 1 798 5 view .LVU344
 1191 0072 B368     		ldr	r3, [r6, #8]
 1192 0074 23F0EC63 		bic	r3, r3, #123731968
 1193 0078 2C43     		orrs	r4, r4, r5
 1194              	.LVL82:
 1195              		.loc 1 798 5 is_stmt 0 view .LVU345
 1196 007a 1C43     		orrs	r4, r4, r3
 1197 007c B460     		str	r4, [r6, #8]
 1198              	.L120:
 799:/home/vtrnnhlinh/STM32Cube/Repository/STM32Cube_FW_F4_V1.28.0/Drivers/STM32F4xx_HAL_Driver/Src/stm32f4xx_hal_rcc.c **** 
 800:/home/vtrnnhlinh/STM32Cube/Repository/STM32Cube_FW_F4_V1.28.0/Drivers/STM32F4xx_HAL_Driver/Src/stm32f4xx_hal_rcc.c ****    /* This RCC MCO1 enable feature is available only on STM32F410xx devices */
 801:/home/vtrnnhlinh/STM32Cube/Repository/STM32Cube_FW_F4_V1.28.0/Drivers/STM32F4xx_HAL_Driver/Src/stm32f4xx_hal_rcc.c **** #if defined(RCC_CFGR_MCO1EN)
 802:/home/vtrnnhlinh/STM32Cube/Repository/STM32Cube_FW_F4_V1.28.0/Drivers/STM32F4xx_HAL_Driver/Src/stm32f4xx_hal_rcc.c ****     __HAL_RCC_MCO1_ENABLE();
 803:/home/vtrnnhlinh/STM32Cube/Repository/STM32Cube_FW_F4_V1.28.0/Drivers/STM32F4xx_HAL_Driver/Src/stm32f4xx_hal_rcc.c **** #endif /* RCC_CFGR_MCO1EN */
 804:/home/vtrnnhlinh/STM32Cube/Repository/STM32Cube_FW_F4_V1.28.0/Drivers/STM32F4xx_HAL_Driver/Src/stm32f4xx_hal_rcc.c ****   }
 805:/home/vtrnnhlinh/STM32Cube/Repository/STM32Cube_FW_F4_V1.28.0/Drivers/STM32F4xx_HAL_Driver/Src/stm32f4xx_hal_rcc.c **** #if defined(RCC_CFGR_MCO2)
 806:/home/vtrnnhlinh/STM32Cube/Repository/STM32Cube_FW_F4_V1.28.0/Drivers/STM32F4xx_HAL_Driver/Src/stm32f4xx_hal_rcc.c ****   else
 807:/home/vtrnnhlinh/STM32Cube/Repository/STM32Cube_FW_F4_V1.28.0/Drivers/STM32F4xx_HAL_Driver/Src/stm32f4xx_hal_rcc.c ****   {
 808:/home/vtrnnhlinh/STM32Cube/Repository/STM32Cube_FW_F4_V1.28.0/Drivers/STM32F4xx_HAL_Driver/Src/stm32f4xx_hal_rcc.c ****     assert_param(IS_RCC_MCO2SOURCE(RCC_MCOSource));
 809:/home/vtrnnhlinh/STM32Cube/Repository/STM32Cube_FW_F4_V1.28.0/Drivers/STM32F4xx_HAL_Driver/Src/stm32f4xx_hal_rcc.c **** 
 810:/home/vtrnnhlinh/STM32Cube/Repository/STM32Cube_FW_F4_V1.28.0/Drivers/STM32F4xx_HAL_Driver/Src/stm32f4xx_hal_rcc.c ****     /* MCO2 Clock Enable */
 811:/home/vtrnnhlinh/STM32Cube/Repository/STM32Cube_FW_F4_V1.28.0/Drivers/STM32F4xx_HAL_Driver/Src/stm32f4xx_hal_rcc.c ****     __MCO2_CLK_ENABLE();
 812:/home/vtrnnhlinh/STM32Cube/Repository/STM32Cube_FW_F4_V1.28.0/Drivers/STM32F4xx_HAL_Driver/Src/stm32f4xx_hal_rcc.c **** 
 813:/home/vtrnnhlinh/STM32Cube/Repository/STM32Cube_FW_F4_V1.28.0/Drivers/STM32F4xx_HAL_Driver/Src/stm32f4xx_hal_rcc.c ****     /* Configure the MCO2 pin in alternate function mode */
 814:/home/vtrnnhlinh/STM32Cube/Repository/STM32Cube_FW_F4_V1.28.0/Drivers/STM32F4xx_HAL_Driver/Src/stm32f4xx_hal_rcc.c ****     GPIO_InitStruct.Pin = MCO2_PIN;
 815:/home/vtrnnhlinh/STM32Cube/Repository/STM32Cube_FW_F4_V1.28.0/Drivers/STM32F4xx_HAL_Driver/Src/stm32f4xx_hal_rcc.c ****     GPIO_InitStruct.Mode = GPIO_MODE_AF_PP;
 816:/home/vtrnnhlinh/STM32Cube/Repository/STM32Cube_FW_F4_V1.28.0/Drivers/STM32F4xx_HAL_Driver/Src/stm32f4xx_hal_rcc.c ****     GPIO_InitStruct.Speed = GPIO_SPEED_FREQ_VERY_HIGH;
 817:/home/vtrnnhlinh/STM32Cube/Repository/STM32Cube_FW_F4_V1.28.0/Drivers/STM32F4xx_HAL_Driver/Src/stm32f4xx_hal_rcc.c ****     GPIO_InitStruct.Pull = GPIO_NOPULL;
 818:/home/vtrnnhlinh/STM32Cube/Repository/STM32Cube_FW_F4_V1.28.0/Drivers/STM32F4xx_HAL_Driver/Src/stm32f4xx_hal_rcc.c ****     GPIO_InitStruct.Alternate = GPIO_AF0_MCO;
 819:/home/vtrnnhlinh/STM32Cube/Repository/STM32Cube_FW_F4_V1.28.0/Drivers/STM32F4xx_HAL_Driver/Src/stm32f4xx_hal_rcc.c ****     HAL_GPIO_Init(MCO2_GPIO_PORT, &GPIO_InitStruct);
 820:/home/vtrnnhlinh/STM32Cube/Repository/STM32Cube_FW_F4_V1.28.0/Drivers/STM32F4xx_HAL_Driver/Src/stm32f4xx_hal_rcc.c **** 
 821:/home/vtrnnhlinh/STM32Cube/Repository/STM32Cube_FW_F4_V1.28.0/Drivers/STM32F4xx_HAL_Driver/Src/stm32f4xx_hal_rcc.c ****     /* Mask MCO2 and MCO2PRE[2:0] bits then Select MCO2 clock source and prescaler */
 822:/home/vtrnnhlinh/STM32Cube/Repository/STM32Cube_FW_F4_V1.28.0/Drivers/STM32F4xx_HAL_Driver/Src/stm32f4xx_hal_rcc.c ****     MODIFY_REG(RCC->CFGR, (RCC_CFGR_MCO2 | RCC_CFGR_MCO2PRE), (RCC_MCOSource | (RCC_MCODiv << 3U)))
 823:/home/vtrnnhlinh/STM32Cube/Repository/STM32Cube_FW_F4_V1.28.0/Drivers/STM32F4xx_HAL_Driver/Src/stm32f4xx_hal_rcc.c **** 
 824:/home/vtrnnhlinh/STM32Cube/Repository/STM32Cube_FW_F4_V1.28.0/Drivers/STM32F4xx_HAL_Driver/Src/stm32f4xx_hal_rcc.c ****    /* This RCC MCO2 enable feature is available only on STM32F410Rx devices */
 825:/home/vtrnnhlinh/STM32Cube/Repository/STM32Cube_FW_F4_V1.28.0/Drivers/STM32F4xx_HAL_Driver/Src/stm32f4xx_hal_rcc.c **** #if defined(RCC_CFGR_MCO2EN)
 826:/home/vtrnnhlinh/STM32Cube/Repository/STM32Cube_FW_F4_V1.28.0/Drivers/STM32F4xx_HAL_Driver/Src/stm32f4xx_hal_rcc.c ****     __HAL_RCC_MCO2_ENABLE();
 827:/home/vtrnnhlinh/STM32Cube/Repository/STM32Cube_FW_F4_V1.28.0/Drivers/STM32F4xx_HAL_Driver/Src/stm32f4xx_hal_rcc.c **** #endif /* RCC_CFGR_MCO2EN */
 828:/home/vtrnnhlinh/STM32Cube/Repository/STM32Cube_FW_F4_V1.28.0/Drivers/STM32F4xx_HAL_Driver/Src/stm32f4xx_hal_rcc.c ****   }
 829:/home/vtrnnhlinh/STM32Cube/Repository/STM32Cube_FW_F4_V1.28.0/Drivers/STM32F4xx_HAL_Driver/Src/stm32f4xx_hal_rcc.c **** #endif /* RCC_CFGR_MCO2 */
 830:/home/vtrnnhlinh/STM32Cube/Repository/STM32Cube_FW_F4_V1.28.0/Drivers/STM32F4xx_HAL_Driver/Src/stm32f4xx_hal_rcc.c **** }
 1199              		.loc 1 830 1 view .LVU346
 1200 007e 08B0     		add	sp, sp, #32
 1201              	.LCFI8:
 1202              		.cfi_remember_state
 1203              		.cfi_def_cfa_offset 16
 1204              		@ sp needed
 1205 0080 70BD     		pop	{r4, r5, r6, pc}
 1206              	.LVL83:
 1207              	.L128:
 1208              	.LCFI9:
 1209              		.cfi_restore_state
 779:/home/vtrnnhlinh/STM32Cube/Repository/STM32Cube_FW_F4_V1.28.0/Drivers/STM32F4xx_HAL_Driver/Src/stm32f4xx_hal_rcc.c ****   assert_param(IS_RCC_MCODIV(RCC_MCODiv));
 1210              		.loc 1 779 3 discriminator 1 view .LVU347
 1211 0082 40F20B31 		movw	r1, #779
 1212              	.LVL84:
 779:/home/vtrnnhlinh/STM32Cube/Repository/STM32Cube_FW_F4_V1.28.0/Drivers/STM32F4xx_HAL_Driver/Src/stm32f4xx_hal_rcc.c ****   assert_param(IS_RCC_MCODIV(RCC_MCODiv));
ARM GAS  /tmp/ccz6Q3rQ.s 			page 39


 1213              		.loc 1 779 3 discriminator 1 view .LVU348
 1214 0086 2248     		ldr	r0, .L132+8
 1215              	.LVL85:
 779:/home/vtrnnhlinh/STM32Cube/Repository/STM32Cube_FW_F4_V1.28.0/Drivers/STM32F4xx_HAL_Driver/Src/stm32f4xx_hal_rcc.c ****   assert_param(IS_RCC_MCODIV(RCC_MCODiv));
 1216              		.loc 1 779 3 discriminator 1 view .LVU349
 1217 0088 FFF7FEFF 		bl	assert_failed
 1218              	.LVL86:
 779:/home/vtrnnhlinh/STM32Cube/Repository/STM32Cube_FW_F4_V1.28.0/Drivers/STM32F4xx_HAL_Driver/Src/stm32f4xx_hal_rcc.c ****   assert_param(IS_RCC_MCODIV(RCC_MCODiv));
 1219              		.loc 1 779 3 discriminator 1 view .LVU350
 1220 008c BFE7     		b	.L121
 1221              	.L129:
 780:/home/vtrnnhlinh/STM32Cube/Repository/STM32Cube_FW_F4_V1.28.0/Drivers/STM32F4xx_HAL_Driver/Src/stm32f4xx_hal_rcc.c ****   /* RCC_MCO1 */
 1222              		.loc 1 780 3 discriminator 5 view .LVU351
 1223 008e 4FF44371 		mov	r1, #780
 1224 0092 1F48     		ldr	r0, .L132+8
 1225 0094 FFF7FEFF 		bl	assert_failed
 1226              	.LVL87:
 1227 0098 C6E7     		b	.L122
 1228              	.L130:
 784:/home/vtrnnhlinh/STM32Cube/Repository/STM32Cube_FW_F4_V1.28.0/Drivers/STM32F4xx_HAL_Driver/Src/stm32f4xx_hal_rcc.c **** 
 1229              		.loc 1 784 5 discriminator 4 view .LVU352
 1230 009a 4FF44471 		mov	r1, #784
 1231 009e 1C48     		ldr	r0, .L132+8
 1232 00a0 FFF7FEFF 		bl	assert_failed
 1233              	.LVL88:
 1234 00a4 CCE7     		b	.L124
 1235              	.L123:
 808:/home/vtrnnhlinh/STM32Cube/Repository/STM32Cube_FW_F4_V1.28.0/Drivers/STM32F4xx_HAL_Driver/Src/stm32f4xx_hal_rcc.c **** 
 1236              		.loc 1 808 5 is_stmt 1 view .LVU353
 1237 00a6 45B1     		cbz	r5, .L126
 808:/home/vtrnnhlinh/STM32Cube/Repository/STM32Cube_FW_F4_V1.28.0/Drivers/STM32F4xx_HAL_Driver/Src/stm32f4xx_hal_rcc.c **** 
 1238              		.loc 1 808 5 is_stmt 0 discriminator 1 view .LVU354
 1239 00a8 B5F1804F 		cmp	r5, #1073741824
 1240 00ac 05D0     		beq	.L126
 808:/home/vtrnnhlinh/STM32Cube/Repository/STM32Cube_FW_F4_V1.28.0/Drivers/STM32F4xx_HAL_Driver/Src/stm32f4xx_hal_rcc.c **** 
 1241              		.loc 1 808 5 discriminator 2 view .LVU355
 1242 00ae B5F1004F 		cmp	r5, #-2147483648
 1243 00b2 02D0     		beq	.L126
 808:/home/vtrnnhlinh/STM32Cube/Repository/STM32Cube_FW_F4_V1.28.0/Drivers/STM32F4xx_HAL_Driver/Src/stm32f4xx_hal_rcc.c **** 
 1244              		.loc 1 808 5 discriminator 3 view .LVU356
 1245 00b4 B5F1404F 		cmp	r5, #-1073741824
 1246 00b8 20D1     		bne	.L131
 1247              	.L126:
 811:/home/vtrnnhlinh/STM32Cube/Repository/STM32Cube_FW_F4_V1.28.0/Drivers/STM32F4xx_HAL_Driver/Src/stm32f4xx_hal_rcc.c **** 
 1248              		.loc 1 811 5 is_stmt 1 view .LVU357
 1249              	.LBB6:
 811:/home/vtrnnhlinh/STM32Cube/Repository/STM32Cube_FW_F4_V1.28.0/Drivers/STM32F4xx_HAL_Driver/Src/stm32f4xx_hal_rcc.c **** 
 1250              		.loc 1 811 5 view .LVU358
 1251 00ba 0023     		movs	r3, #0
 1252 00bc 0293     		str	r3, [sp, #8]
 811:/home/vtrnnhlinh/STM32Cube/Repository/STM32Cube_FW_F4_V1.28.0/Drivers/STM32F4xx_HAL_Driver/Src/stm32f4xx_hal_rcc.c **** 
 1253              		.loc 1 811 5 view .LVU359
 1254 00be 124E     		ldr	r6, .L132
 1255              	.LVL89:
 811:/home/vtrnnhlinh/STM32Cube/Repository/STM32Cube_FW_F4_V1.28.0/Drivers/STM32F4xx_HAL_Driver/Src/stm32f4xx_hal_rcc.c **** 
 1256              		.loc 1 811 5 is_stmt 0 view .LVU360
 1257 00c0 326B     		ldr	r2, [r6, #48]
ARM GAS  /tmp/ccz6Q3rQ.s 			page 40


 1258 00c2 42F00402 		orr	r2, r2, #4
 1259 00c6 3263     		str	r2, [r6, #48]
 811:/home/vtrnnhlinh/STM32Cube/Repository/STM32Cube_FW_F4_V1.28.0/Drivers/STM32F4xx_HAL_Driver/Src/stm32f4xx_hal_rcc.c **** 
 1260              		.loc 1 811 5 is_stmt 1 view .LVU361
 1261 00c8 326B     		ldr	r2, [r6, #48]
 1262 00ca 02F00402 		and	r2, r2, #4
 1263 00ce 0292     		str	r2, [sp, #8]
 811:/home/vtrnnhlinh/STM32Cube/Repository/STM32Cube_FW_F4_V1.28.0/Drivers/STM32F4xx_HAL_Driver/Src/stm32f4xx_hal_rcc.c **** 
 1264              		.loc 1 811 5 view .LVU362
 1265 00d0 029A     		ldr	r2, [sp, #8]
 1266              	.LBE6:
 811:/home/vtrnnhlinh/STM32Cube/Repository/STM32Cube_FW_F4_V1.28.0/Drivers/STM32F4xx_HAL_Driver/Src/stm32f4xx_hal_rcc.c **** 
 1267              		.loc 1 811 5 view .LVU363
 814:/home/vtrnnhlinh/STM32Cube/Repository/STM32Cube_FW_F4_V1.28.0/Drivers/STM32F4xx_HAL_Driver/Src/stm32f4xx_hal_rcc.c ****     GPIO_InitStruct.Mode = GPIO_MODE_AF_PP;
 1268              		.loc 1 814 5 view .LVU364
 814:/home/vtrnnhlinh/STM32Cube/Repository/STM32Cube_FW_F4_V1.28.0/Drivers/STM32F4xx_HAL_Driver/Src/stm32f4xx_hal_rcc.c ****     GPIO_InitStruct.Mode = GPIO_MODE_AF_PP;
 1269              		.loc 1 814 25 is_stmt 0 view .LVU365
 1270 00d2 4FF40072 		mov	r2, #512
 1271 00d6 0392     		str	r2, [sp, #12]
 815:/home/vtrnnhlinh/STM32Cube/Repository/STM32Cube_FW_F4_V1.28.0/Drivers/STM32F4xx_HAL_Driver/Src/stm32f4xx_hal_rcc.c ****     GPIO_InitStruct.Speed = GPIO_SPEED_FREQ_VERY_HIGH;
 1272              		.loc 1 815 5 is_stmt 1 view .LVU366
 815:/home/vtrnnhlinh/STM32Cube/Repository/STM32Cube_FW_F4_V1.28.0/Drivers/STM32F4xx_HAL_Driver/Src/stm32f4xx_hal_rcc.c ****     GPIO_InitStruct.Speed = GPIO_SPEED_FREQ_VERY_HIGH;
 1273              		.loc 1 815 26 is_stmt 0 view .LVU367
 1274 00d8 0222     		movs	r2, #2
 1275 00da 0492     		str	r2, [sp, #16]
 816:/home/vtrnnhlinh/STM32Cube/Repository/STM32Cube_FW_F4_V1.28.0/Drivers/STM32F4xx_HAL_Driver/Src/stm32f4xx_hal_rcc.c ****     GPIO_InitStruct.Pull = GPIO_NOPULL;
 1276              		.loc 1 816 5 is_stmt 1 view .LVU368
 816:/home/vtrnnhlinh/STM32Cube/Repository/STM32Cube_FW_F4_V1.28.0/Drivers/STM32F4xx_HAL_Driver/Src/stm32f4xx_hal_rcc.c ****     GPIO_InitStruct.Pull = GPIO_NOPULL;
 1277              		.loc 1 816 27 is_stmt 0 view .LVU369
 1278 00dc 0322     		movs	r2, #3
 1279 00de 0692     		str	r2, [sp, #24]
 817:/home/vtrnnhlinh/STM32Cube/Repository/STM32Cube_FW_F4_V1.28.0/Drivers/STM32F4xx_HAL_Driver/Src/stm32f4xx_hal_rcc.c ****     GPIO_InitStruct.Alternate = GPIO_AF0_MCO;
 1280              		.loc 1 817 5 is_stmt 1 view .LVU370
 817:/home/vtrnnhlinh/STM32Cube/Repository/STM32Cube_FW_F4_V1.28.0/Drivers/STM32F4xx_HAL_Driver/Src/stm32f4xx_hal_rcc.c ****     GPIO_InitStruct.Alternate = GPIO_AF0_MCO;
 1281              		.loc 1 817 26 is_stmt 0 view .LVU371
 1282 00e0 0593     		str	r3, [sp, #20]
 818:/home/vtrnnhlinh/STM32Cube/Repository/STM32Cube_FW_F4_V1.28.0/Drivers/STM32F4xx_HAL_Driver/Src/stm32f4xx_hal_rcc.c ****     HAL_GPIO_Init(MCO2_GPIO_PORT, &GPIO_InitStruct);
 1283              		.loc 1 818 5 is_stmt 1 view .LVU372
 818:/home/vtrnnhlinh/STM32Cube/Repository/STM32Cube_FW_F4_V1.28.0/Drivers/STM32F4xx_HAL_Driver/Src/stm32f4xx_hal_rcc.c ****     HAL_GPIO_Init(MCO2_GPIO_PORT, &GPIO_InitStruct);
 1284              		.loc 1 818 31 is_stmt 0 view .LVU373
 1285 00e2 0793     		str	r3, [sp, #28]
 819:/home/vtrnnhlinh/STM32Cube/Repository/STM32Cube_FW_F4_V1.28.0/Drivers/STM32F4xx_HAL_Driver/Src/stm32f4xx_hal_rcc.c **** 
 1286              		.loc 1 819 5 is_stmt 1 view .LVU374
 1287 00e4 03A9     		add	r1, sp, #12
 1288 00e6 0B48     		ldr	r0, .L132+12
 1289 00e8 FFF7FEFF 		bl	HAL_GPIO_Init
 1290              	.LVL90:
 822:/home/vtrnnhlinh/STM32Cube/Repository/STM32Cube_FW_F4_V1.28.0/Drivers/STM32F4xx_HAL_Driver/Src/stm32f4xx_hal_rcc.c **** 
 1291              		.loc 1 822 5 view .LVU375
 1292 00ec B268     		ldr	r2, [r6, #8]
 1293 00ee 22F07842 		bic	r2, r2, #-134217728
 1294 00f2 45EAC404 		orr	r4, r5, r4, lsl #3
 1295              	.LVL91:
 822:/home/vtrnnhlinh/STM32Cube/Repository/STM32Cube_FW_F4_V1.28.0/Drivers/STM32F4xx_HAL_Driver/Src/stm32f4xx_hal_rcc.c **** 
 1296              		.loc 1 822 5 is_stmt 0 view .LVU376
 1297 00f6 1443     		orrs	r4, r4, r2
 1298 00f8 B460     		str	r4, [r6, #8]
ARM GAS  /tmp/ccz6Q3rQ.s 			page 41


 1299              		.loc 1 830 1 view .LVU377
 1300 00fa C0E7     		b	.L120
 1301              	.LVL92:
 1302              	.L131:
 808:/home/vtrnnhlinh/STM32Cube/Repository/STM32Cube_FW_F4_V1.28.0/Drivers/STM32F4xx_HAL_Driver/Src/stm32f4xx_hal_rcc.c **** 
 1303              		.loc 1 808 5 discriminator 4 view .LVU378
 1304 00fc 4FF44A71 		mov	r1, #808
 1305 0100 0348     		ldr	r0, .L132+8
 1306 0102 FFF7FEFF 		bl	assert_failed
 1307              	.LVL93:
 1308 0106 D8E7     		b	.L126
 1309              	.L133:
 1310              		.align	2
 1311              	.L132:
 1312 0108 00380240 		.word	1073887232
 1313 010c 00000240 		.word	1073872896
 1314 0110 00000000 		.word	.LC0
 1315 0114 00080240 		.word	1073874944
 1316              		.cfi_endproc
 1317              	.LFE137:
 1319              		.section	.text.HAL_RCC_EnableCSS,"ax",%progbits
 1320              		.align	1
 1321              		.global	HAL_RCC_EnableCSS
 1322              		.syntax unified
 1323              		.thumb
 1324              		.thumb_func
 1325              		.fpu fpv4-sp-d16
 1327              	HAL_RCC_EnableCSS:
 1328              	.LFB138:
 831:/home/vtrnnhlinh/STM32Cube/Repository/STM32Cube_FW_F4_V1.28.0/Drivers/STM32F4xx_HAL_Driver/Src/stm32f4xx_hal_rcc.c **** 
 832:/home/vtrnnhlinh/STM32Cube/Repository/STM32Cube_FW_F4_V1.28.0/Drivers/STM32F4xx_HAL_Driver/Src/stm32f4xx_hal_rcc.c **** /**
 833:/home/vtrnnhlinh/STM32Cube/Repository/STM32Cube_FW_F4_V1.28.0/Drivers/STM32F4xx_HAL_Driver/Src/stm32f4xx_hal_rcc.c ****   * @brief  Enables the Clock Security System.
 834:/home/vtrnnhlinh/STM32Cube/Repository/STM32Cube_FW_F4_V1.28.0/Drivers/STM32F4xx_HAL_Driver/Src/stm32f4xx_hal_rcc.c ****   * @note   If a failure is detected on the HSE oscillator clock, this oscillator
 835:/home/vtrnnhlinh/STM32Cube/Repository/STM32Cube_FW_F4_V1.28.0/Drivers/STM32F4xx_HAL_Driver/Src/stm32f4xx_hal_rcc.c ****   *         is automatically disabled and an interrupt is generated to inform the
 836:/home/vtrnnhlinh/STM32Cube/Repository/STM32Cube_FW_F4_V1.28.0/Drivers/STM32F4xx_HAL_Driver/Src/stm32f4xx_hal_rcc.c ****   *         software about the failure (Clock Security System Interrupt, CSSI),
 837:/home/vtrnnhlinh/STM32Cube/Repository/STM32Cube_FW_F4_V1.28.0/Drivers/STM32F4xx_HAL_Driver/Src/stm32f4xx_hal_rcc.c ****   *         allowing the MCU to perform rescue operations. The CSSI is linked to
 838:/home/vtrnnhlinh/STM32Cube/Repository/STM32Cube_FW_F4_V1.28.0/Drivers/STM32F4xx_HAL_Driver/Src/stm32f4xx_hal_rcc.c ****   *         the Cortex-M4 NMI (Non-Maskable Interrupt) exception vector.
 839:/home/vtrnnhlinh/STM32Cube/Repository/STM32Cube_FW_F4_V1.28.0/Drivers/STM32F4xx_HAL_Driver/Src/stm32f4xx_hal_rcc.c ****   * @retval None
 840:/home/vtrnnhlinh/STM32Cube/Repository/STM32Cube_FW_F4_V1.28.0/Drivers/STM32F4xx_HAL_Driver/Src/stm32f4xx_hal_rcc.c ****   */
 841:/home/vtrnnhlinh/STM32Cube/Repository/STM32Cube_FW_F4_V1.28.0/Drivers/STM32F4xx_HAL_Driver/Src/stm32f4xx_hal_rcc.c **** void HAL_RCC_EnableCSS(void)
 842:/home/vtrnnhlinh/STM32Cube/Repository/STM32Cube_FW_F4_V1.28.0/Drivers/STM32F4xx_HAL_Driver/Src/stm32f4xx_hal_rcc.c **** {
 1329              		.loc 1 842 1 is_stmt 1 view -0
 1330              		.cfi_startproc
 1331              		@ args = 0, pretend = 0, frame = 0
 1332              		@ frame_needed = 0, uses_anonymous_args = 0
 1333              		@ link register save eliminated.
 843:/home/vtrnnhlinh/STM32Cube/Repository/STM32Cube_FW_F4_V1.28.0/Drivers/STM32F4xx_HAL_Driver/Src/stm32f4xx_hal_rcc.c ****   *(__IO uint32_t *) RCC_CR_CSSON_BB = (uint32_t)ENABLE;
 1334              		.loc 1 843 3 view .LVU380
 1335              		.loc 1 843 38 is_stmt 0 view .LVU381
 1336 0000 014B     		ldr	r3, .L135
 1337 0002 0122     		movs	r2, #1
 1338 0004 DA64     		str	r2, [r3, #76]
 844:/home/vtrnnhlinh/STM32Cube/Repository/STM32Cube_FW_F4_V1.28.0/Drivers/STM32F4xx_HAL_Driver/Src/stm32f4xx_hal_rcc.c **** }
 1339              		.loc 1 844 1 view .LVU382
 1340 0006 7047     		bx	lr
 1341              	.L136:
 1342              		.align	2
ARM GAS  /tmp/ccz6Q3rQ.s 			page 42


 1343              	.L135:
 1344 0008 00004742 		.word	1111949312
 1345              		.cfi_endproc
 1346              	.LFE138:
 1348              		.section	.text.HAL_RCC_DisableCSS,"ax",%progbits
 1349              		.align	1
 1350              		.global	HAL_RCC_DisableCSS
 1351              		.syntax unified
 1352              		.thumb
 1353              		.thumb_func
 1354              		.fpu fpv4-sp-d16
 1356              	HAL_RCC_DisableCSS:
 1357              	.LFB139:
 845:/home/vtrnnhlinh/STM32Cube/Repository/STM32Cube_FW_F4_V1.28.0/Drivers/STM32F4xx_HAL_Driver/Src/stm32f4xx_hal_rcc.c **** 
 846:/home/vtrnnhlinh/STM32Cube/Repository/STM32Cube_FW_F4_V1.28.0/Drivers/STM32F4xx_HAL_Driver/Src/stm32f4xx_hal_rcc.c **** /**
 847:/home/vtrnnhlinh/STM32Cube/Repository/STM32Cube_FW_F4_V1.28.0/Drivers/STM32F4xx_HAL_Driver/Src/stm32f4xx_hal_rcc.c ****   * @brief  Disables the Clock Security System.
 848:/home/vtrnnhlinh/STM32Cube/Repository/STM32Cube_FW_F4_V1.28.0/Drivers/STM32F4xx_HAL_Driver/Src/stm32f4xx_hal_rcc.c ****   * @retval None
 849:/home/vtrnnhlinh/STM32Cube/Repository/STM32Cube_FW_F4_V1.28.0/Drivers/STM32F4xx_HAL_Driver/Src/stm32f4xx_hal_rcc.c ****   */
 850:/home/vtrnnhlinh/STM32Cube/Repository/STM32Cube_FW_F4_V1.28.0/Drivers/STM32F4xx_HAL_Driver/Src/stm32f4xx_hal_rcc.c **** void HAL_RCC_DisableCSS(void)
 851:/home/vtrnnhlinh/STM32Cube/Repository/STM32Cube_FW_F4_V1.28.0/Drivers/STM32F4xx_HAL_Driver/Src/stm32f4xx_hal_rcc.c **** {
 1358              		.loc 1 851 1 is_stmt 1 view -0
 1359              		.cfi_startproc
 1360              		@ args = 0, pretend = 0, frame = 0
 1361              		@ frame_needed = 0, uses_anonymous_args = 0
 1362              		@ link register save eliminated.
 852:/home/vtrnnhlinh/STM32Cube/Repository/STM32Cube_FW_F4_V1.28.0/Drivers/STM32F4xx_HAL_Driver/Src/stm32f4xx_hal_rcc.c ****   *(__IO uint32_t *) RCC_CR_CSSON_BB = (uint32_t)DISABLE;
 1363              		.loc 1 852 3 view .LVU384
 1364              		.loc 1 852 38 is_stmt 0 view .LVU385
 1365 0000 014B     		ldr	r3, .L138
 1366 0002 0022     		movs	r2, #0
 1367 0004 DA64     		str	r2, [r3, #76]
 853:/home/vtrnnhlinh/STM32Cube/Repository/STM32Cube_FW_F4_V1.28.0/Drivers/STM32F4xx_HAL_Driver/Src/stm32f4xx_hal_rcc.c **** }
 1368              		.loc 1 853 1 view .LVU386
 1369 0006 7047     		bx	lr
 1370              	.L139:
 1371              		.align	2
 1372              	.L138:
 1373 0008 00004742 		.word	1111949312
 1374              		.cfi_endproc
 1375              	.LFE139:
 1377              		.global	__aeabi_uldivmod
 1378              		.section	.text.HAL_RCC_GetSysClockFreq,"ax",%progbits
 1379              		.align	1
 1380              		.weak	HAL_RCC_GetSysClockFreq
 1381              		.syntax unified
 1382              		.thumb
 1383              		.thumb_func
 1384              		.fpu fpv4-sp-d16
 1386              	HAL_RCC_GetSysClockFreq:
 1387              	.LFB140:
 854:/home/vtrnnhlinh/STM32Cube/Repository/STM32Cube_FW_F4_V1.28.0/Drivers/STM32F4xx_HAL_Driver/Src/stm32f4xx_hal_rcc.c **** 
 855:/home/vtrnnhlinh/STM32Cube/Repository/STM32Cube_FW_F4_V1.28.0/Drivers/STM32F4xx_HAL_Driver/Src/stm32f4xx_hal_rcc.c **** /**
 856:/home/vtrnnhlinh/STM32Cube/Repository/STM32Cube_FW_F4_V1.28.0/Drivers/STM32F4xx_HAL_Driver/Src/stm32f4xx_hal_rcc.c ****   * @brief  Returns the SYSCLK frequency
 857:/home/vtrnnhlinh/STM32Cube/Repository/STM32Cube_FW_F4_V1.28.0/Drivers/STM32F4xx_HAL_Driver/Src/stm32f4xx_hal_rcc.c ****   *
 858:/home/vtrnnhlinh/STM32Cube/Repository/STM32Cube_FW_F4_V1.28.0/Drivers/STM32F4xx_HAL_Driver/Src/stm32f4xx_hal_rcc.c ****   * @note   The system frequency computed by this function is not the real
 859:/home/vtrnnhlinh/STM32Cube/Repository/STM32Cube_FW_F4_V1.28.0/Drivers/STM32F4xx_HAL_Driver/Src/stm32f4xx_hal_rcc.c ****   *         frequency in the chip. It is calculated based on the predefined
 860:/home/vtrnnhlinh/STM32Cube/Repository/STM32Cube_FW_F4_V1.28.0/Drivers/STM32F4xx_HAL_Driver/Src/stm32f4xx_hal_rcc.c ****   *         constant and the selected clock source:
ARM GAS  /tmp/ccz6Q3rQ.s 			page 43


 861:/home/vtrnnhlinh/STM32Cube/Repository/STM32Cube_FW_F4_V1.28.0/Drivers/STM32F4xx_HAL_Driver/Src/stm32f4xx_hal_rcc.c ****   * @note     If SYSCLK source is HSI, function returns values based on HSI_VALUE(*)
 862:/home/vtrnnhlinh/STM32Cube/Repository/STM32Cube_FW_F4_V1.28.0/Drivers/STM32F4xx_HAL_Driver/Src/stm32f4xx_hal_rcc.c ****   * @note     If SYSCLK source is HSE, function returns values based on HSE_VALUE(**)
 863:/home/vtrnnhlinh/STM32Cube/Repository/STM32Cube_FW_F4_V1.28.0/Drivers/STM32F4xx_HAL_Driver/Src/stm32f4xx_hal_rcc.c ****   * @note     If SYSCLK source is PLL, function returns values based on HSE_VALUE(**)
 864:/home/vtrnnhlinh/STM32Cube/Repository/STM32Cube_FW_F4_V1.28.0/Drivers/STM32F4xx_HAL_Driver/Src/stm32f4xx_hal_rcc.c ****   *           or HSI_VALUE(*) multiplied/divided by the PLL factors.
 865:/home/vtrnnhlinh/STM32Cube/Repository/STM32Cube_FW_F4_V1.28.0/Drivers/STM32F4xx_HAL_Driver/Src/stm32f4xx_hal_rcc.c ****   * @note     (*) HSI_VALUE is a constant defined in stm32f4xx_hal_conf.h file (default value
 866:/home/vtrnnhlinh/STM32Cube/Repository/STM32Cube_FW_F4_V1.28.0/Drivers/STM32F4xx_HAL_Driver/Src/stm32f4xx_hal_rcc.c ****   *               16 MHz) but the real value may vary depending on the variations
 867:/home/vtrnnhlinh/STM32Cube/Repository/STM32Cube_FW_F4_V1.28.0/Drivers/STM32F4xx_HAL_Driver/Src/stm32f4xx_hal_rcc.c ****   *               in voltage and temperature.
 868:/home/vtrnnhlinh/STM32Cube/Repository/STM32Cube_FW_F4_V1.28.0/Drivers/STM32F4xx_HAL_Driver/Src/stm32f4xx_hal_rcc.c ****   * @note     (**) HSE_VALUE is a constant defined in stm32f4xx_hal_conf.h file (default value
 869:/home/vtrnnhlinh/STM32Cube/Repository/STM32Cube_FW_F4_V1.28.0/Drivers/STM32F4xx_HAL_Driver/Src/stm32f4xx_hal_rcc.c ****   *                25 MHz), user has to ensure that HSE_VALUE is same as the real
 870:/home/vtrnnhlinh/STM32Cube/Repository/STM32Cube_FW_F4_V1.28.0/Drivers/STM32F4xx_HAL_Driver/Src/stm32f4xx_hal_rcc.c ****   *                frequency of the crystal used. Otherwise, this function may
 871:/home/vtrnnhlinh/STM32Cube/Repository/STM32Cube_FW_F4_V1.28.0/Drivers/STM32F4xx_HAL_Driver/Src/stm32f4xx_hal_rcc.c ****   *                have wrong result.
 872:/home/vtrnnhlinh/STM32Cube/Repository/STM32Cube_FW_F4_V1.28.0/Drivers/STM32F4xx_HAL_Driver/Src/stm32f4xx_hal_rcc.c ****   *
 873:/home/vtrnnhlinh/STM32Cube/Repository/STM32Cube_FW_F4_V1.28.0/Drivers/STM32F4xx_HAL_Driver/Src/stm32f4xx_hal_rcc.c ****   * @note   The result of this function could be not correct when using fractional
 874:/home/vtrnnhlinh/STM32Cube/Repository/STM32Cube_FW_F4_V1.28.0/Drivers/STM32F4xx_HAL_Driver/Src/stm32f4xx_hal_rcc.c ****   *         value for HSE crystal.
 875:/home/vtrnnhlinh/STM32Cube/Repository/STM32Cube_FW_F4_V1.28.0/Drivers/STM32F4xx_HAL_Driver/Src/stm32f4xx_hal_rcc.c ****   *
 876:/home/vtrnnhlinh/STM32Cube/Repository/STM32Cube_FW_F4_V1.28.0/Drivers/STM32F4xx_HAL_Driver/Src/stm32f4xx_hal_rcc.c ****   * @note   This function can be used by the user application to compute the
 877:/home/vtrnnhlinh/STM32Cube/Repository/STM32Cube_FW_F4_V1.28.0/Drivers/STM32F4xx_HAL_Driver/Src/stm32f4xx_hal_rcc.c ****   *         baudrate for the communication peripherals or configure other parameters.
 878:/home/vtrnnhlinh/STM32Cube/Repository/STM32Cube_FW_F4_V1.28.0/Drivers/STM32F4xx_HAL_Driver/Src/stm32f4xx_hal_rcc.c ****   *
 879:/home/vtrnnhlinh/STM32Cube/Repository/STM32Cube_FW_F4_V1.28.0/Drivers/STM32F4xx_HAL_Driver/Src/stm32f4xx_hal_rcc.c ****   * @note   Each time SYSCLK changes, this function must be called to update the
 880:/home/vtrnnhlinh/STM32Cube/Repository/STM32Cube_FW_F4_V1.28.0/Drivers/STM32F4xx_HAL_Driver/Src/stm32f4xx_hal_rcc.c ****   *         right SYSCLK value. Otherwise, any configuration based on this function will be incorre
 881:/home/vtrnnhlinh/STM32Cube/Repository/STM32Cube_FW_F4_V1.28.0/Drivers/STM32F4xx_HAL_Driver/Src/stm32f4xx_hal_rcc.c ****   *
 882:/home/vtrnnhlinh/STM32Cube/Repository/STM32Cube_FW_F4_V1.28.0/Drivers/STM32F4xx_HAL_Driver/Src/stm32f4xx_hal_rcc.c ****   *
 883:/home/vtrnnhlinh/STM32Cube/Repository/STM32Cube_FW_F4_V1.28.0/Drivers/STM32F4xx_HAL_Driver/Src/stm32f4xx_hal_rcc.c ****   * @retval SYSCLK frequency
 884:/home/vtrnnhlinh/STM32Cube/Repository/STM32Cube_FW_F4_V1.28.0/Drivers/STM32F4xx_HAL_Driver/Src/stm32f4xx_hal_rcc.c ****   */
 885:/home/vtrnnhlinh/STM32Cube/Repository/STM32Cube_FW_F4_V1.28.0/Drivers/STM32F4xx_HAL_Driver/Src/stm32f4xx_hal_rcc.c **** __weak uint32_t HAL_RCC_GetSysClockFreq(void)
 886:/home/vtrnnhlinh/STM32Cube/Repository/STM32Cube_FW_F4_V1.28.0/Drivers/STM32F4xx_HAL_Driver/Src/stm32f4xx_hal_rcc.c **** {
 1388              		.loc 1 886 1 is_stmt 1 view -0
 1389              		.cfi_startproc
 1390              		@ args = 0, pretend = 0, frame = 0
 1391              		@ frame_needed = 0, uses_anonymous_args = 0
 1392 0000 08B5     		push	{r3, lr}
 1393              	.LCFI10:
 1394              		.cfi_def_cfa_offset 8
 1395              		.cfi_offset 3, -8
 1396              		.cfi_offset 14, -4
 887:/home/vtrnnhlinh/STM32Cube/Repository/STM32Cube_FW_F4_V1.28.0/Drivers/STM32F4xx_HAL_Driver/Src/stm32f4xx_hal_rcc.c ****   uint32_t pllm = 0U, pllvco = 0U, pllp = 0U;
 1397              		.loc 1 887 3 view .LVU388
 1398              	.LVL94:
 888:/home/vtrnnhlinh/STM32Cube/Repository/STM32Cube_FW_F4_V1.28.0/Drivers/STM32F4xx_HAL_Driver/Src/stm32f4xx_hal_rcc.c ****   uint32_t sysclockfreq = 0U;
 1399              		.loc 1 888 3 view .LVU389
 889:/home/vtrnnhlinh/STM32Cube/Repository/STM32Cube_FW_F4_V1.28.0/Drivers/STM32F4xx_HAL_Driver/Src/stm32f4xx_hal_rcc.c **** 
 890:/home/vtrnnhlinh/STM32Cube/Repository/STM32Cube_FW_F4_V1.28.0/Drivers/STM32F4xx_HAL_Driver/Src/stm32f4xx_hal_rcc.c ****   /* Get SYSCLK source -------------------------------------------------------*/
 891:/home/vtrnnhlinh/STM32Cube/Repository/STM32Cube_FW_F4_V1.28.0/Drivers/STM32F4xx_HAL_Driver/Src/stm32f4xx_hal_rcc.c ****   switch (RCC->CFGR & RCC_CFGR_SWS)
 1400              		.loc 1 891 3 view .LVU390
 1401              		.loc 1 891 14 is_stmt 0 view .LVU391
 1402 0002 254B     		ldr	r3, .L147
 1403 0004 9B68     		ldr	r3, [r3, #8]
 1404              		.loc 1 891 21 view .LVU392
 1405 0006 03F00C03 		and	r3, r3, #12
 1406              		.loc 1 891 3 view .LVU393
 1407 000a 042B     		cmp	r3, #4
 1408 000c 3FD0     		beq	.L144
 1409 000e 082B     		cmp	r3, #8
 1410 0010 3FD1     		bne	.L145
 892:/home/vtrnnhlinh/STM32Cube/Repository/STM32Cube_FW_F4_V1.28.0/Drivers/STM32F4xx_HAL_Driver/Src/stm32f4xx_hal_rcc.c ****   {
 893:/home/vtrnnhlinh/STM32Cube/Repository/STM32Cube_FW_F4_V1.28.0/Drivers/STM32F4xx_HAL_Driver/Src/stm32f4xx_hal_rcc.c ****     case RCC_CFGR_SWS_HSI:  /* HSI used as system clock source */
 894:/home/vtrnnhlinh/STM32Cube/Repository/STM32Cube_FW_F4_V1.28.0/Drivers/STM32F4xx_HAL_Driver/Src/stm32f4xx_hal_rcc.c ****     {
ARM GAS  /tmp/ccz6Q3rQ.s 			page 44


 895:/home/vtrnnhlinh/STM32Cube/Repository/STM32Cube_FW_F4_V1.28.0/Drivers/STM32F4xx_HAL_Driver/Src/stm32f4xx_hal_rcc.c ****       sysclockfreq = HSI_VALUE;
 896:/home/vtrnnhlinh/STM32Cube/Repository/STM32Cube_FW_F4_V1.28.0/Drivers/STM32F4xx_HAL_Driver/Src/stm32f4xx_hal_rcc.c ****        break;
 897:/home/vtrnnhlinh/STM32Cube/Repository/STM32Cube_FW_F4_V1.28.0/Drivers/STM32F4xx_HAL_Driver/Src/stm32f4xx_hal_rcc.c ****     }
 898:/home/vtrnnhlinh/STM32Cube/Repository/STM32Cube_FW_F4_V1.28.0/Drivers/STM32F4xx_HAL_Driver/Src/stm32f4xx_hal_rcc.c ****     case RCC_CFGR_SWS_HSE:  /* HSE used as system clock  source */
 899:/home/vtrnnhlinh/STM32Cube/Repository/STM32Cube_FW_F4_V1.28.0/Drivers/STM32F4xx_HAL_Driver/Src/stm32f4xx_hal_rcc.c ****     {
 900:/home/vtrnnhlinh/STM32Cube/Repository/STM32Cube_FW_F4_V1.28.0/Drivers/STM32F4xx_HAL_Driver/Src/stm32f4xx_hal_rcc.c ****       sysclockfreq = HSE_VALUE;
 901:/home/vtrnnhlinh/STM32Cube/Repository/STM32Cube_FW_F4_V1.28.0/Drivers/STM32F4xx_HAL_Driver/Src/stm32f4xx_hal_rcc.c ****       break;
 902:/home/vtrnnhlinh/STM32Cube/Repository/STM32Cube_FW_F4_V1.28.0/Drivers/STM32F4xx_HAL_Driver/Src/stm32f4xx_hal_rcc.c ****     }
 903:/home/vtrnnhlinh/STM32Cube/Repository/STM32Cube_FW_F4_V1.28.0/Drivers/STM32F4xx_HAL_Driver/Src/stm32f4xx_hal_rcc.c ****     case RCC_CFGR_SWS_PLL:  /* PLL used as system clock  source */
 904:/home/vtrnnhlinh/STM32Cube/Repository/STM32Cube_FW_F4_V1.28.0/Drivers/STM32F4xx_HAL_Driver/Src/stm32f4xx_hal_rcc.c ****     {
 905:/home/vtrnnhlinh/STM32Cube/Repository/STM32Cube_FW_F4_V1.28.0/Drivers/STM32F4xx_HAL_Driver/Src/stm32f4xx_hal_rcc.c ****       /* PLL_VCO = (HSE_VALUE or HSI_VALUE / PLLM) * PLLN
 906:/home/vtrnnhlinh/STM32Cube/Repository/STM32Cube_FW_F4_V1.28.0/Drivers/STM32F4xx_HAL_Driver/Src/stm32f4xx_hal_rcc.c ****       SYSCLK = PLL_VCO / PLLP */
 907:/home/vtrnnhlinh/STM32Cube/Repository/STM32Cube_FW_F4_V1.28.0/Drivers/STM32F4xx_HAL_Driver/Src/stm32f4xx_hal_rcc.c ****       pllm = RCC->PLLCFGR & RCC_PLLCFGR_PLLM;
 1411              		.loc 1 907 7 is_stmt 1 view .LVU394
 1412              		.loc 1 907 17 is_stmt 0 view .LVU395
 1413 0012 214B     		ldr	r3, .L147
 1414 0014 5A68     		ldr	r2, [r3, #4]
 1415              		.loc 1 907 12 view .LVU396
 1416 0016 02F03F02 		and	r2, r2, #63
 1417              	.LVL95:
 908:/home/vtrnnhlinh/STM32Cube/Repository/STM32Cube_FW_F4_V1.28.0/Drivers/STM32F4xx_HAL_Driver/Src/stm32f4xx_hal_rcc.c ****       if(__HAL_RCC_GET_PLL_OSCSOURCE() != RCC_PLLSOURCE_HSI)
 1418              		.loc 1 908 7 is_stmt 1 view .LVU397
 1419              		.loc 1 908 10 is_stmt 0 view .LVU398
 1420 001a 5B68     		ldr	r3, [r3, #4]
 1421              		.loc 1 908 9 view .LVU399
 1422 001c 13F4800F 		tst	r3, #4194304
 1423 0020 12D0     		beq	.L142
 909:/home/vtrnnhlinh/STM32Cube/Repository/STM32Cube_FW_F4_V1.28.0/Drivers/STM32F4xx_HAL_Driver/Src/stm32f4xx_hal_rcc.c ****       {
 910:/home/vtrnnhlinh/STM32Cube/Repository/STM32Cube_FW_F4_V1.28.0/Drivers/STM32F4xx_HAL_Driver/Src/stm32f4xx_hal_rcc.c ****         /* HSE used as PLL clock source */
 911:/home/vtrnnhlinh/STM32Cube/Repository/STM32Cube_FW_F4_V1.28.0/Drivers/STM32F4xx_HAL_Driver/Src/stm32f4xx_hal_rcc.c ****         pllvco = (uint32_t) ((((uint64_t) HSE_VALUE * ((uint64_t) ((RCC->PLLCFGR & RCC_PLLCFGR_PLLN
 1424              		.loc 1 911 9 is_stmt 1 view .LVU400
 1425              		.loc 1 911 72 is_stmt 0 view .LVU401
 1426 0022 1D4B     		ldr	r3, .L147
 1427 0024 5968     		ldr	r1, [r3, #4]
 1428              		.loc 1 911 56 view .LVU402
 1429 0026 C1F38811 		ubfx	r1, r1, #6, #9
 1430              		.loc 1 911 53 view .LVU403
 1431 002a 1C48     		ldr	r0, .L147+4
 1432              		.loc 1 911 130 view .LVU404
 1433 002c 0023     		movs	r3, #0
 1434 002e A1FB0001 		umull	r0, r1, r1, r0
 1435 0032 FFF7FEFF 		bl	__aeabi_uldivmod
 1436              	.LVL96:
 1437              	.L143:
 912:/home/vtrnnhlinh/STM32Cube/Repository/STM32Cube_FW_F4_V1.28.0/Drivers/STM32F4xx_HAL_Driver/Src/stm32f4xx_hal_rcc.c ****       }
 913:/home/vtrnnhlinh/STM32Cube/Repository/STM32Cube_FW_F4_V1.28.0/Drivers/STM32F4xx_HAL_Driver/Src/stm32f4xx_hal_rcc.c ****       else
 914:/home/vtrnnhlinh/STM32Cube/Repository/STM32Cube_FW_F4_V1.28.0/Drivers/STM32F4xx_HAL_Driver/Src/stm32f4xx_hal_rcc.c ****       {
 915:/home/vtrnnhlinh/STM32Cube/Repository/STM32Cube_FW_F4_V1.28.0/Drivers/STM32F4xx_HAL_Driver/Src/stm32f4xx_hal_rcc.c ****         /* HSI used as PLL clock source */
 916:/home/vtrnnhlinh/STM32Cube/Repository/STM32Cube_FW_F4_V1.28.0/Drivers/STM32F4xx_HAL_Driver/Src/stm32f4xx_hal_rcc.c ****         pllvco = (uint32_t) ((((uint64_t) HSI_VALUE * ((uint64_t) ((RCC->PLLCFGR & RCC_PLLCFGR_PLLN
 917:/home/vtrnnhlinh/STM32Cube/Repository/STM32Cube_FW_F4_V1.28.0/Drivers/STM32F4xx_HAL_Driver/Src/stm32f4xx_hal_rcc.c ****       }
 918:/home/vtrnnhlinh/STM32Cube/Repository/STM32Cube_FW_F4_V1.28.0/Drivers/STM32F4xx_HAL_Driver/Src/stm32f4xx_hal_rcc.c ****       pllp = ((((RCC->PLLCFGR & RCC_PLLCFGR_PLLP) >> RCC_PLLCFGR_PLLP_Pos) + 1U) *2U);
 1438              		.loc 1 918 7 is_stmt 1 view .LVU405
 1439              		.loc 1 918 21 is_stmt 0 view .LVU406
 1440 0036 184B     		ldr	r3, .L147
 1441 0038 5B68     		ldr	r3, [r3, #4]
 1442              		.loc 1 918 51 view .LVU407
 1443 003a C3F30143 		ubfx	r3, r3, #16, #2
ARM GAS  /tmp/ccz6Q3rQ.s 			page 45


 1444              		.loc 1 918 76 view .LVU408
 1445 003e 0133     		adds	r3, r3, #1
 1446              		.loc 1 918 12 view .LVU409
 1447 0040 5B00     		lsls	r3, r3, #1
 1448              	.LVL97:
 919:/home/vtrnnhlinh/STM32Cube/Repository/STM32Cube_FW_F4_V1.28.0/Drivers/STM32F4xx_HAL_Driver/Src/stm32f4xx_hal_rcc.c **** 
 920:/home/vtrnnhlinh/STM32Cube/Repository/STM32Cube_FW_F4_V1.28.0/Drivers/STM32F4xx_HAL_Driver/Src/stm32f4xx_hal_rcc.c ****       sysclockfreq = pllvco/pllp;
 1449              		.loc 1 920 7 is_stmt 1 view .LVU410
 1450              		.loc 1 920 20 is_stmt 0 view .LVU411
 1451 0042 B0FBF3F0 		udiv	r0, r0, r3
 1452              	.LVL98:
 921:/home/vtrnnhlinh/STM32Cube/Repository/STM32Cube_FW_F4_V1.28.0/Drivers/STM32F4xx_HAL_Driver/Src/stm32f4xx_hal_rcc.c ****       break;
 1453              		.loc 1 921 7 is_stmt 1 view .LVU412
 1454 0046 25E0     		b	.L140
 1455              	.LVL99:
 1456              	.L142:
 916:/home/vtrnnhlinh/STM32Cube/Repository/STM32Cube_FW_F4_V1.28.0/Drivers/STM32F4xx_HAL_Driver/Src/stm32f4xx_hal_rcc.c ****       }
 1457              		.loc 1 916 9 view .LVU413
 916:/home/vtrnnhlinh/STM32Cube/Repository/STM32Cube_FW_F4_V1.28.0/Drivers/STM32F4xx_HAL_Driver/Src/stm32f4xx_hal_rcc.c ****       }
 1458              		.loc 1 916 72 is_stmt 0 view .LVU414
 1459 0048 134B     		ldr	r3, .L147
 1460 004a 5968     		ldr	r1, [r3, #4]
 916:/home/vtrnnhlinh/STM32Cube/Repository/STM32Cube_FW_F4_V1.28.0/Drivers/STM32F4xx_HAL_Driver/Src/stm32f4xx_hal_rcc.c ****       }
 1461              		.loc 1 916 56 view .LVU415
 1462 004c C1F3881C 		ubfx	ip, r1, #6, #9
 916:/home/vtrnnhlinh/STM32Cube/Repository/STM32Cube_FW_F4_V1.28.0/Drivers/STM32F4xx_HAL_Driver/Src/stm32f4xx_hal_rcc.c ****       }
 1463              		.loc 1 916 53 view .LVU416
 1464 0050 4FEA4C11 		lsl	r1, ip, #5
 1465 0054 B1EB0C00 		subs	r0, r1, ip
 1466 0058 6EEB0E0E 		sbc	lr, lr, lr
 1467 005c 4FEA8E13 		lsl	r3, lr, #6
 1468 0060 43EA9063 		orr	r3, r3, r0, lsr #26
 1469 0064 8101     		lsls	r1, r0, #6
 1470 0066 091A     		subs	r1, r1, r0
 1471 0068 63EB0E03 		sbc	r3, r3, lr
 1472 006c DB00     		lsls	r3, r3, #3
 1473 006e 43EA5173 		orr	r3, r3, r1, lsr #29
 1474 0072 C900     		lsls	r1, r1, #3
 1475 0074 11EB0C0C 		adds	ip, r1, ip
 1476 0078 43F10003 		adc	r3, r3, #0
 1477 007c 9902     		lsls	r1, r3, #10
 916:/home/vtrnnhlinh/STM32Cube/Repository/STM32Cube_FW_F4_V1.28.0/Drivers/STM32F4xx_HAL_Driver/Src/stm32f4xx_hal_rcc.c ****       }
 1478              		.loc 1 916 130 view .LVU417
 1479 007e 0023     		movs	r3, #0
 1480 0080 4FEA8C20 		lsl	r0, ip, #10
 1481 0084 41EA9C51 		orr	r1, r1, ip, lsr #22
 1482 0088 FFF7FEFF 		bl	__aeabi_uldivmod
 1483              	.LVL100:
 916:/home/vtrnnhlinh/STM32Cube/Repository/STM32Cube_FW_F4_V1.28.0/Drivers/STM32F4xx_HAL_Driver/Src/stm32f4xx_hal_rcc.c ****       }
 1484              		.loc 1 916 130 view .LVU418
 1485 008c D3E7     		b	.L143
 1486              	.LVL101:
 1487              	.L144:
 900:/home/vtrnnhlinh/STM32Cube/Repository/STM32Cube_FW_F4_V1.28.0/Drivers/STM32F4xx_HAL_Driver/Src/stm32f4xx_hal_rcc.c ****       break;
 1488              		.loc 1 900 20 view .LVU419
 1489 008e 0348     		ldr	r0, .L147+4
 1490 0090 00E0     		b	.L140
ARM GAS  /tmp/ccz6Q3rQ.s 			page 46


 1491              	.L145:
 891:/home/vtrnnhlinh/STM32Cube/Repository/STM32Cube_FW_F4_V1.28.0/Drivers/STM32F4xx_HAL_Driver/Src/stm32f4xx_hal_rcc.c ****   {
 1492              		.loc 1 891 3 view .LVU420
 1493 0092 0348     		ldr	r0, .L147+8
 1494              	.LVL102:
 922:/home/vtrnnhlinh/STM32Cube/Repository/STM32Cube_FW_F4_V1.28.0/Drivers/STM32F4xx_HAL_Driver/Src/stm32f4xx_hal_rcc.c ****     }
 923:/home/vtrnnhlinh/STM32Cube/Repository/STM32Cube_FW_F4_V1.28.0/Drivers/STM32F4xx_HAL_Driver/Src/stm32f4xx_hal_rcc.c ****     default:
 924:/home/vtrnnhlinh/STM32Cube/Repository/STM32Cube_FW_F4_V1.28.0/Drivers/STM32F4xx_HAL_Driver/Src/stm32f4xx_hal_rcc.c ****     {
 925:/home/vtrnnhlinh/STM32Cube/Repository/STM32Cube_FW_F4_V1.28.0/Drivers/STM32F4xx_HAL_Driver/Src/stm32f4xx_hal_rcc.c ****       sysclockfreq = HSI_VALUE;
 926:/home/vtrnnhlinh/STM32Cube/Repository/STM32Cube_FW_F4_V1.28.0/Drivers/STM32F4xx_HAL_Driver/Src/stm32f4xx_hal_rcc.c ****       break;
 927:/home/vtrnnhlinh/STM32Cube/Repository/STM32Cube_FW_F4_V1.28.0/Drivers/STM32F4xx_HAL_Driver/Src/stm32f4xx_hal_rcc.c ****     }
 928:/home/vtrnnhlinh/STM32Cube/Repository/STM32Cube_FW_F4_V1.28.0/Drivers/STM32F4xx_HAL_Driver/Src/stm32f4xx_hal_rcc.c ****   }
 929:/home/vtrnnhlinh/STM32Cube/Repository/STM32Cube_FW_F4_V1.28.0/Drivers/STM32F4xx_HAL_Driver/Src/stm32f4xx_hal_rcc.c ****   return sysclockfreq;
 1495              		.loc 1 929 3 is_stmt 1 view .LVU421
 1496              	.L140:
 930:/home/vtrnnhlinh/STM32Cube/Repository/STM32Cube_FW_F4_V1.28.0/Drivers/STM32F4xx_HAL_Driver/Src/stm32f4xx_hal_rcc.c **** }
 1497              		.loc 1 930 1 is_stmt 0 view .LVU422
 1498 0094 08BD     		pop	{r3, pc}
 1499              	.L148:
 1500 0096 00BF     		.align	2
 1501              	.L147:
 1502 0098 00380240 		.word	1073887232
 1503 009c 40787D01 		.word	25000000
 1504 00a0 0024F400 		.word	16000000
 1505              		.cfi_endproc
 1506              	.LFE140:
 1508              		.section	.text.HAL_RCC_ClockConfig,"ax",%progbits
 1509              		.align	1
 1510              		.global	HAL_RCC_ClockConfig
 1511              		.syntax unified
 1512              		.thumb
 1513              		.thumb_func
 1514              		.fpu fpv4-sp-d16
 1516              	HAL_RCC_ClockConfig:
 1517              	.LVL103:
 1518              	.LFB136:
 592:/home/vtrnnhlinh/STM32Cube/Repository/STM32Cube_FW_F4_V1.28.0/Drivers/STM32F4xx_HAL_Driver/Src/stm32f4xx_hal_rcc.c ****   uint32_t tickstart;
 1519              		.loc 1 592 1 is_stmt 1 view -0
 1520              		.cfi_startproc
 1521              		@ args = 0, pretend = 0, frame = 0
 1522              		@ frame_needed = 0, uses_anonymous_args = 0
 593:/home/vtrnnhlinh/STM32Cube/Repository/STM32Cube_FW_F4_V1.28.0/Drivers/STM32F4xx_HAL_Driver/Src/stm32f4xx_hal_rcc.c **** 
 1523              		.loc 1 593 3 view .LVU424
 596:/home/vtrnnhlinh/STM32Cube/Repository/STM32Cube_FW_F4_V1.28.0/Drivers/STM32F4xx_HAL_Driver/Src/stm32f4xx_hal_rcc.c ****   {
 1524              		.loc 1 596 3 view .LVU425
 596:/home/vtrnnhlinh/STM32Cube/Repository/STM32Cube_FW_F4_V1.28.0/Drivers/STM32F4xx_HAL_Driver/Src/stm32f4xx_hal_rcc.c ****   {
 1525              		.loc 1 596 5 is_stmt 0 view .LVU426
 1526 0000 0028     		cmp	r0, #0
 1527 0002 00F0F780 		beq	.L170
 592:/home/vtrnnhlinh/STM32Cube/Repository/STM32Cube_FW_F4_V1.28.0/Drivers/STM32F4xx_HAL_Driver/Src/stm32f4xx_hal_rcc.c ****   uint32_t tickstart;
 1528              		.loc 1 592 1 view .LVU427
 1529 0006 70B5     		push	{r4, r5, r6, lr}
 1530              	.LCFI11:
 1531              		.cfi_def_cfa_offset 16
 1532              		.cfi_offset 4, -16
 1533              		.cfi_offset 5, -12
 1534              		.cfi_offset 6, -8
ARM GAS  /tmp/ccz6Q3rQ.s 			page 47


 1535              		.cfi_offset 14, -4
 1536 0008 0D46     		mov	r5, r1
 1537 000a 0446     		mov	r4, r0
 602:/home/vtrnnhlinh/STM32Cube/Repository/STM32Cube_FW_F4_V1.28.0/Drivers/STM32F4xx_HAL_Driver/Src/stm32f4xx_hal_rcc.c ****   assert_param(IS_FLASH_LATENCY(FLatency));
 1538              		.loc 1 602 3 is_stmt 1 view .LVU428
 1539 000c 0368     		ldr	r3, [r0]
 1540 000e 013B     		subs	r3, r3, #1
 1541 0010 0E2B     		cmp	r3, #14
 1542 0012 6BD8     		bhi	.L181
 1543              	.LVL104:
 1544              	.L151:
 603:/home/vtrnnhlinh/STM32Cube/Repository/STM32Cube_FW_F4_V1.28.0/Drivers/STM32F4xx_HAL_Driver/Src/stm32f4xx_hal_rcc.c **** 
 1545              		.loc 1 603 3 view .LVU429
 1546 0014 072D     		cmp	r5, #7
 1547 0016 6FD8     		bhi	.L182
 1548              	.L152:
 610:/home/vtrnnhlinh/STM32Cube/Repository/STM32Cube_FW_F4_V1.28.0/Drivers/STM32F4xx_HAL_Driver/Src/stm32f4xx_hal_rcc.c ****   {
 1549              		.loc 1 610 3 view .LVU430
 610:/home/vtrnnhlinh/STM32Cube/Repository/STM32Cube_FW_F4_V1.28.0/Drivers/STM32F4xx_HAL_Driver/Src/stm32f4xx_hal_rcc.c ****   {
 1550              		.loc 1 610 17 is_stmt 0 view .LVU431
 1551 0018 7A4B     		ldr	r3, .L189
 1552 001a 1B68     		ldr	r3, [r3]
 1553 001c 03F00703 		and	r3, r3, #7
 610:/home/vtrnnhlinh/STM32Cube/Repository/STM32Cube_FW_F4_V1.28.0/Drivers/STM32F4xx_HAL_Driver/Src/stm32f4xx_hal_rcc.c ****   {
 1554              		.loc 1 610 5 view .LVU432
 1555 0020 AB42     		cmp	r3, r5
 1556 0022 08D2     		bcs	.L153
 613:/home/vtrnnhlinh/STM32Cube/Repository/STM32Cube_FW_F4_V1.28.0/Drivers/STM32F4xx_HAL_Driver/Src/stm32f4xx_hal_rcc.c **** 
 1557              		.loc 1 613 5 is_stmt 1 view .LVU433
 1558 0024 EBB2     		uxtb	r3, r5
 1559 0026 774A     		ldr	r2, .L189
 1560 0028 1370     		strb	r3, [r2]
 617:/home/vtrnnhlinh/STM32Cube/Repository/STM32Cube_FW_F4_V1.28.0/Drivers/STM32F4xx_HAL_Driver/Src/stm32f4xx_hal_rcc.c ****     {
 1561              		.loc 1 617 5 view .LVU434
 617:/home/vtrnnhlinh/STM32Cube/Repository/STM32Cube_FW_F4_V1.28.0/Drivers/STM32F4xx_HAL_Driver/Src/stm32f4xx_hal_rcc.c ****     {
 1562              		.loc 1 617 8 is_stmt 0 view .LVU435
 1563 002a 1368     		ldr	r3, [r2]
 1564 002c 03F00703 		and	r3, r3, #7
 617:/home/vtrnnhlinh/STM32Cube/Repository/STM32Cube_FW_F4_V1.28.0/Drivers/STM32F4xx_HAL_Driver/Src/stm32f4xx_hal_rcc.c ****     {
 1565              		.loc 1 617 7 view .LVU436
 1566 0030 AB42     		cmp	r3, r5
 1567 0032 40F0E180 		bne	.L171
 1568              	.L153:
 624:/home/vtrnnhlinh/STM32Cube/Repository/STM32Cube_FW_F4_V1.28.0/Drivers/STM32F4xx_HAL_Driver/Src/stm32f4xx_hal_rcc.c ****   {
 1569              		.loc 1 624 3 is_stmt 1 view .LVU437
 624:/home/vtrnnhlinh/STM32Cube/Repository/STM32Cube_FW_F4_V1.28.0/Drivers/STM32F4xx_HAL_Driver/Src/stm32f4xx_hal_rcc.c ****   {
 1570              		.loc 1 624 25 is_stmt 0 view .LVU438
 1571 0036 2368     		ldr	r3, [r4]
 624:/home/vtrnnhlinh/STM32Cube/Repository/STM32Cube_FW_F4_V1.28.0/Drivers/STM32F4xx_HAL_Driver/Src/stm32f4xx_hal_rcc.c ****   {
 1572              		.loc 1 624 5 view .LVU439
 1573 0038 13F0020F 		tst	r3, #2
 1574 003c 29D0     		beq	.L154
 628:/home/vtrnnhlinh/STM32Cube/Repository/STM32Cube_FW_F4_V1.28.0/Drivers/STM32F4xx_HAL_Driver/Src/stm32f4xx_hal_rcc.c ****     {
 1575              		.loc 1 628 5 is_stmt 1 view .LVU440
 628:/home/vtrnnhlinh/STM32Cube/Repository/STM32Cube_FW_F4_V1.28.0/Drivers/STM32F4xx_HAL_Driver/Src/stm32f4xx_hal_rcc.c ****     {
 1576              		.loc 1 628 7 is_stmt 0 view .LVU441
 1577 003e 13F0040F 		tst	r3, #4
ARM GAS  /tmp/ccz6Q3rQ.s 			page 48


 1578 0042 04D0     		beq	.L155
 630:/home/vtrnnhlinh/STM32Cube/Repository/STM32Cube_FW_F4_V1.28.0/Drivers/STM32F4xx_HAL_Driver/Src/stm32f4xx_hal_rcc.c ****     }
 1579              		.loc 1 630 7 is_stmt 1 view .LVU442
 1580 0044 704A     		ldr	r2, .L189+4
 1581 0046 9368     		ldr	r3, [r2, #8]
 1582 0048 43F4E053 		orr	r3, r3, #7168
 1583 004c 9360     		str	r3, [r2, #8]
 1584              	.L155:
 633:/home/vtrnnhlinh/STM32Cube/Repository/STM32Cube_FW_F4_V1.28.0/Drivers/STM32F4xx_HAL_Driver/Src/stm32f4xx_hal_rcc.c ****     {
 1585              		.loc 1 633 5 view .LVU443
 633:/home/vtrnnhlinh/STM32Cube/Repository/STM32Cube_FW_F4_V1.28.0/Drivers/STM32F4xx_HAL_Driver/Src/stm32f4xx_hal_rcc.c ****     {
 1586              		.loc 1 633 27 is_stmt 0 view .LVU444
 1587 004e 2368     		ldr	r3, [r4]
 633:/home/vtrnnhlinh/STM32Cube/Repository/STM32Cube_FW_F4_V1.28.0/Drivers/STM32F4xx_HAL_Driver/Src/stm32f4xx_hal_rcc.c ****     {
 1588              		.loc 1 633 7 view .LVU445
 1589 0050 13F0080F 		tst	r3, #8
 1590 0054 04D0     		beq	.L156
 635:/home/vtrnnhlinh/STM32Cube/Repository/STM32Cube_FW_F4_V1.28.0/Drivers/STM32F4xx_HAL_Driver/Src/stm32f4xx_hal_rcc.c ****     }
 1591              		.loc 1 635 7 is_stmt 1 view .LVU446
 1592 0056 6C4A     		ldr	r2, .L189+4
 1593 0058 9368     		ldr	r3, [r2, #8]
 1594 005a 43F46043 		orr	r3, r3, #57344
 1595 005e 9360     		str	r3, [r2, #8]
 1596              	.L156:
 638:/home/vtrnnhlinh/STM32Cube/Repository/STM32Cube_FW_F4_V1.28.0/Drivers/STM32F4xx_HAL_Driver/Src/stm32f4xx_hal_rcc.c ****     MODIFY_REG(RCC->CFGR, RCC_CFGR_HPRE, RCC_ClkInitStruct->AHBCLKDivider);
 1597              		.loc 1 638 5 view .LVU447
 1598 0060 A368     		ldr	r3, [r4, #8]
 1599 0062 7BB1     		cbz	r3, .L157
 638:/home/vtrnnhlinh/STM32Cube/Repository/STM32Cube_FW_F4_V1.28.0/Drivers/STM32F4xx_HAL_Driver/Src/stm32f4xx_hal_rcc.c ****     MODIFY_REG(RCC->CFGR, RCC_CFGR_HPRE, RCC_ClkInitStruct->AHBCLKDivider);
 1600              		.loc 1 638 5 is_stmt 0 discriminator 1 view .LVU448
 1601 0064 802B     		cmp	r3, #128
 1602 0066 0DD0     		beq	.L157
 638:/home/vtrnnhlinh/STM32Cube/Repository/STM32Cube_FW_F4_V1.28.0/Drivers/STM32F4xx_HAL_Driver/Src/stm32f4xx_hal_rcc.c ****     MODIFY_REG(RCC->CFGR, RCC_CFGR_HPRE, RCC_ClkInitStruct->AHBCLKDivider);
 1603              		.loc 1 638 5 discriminator 2 view .LVU449
 1604 0068 902B     		cmp	r3, #144
 1605 006a 0BD0     		beq	.L157
 638:/home/vtrnnhlinh/STM32Cube/Repository/STM32Cube_FW_F4_V1.28.0/Drivers/STM32F4xx_HAL_Driver/Src/stm32f4xx_hal_rcc.c ****     MODIFY_REG(RCC->CFGR, RCC_CFGR_HPRE, RCC_ClkInitStruct->AHBCLKDivider);
 1606              		.loc 1 638 5 discriminator 3 view .LVU450
 1607 006c A02B     		cmp	r3, #160
 1608 006e 09D0     		beq	.L157
 638:/home/vtrnnhlinh/STM32Cube/Repository/STM32Cube_FW_F4_V1.28.0/Drivers/STM32F4xx_HAL_Driver/Src/stm32f4xx_hal_rcc.c ****     MODIFY_REG(RCC->CFGR, RCC_CFGR_HPRE, RCC_ClkInitStruct->AHBCLKDivider);
 1609              		.loc 1 638 5 discriminator 4 view .LVU451
 1610 0070 B02B     		cmp	r3, #176
 1611 0072 07D0     		beq	.L157
 638:/home/vtrnnhlinh/STM32Cube/Repository/STM32Cube_FW_F4_V1.28.0/Drivers/STM32F4xx_HAL_Driver/Src/stm32f4xx_hal_rcc.c ****     MODIFY_REG(RCC->CFGR, RCC_CFGR_HPRE, RCC_ClkInitStruct->AHBCLKDivider);
 1612              		.loc 1 638 5 discriminator 5 view .LVU452
 1613 0074 C02B     		cmp	r3, #192
 1614 0076 05D0     		beq	.L157
 638:/home/vtrnnhlinh/STM32Cube/Repository/STM32Cube_FW_F4_V1.28.0/Drivers/STM32F4xx_HAL_Driver/Src/stm32f4xx_hal_rcc.c ****     MODIFY_REG(RCC->CFGR, RCC_CFGR_HPRE, RCC_ClkInitStruct->AHBCLKDivider);
 1615              		.loc 1 638 5 discriminator 6 view .LVU453
 1616 0078 D02B     		cmp	r3, #208
 1617 007a 03D0     		beq	.L157
 638:/home/vtrnnhlinh/STM32Cube/Repository/STM32Cube_FW_F4_V1.28.0/Drivers/STM32F4xx_HAL_Driver/Src/stm32f4xx_hal_rcc.c ****     MODIFY_REG(RCC->CFGR, RCC_CFGR_HPRE, RCC_ClkInitStruct->AHBCLKDivider);
 1618              		.loc 1 638 5 discriminator 7 view .LVU454
 1619 007c E02B     		cmp	r3, #224
 1620 007e 01D0     		beq	.L157
 638:/home/vtrnnhlinh/STM32Cube/Repository/STM32Cube_FW_F4_V1.28.0/Drivers/STM32F4xx_HAL_Driver/Src/stm32f4xx_hal_rcc.c ****     MODIFY_REG(RCC->CFGR, RCC_CFGR_HPRE, RCC_ClkInitStruct->AHBCLKDivider);
ARM GAS  /tmp/ccz6Q3rQ.s 			page 49


 1621              		.loc 1 638 5 discriminator 8 view .LVU455
 1622 0080 F02B     		cmp	r3, #240
 1623 0082 3FD1     		bne	.L183
 1624              	.L157:
 639:/home/vtrnnhlinh/STM32Cube/Repository/STM32Cube_FW_F4_V1.28.0/Drivers/STM32F4xx_HAL_Driver/Src/stm32f4xx_hal_rcc.c ****   }
 1625              		.loc 1 639 5 is_stmt 1 view .LVU456
 1626 0084 604A     		ldr	r2, .L189+4
 1627 0086 9368     		ldr	r3, [r2, #8]
 1628 0088 23F0F003 		bic	r3, r3, #240
 1629 008c A168     		ldr	r1, [r4, #8]
 1630 008e 0B43     		orrs	r3, r3, r1
 1631 0090 9360     		str	r3, [r2, #8]
 1632              	.L154:
 643:/home/vtrnnhlinh/STM32Cube/Repository/STM32Cube_FW_F4_V1.28.0/Drivers/STM32F4xx_HAL_Driver/Src/stm32f4xx_hal_rcc.c ****   {
 1633              		.loc 1 643 3 view .LVU457
 643:/home/vtrnnhlinh/STM32Cube/Repository/STM32Cube_FW_F4_V1.28.0/Drivers/STM32F4xx_HAL_Driver/Src/stm32f4xx_hal_rcc.c ****   {
 1634              		.loc 1 643 25 is_stmt 0 view .LVU458
 1635 0092 2368     		ldr	r3, [r4]
 643:/home/vtrnnhlinh/STM32Cube/Repository/STM32Cube_FW_F4_V1.28.0/Drivers/STM32F4xx_HAL_Driver/Src/stm32f4xx_hal_rcc.c ****   {
 1636              		.loc 1 643 5 view .LVU459
 1637 0094 13F0010F 		tst	r3, #1
 1638 0098 4ED0     		beq	.L158
 645:/home/vtrnnhlinh/STM32Cube/Repository/STM32Cube_FW_F4_V1.28.0/Drivers/STM32F4xx_HAL_Driver/Src/stm32f4xx_hal_rcc.c **** 
 1639              		.loc 1 645 5 is_stmt 1 view .LVU460
 1640 009a 6368     		ldr	r3, [r4, #4]
 1641 009c 032B     		cmp	r3, #3
 1642 009e 37D8     		bhi	.L184
 1643              	.L159:
 648:/home/vtrnnhlinh/STM32Cube/Repository/STM32Cube_FW_F4_V1.28.0/Drivers/STM32F4xx_HAL_Driver/Src/stm32f4xx_hal_rcc.c ****     {
 1644              		.loc 1 648 5 view .LVU461
 648:/home/vtrnnhlinh/STM32Cube/Repository/STM32Cube_FW_F4_V1.28.0/Drivers/STM32F4xx_HAL_Driver/Src/stm32f4xx_hal_rcc.c ****     {
 1645              		.loc 1 648 25 is_stmt 0 view .LVU462
 1646 00a0 6368     		ldr	r3, [r4, #4]
 648:/home/vtrnnhlinh/STM32Cube/Repository/STM32Cube_FW_F4_V1.28.0/Drivers/STM32F4xx_HAL_Driver/Src/stm32f4xx_hal_rcc.c ****     {
 1647              		.loc 1 648 7 view .LVU463
 1648 00a2 012B     		cmp	r3, #1
 1649 00a4 3AD0     		beq	.L185
 657:/home/vtrnnhlinh/STM32Cube/Repository/STM32Cube_FW_F4_V1.28.0/Drivers/STM32F4xx_HAL_Driver/Src/stm32f4xx_hal_rcc.c ****             (RCC_ClkInitStruct->SYSCLKSource == RCC_SYSCLKSOURCE_PLLRCLK))
 1650              		.loc 1 657 10 is_stmt 1 view .LVU464
 657:/home/vtrnnhlinh/STM32Cube/Repository/STM32Cube_FW_F4_V1.28.0/Drivers/STM32F4xx_HAL_Driver/Src/stm32f4xx_hal_rcc.c ****             (RCC_ClkInitStruct->SYSCLKSource == RCC_SYSCLKSOURCE_PLLRCLK))
 1651              		.loc 1 657 76 is_stmt 0 view .LVU465
 1652 00a6 9A1E     		subs	r2, r3, #2
 657:/home/vtrnnhlinh/STM32Cube/Repository/STM32Cube_FW_F4_V1.28.0/Drivers/STM32F4xx_HAL_Driver/Src/stm32f4xx_hal_rcc.c ****             (RCC_ClkInitStruct->SYSCLKSource == RCC_SYSCLKSOURCE_PLLRCLK))
 1653              		.loc 1 657 12 view .LVU466
 1654 00a8 012A     		cmp	r2, #1
 1655 00aa 3ED9     		bls	.L186
 670:/home/vtrnnhlinh/STM32Cube/Repository/STM32Cube_FW_F4_V1.28.0/Drivers/STM32F4xx_HAL_Driver/Src/stm32f4xx_hal_rcc.c ****       {
 1656              		.loc 1 670 7 is_stmt 1 view .LVU467
 670:/home/vtrnnhlinh/STM32Cube/Repository/STM32Cube_FW_F4_V1.28.0/Drivers/STM32F4xx_HAL_Driver/Src/stm32f4xx_hal_rcc.c ****       {
 1657              		.loc 1 670 10 is_stmt 0 view .LVU468
 1658 00ac 564A     		ldr	r2, .L189+4
 1659 00ae 1268     		ldr	r2, [r2]
 670:/home/vtrnnhlinh/STM32Cube/Repository/STM32Cube_FW_F4_V1.28.0/Drivers/STM32F4xx_HAL_Driver/Src/stm32f4xx_hal_rcc.c ****       {
 1660              		.loc 1 670 9 view .LVU469
 1661 00b0 12F0020F 		tst	r2, #2
 1662 00b4 00F0A280 		beq	.L174
 1663              	.L161:
ARM GAS  /tmp/ccz6Q3rQ.s 			page 50


