ARM GAS  /tmp/cc92hle1.s 			page 1


   1              		.cpu cortex-m4
   2              		.eabi_attribute 27, 1
   3              		.eabi_attribute 28, 1
   4              		.eabi_attribute 20, 1
   5              		.eabi_attribute 21, 1
   6              		.eabi_attribute 23, 3
   7              		.eabi_attribute 24, 1
   8              		.eabi_attribute 25, 1
   9              		.eabi_attribute 26, 1
  10              		.eabi_attribute 30, 1
  11              		.eabi_attribute 34, 1
  12              		.eabi_attribute 18, 4
  13              		.file	"stm32f4xx_hal_dma_ex.c"
  14              		.text
  15              	.Ltext0:
  16              		.cfi_sections	.debug_frame
  17              		.section	.text.DMA_MultiBufferSetConfig,"ax",%progbits
  18              		.align	1
  19              		.arch armv7e-m
  20              		.syntax unified
  21              		.thumb
  22              		.thumb_func
  23              		.fpu fpv4-sp-d16
  25              	DMA_MultiBufferSetConfig:
  26              	.LVL0:
  27              	.LFB137:
  28              		.file 1 "/home/vtrnnhlinh/STM32Cube/Repository/STM32Cube_FW_F4_V1.28.0/Drivers/STM32F4xx_HAL_Drive
   1:/home/vtrnnhlinh/STM32Cube/Repository/STM32Cube_FW_F4_V1.28.0/Drivers/STM32F4xx_HAL_Driver/Src/stm32f4xx_hal_dma_ex.c **** /**
   2:/home/vtrnnhlinh/STM32Cube/Repository/STM32Cube_FW_F4_V1.28.0/Drivers/STM32F4xx_HAL_Driver/Src/stm32f4xx_hal_dma_ex.c ****   ******************************************************************************
   3:/home/vtrnnhlinh/STM32Cube/Repository/STM32Cube_FW_F4_V1.28.0/Drivers/STM32F4xx_HAL_Driver/Src/stm32f4xx_hal_dma_ex.c ****   * @file    stm32f4xx_hal_dma_ex.c
   4:/home/vtrnnhlinh/STM32Cube/Repository/STM32Cube_FW_F4_V1.28.0/Drivers/STM32F4xx_HAL_Driver/Src/stm32f4xx_hal_dma_ex.c ****   * @author  MCD Application Team
   5:/home/vtrnnhlinh/STM32Cube/Repository/STM32Cube_FW_F4_V1.28.0/Drivers/STM32F4xx_HAL_Driver/Src/stm32f4xx_hal_dma_ex.c ****   * @brief   DMA Extension HAL module driver
   6:/home/vtrnnhlinh/STM32Cube/Repository/STM32Cube_FW_F4_V1.28.0/Drivers/STM32F4xx_HAL_Driver/Src/stm32f4xx_hal_dma_ex.c ****   *         This file provides firmware functions to manage the following 
   7:/home/vtrnnhlinh/STM32Cube/Repository/STM32Cube_FW_F4_V1.28.0/Drivers/STM32F4xx_HAL_Driver/Src/stm32f4xx_hal_dma_ex.c ****   *         functionalities of the DMA Extension peripheral:
   8:/home/vtrnnhlinh/STM32Cube/Repository/STM32Cube_FW_F4_V1.28.0/Drivers/STM32F4xx_HAL_Driver/Src/stm32f4xx_hal_dma_ex.c ****   *           + Extended features functions
   9:/home/vtrnnhlinh/STM32Cube/Repository/STM32Cube_FW_F4_V1.28.0/Drivers/STM32F4xx_HAL_Driver/Src/stm32f4xx_hal_dma_ex.c ****   *
  10:/home/vtrnnhlinh/STM32Cube/Repository/STM32Cube_FW_F4_V1.28.0/Drivers/STM32F4xx_HAL_Driver/Src/stm32f4xx_hal_dma_ex.c ****   @verbatim
  11:/home/vtrnnhlinh/STM32Cube/Repository/STM32Cube_FW_F4_V1.28.0/Drivers/STM32F4xx_HAL_Driver/Src/stm32f4xx_hal_dma_ex.c ****   ==============================================================================
  12:/home/vtrnnhlinh/STM32Cube/Repository/STM32Cube_FW_F4_V1.28.0/Drivers/STM32F4xx_HAL_Driver/Src/stm32f4xx_hal_dma_ex.c ****                         ##### How to use this driver #####
  13:/home/vtrnnhlinh/STM32Cube/Repository/STM32Cube_FW_F4_V1.28.0/Drivers/STM32F4xx_HAL_Driver/Src/stm32f4xx_hal_dma_ex.c ****   ==============================================================================
  14:/home/vtrnnhlinh/STM32Cube/Repository/STM32Cube_FW_F4_V1.28.0/Drivers/STM32F4xx_HAL_Driver/Src/stm32f4xx_hal_dma_ex.c ****   [..]
  15:/home/vtrnnhlinh/STM32Cube/Repository/STM32Cube_FW_F4_V1.28.0/Drivers/STM32F4xx_HAL_Driver/Src/stm32f4xx_hal_dma_ex.c ****   The DMA Extension HAL driver can be used as follows:
  16:/home/vtrnnhlinh/STM32Cube/Repository/STM32Cube_FW_F4_V1.28.0/Drivers/STM32F4xx_HAL_Driver/Src/stm32f4xx_hal_dma_ex.c ****    (#) Start a multi buffer transfer using the HAL_DMA_MultiBufferStart() function
  17:/home/vtrnnhlinh/STM32Cube/Repository/STM32Cube_FW_F4_V1.28.0/Drivers/STM32F4xx_HAL_Driver/Src/stm32f4xx_hal_dma_ex.c ****        for polling mode or HAL_DMA_MultiBufferStart_IT() for interrupt mode.
  18:/home/vtrnnhlinh/STM32Cube/Repository/STM32Cube_FW_F4_V1.28.0/Drivers/STM32F4xx_HAL_Driver/Src/stm32f4xx_hal_dma_ex.c ****                    
  19:/home/vtrnnhlinh/STM32Cube/Repository/STM32Cube_FW_F4_V1.28.0/Drivers/STM32F4xx_HAL_Driver/Src/stm32f4xx_hal_dma_ex.c ****      -@-  In Memory-to-Memory transfer mode, Multi (Double) Buffer mode is not allowed.
  20:/home/vtrnnhlinh/STM32Cube/Repository/STM32Cube_FW_F4_V1.28.0/Drivers/STM32F4xx_HAL_Driver/Src/stm32f4xx_hal_dma_ex.c ****      -@-  When Multi (Double) Buffer mode is enabled the, transfer is circular by default.
  21:/home/vtrnnhlinh/STM32Cube/Repository/STM32Cube_FW_F4_V1.28.0/Drivers/STM32F4xx_HAL_Driver/Src/stm32f4xx_hal_dma_ex.c ****      -@-  In Multi (Double) buffer mode, it is possible to update the base address for 
  22:/home/vtrnnhlinh/STM32Cube/Repository/STM32Cube_FW_F4_V1.28.0/Drivers/STM32F4xx_HAL_Driver/Src/stm32f4xx_hal_dma_ex.c ****           the AHB memory port on the fly (DMA_SxM0AR or DMA_SxM1AR) when the stream is enabled. 
  23:/home/vtrnnhlinh/STM32Cube/Repository/STM32Cube_FW_F4_V1.28.0/Drivers/STM32F4xx_HAL_Driver/Src/stm32f4xx_hal_dma_ex.c ****   
  24:/home/vtrnnhlinh/STM32Cube/Repository/STM32Cube_FW_F4_V1.28.0/Drivers/STM32F4xx_HAL_Driver/Src/stm32f4xx_hal_dma_ex.c ****   @endverbatim
  25:/home/vtrnnhlinh/STM32Cube/Repository/STM32Cube_FW_F4_V1.28.0/Drivers/STM32F4xx_HAL_Driver/Src/stm32f4xx_hal_dma_ex.c ****   ******************************************************************************
  26:/home/vtrnnhlinh/STM32Cube/Repository/STM32Cube_FW_F4_V1.28.0/Drivers/STM32F4xx_HAL_Driver/Src/stm32f4xx_hal_dma_ex.c ****   * @attention
  27:/home/vtrnnhlinh/STM32Cube/Repository/STM32Cube_FW_F4_V1.28.0/Drivers/STM32F4xx_HAL_Driver/Src/stm32f4xx_hal_dma_ex.c ****   *
  28:/home/vtrnnhlinh/STM32Cube/Repository/STM32Cube_FW_F4_V1.28.0/Drivers/STM32F4xx_HAL_Driver/Src/stm32f4xx_hal_dma_ex.c ****   * Copyright (c) 2017 STMicroelectronics.
  29:/home/vtrnnhlinh/STM32Cube/Repository/STM32Cube_FW_F4_V1.28.0/Drivers/STM32F4xx_HAL_Driver/Src/stm32f4xx_hal_dma_ex.c ****   * All rights reserved.
  30:/home/vtrnnhlinh/STM32Cube/Repository/STM32Cube_FW_F4_V1.28.0/Drivers/STM32F4xx_HAL_Driver/Src/stm32f4xx_hal_dma_ex.c ****   *
ARM GAS  /tmp/cc92hle1.s 			page 2


  31:/home/vtrnnhlinh/STM32Cube/Repository/STM32Cube_FW_F4_V1.28.0/Drivers/STM32F4xx_HAL_Driver/Src/stm32f4xx_hal_dma_ex.c ****   * This software is licensed under terms that can be found in the LICENSE file in
  32:/home/vtrnnhlinh/STM32Cube/Repository/STM32Cube_FW_F4_V1.28.0/Drivers/STM32F4xx_HAL_Driver/Src/stm32f4xx_hal_dma_ex.c ****   * the root directory of this software component.
  33:/home/vtrnnhlinh/STM32Cube/Repository/STM32Cube_FW_F4_V1.28.0/Drivers/STM32F4xx_HAL_Driver/Src/stm32f4xx_hal_dma_ex.c ****   * If no LICENSE file comes with this software, it is provided AS-IS.
  34:/home/vtrnnhlinh/STM32Cube/Repository/STM32Cube_FW_F4_V1.28.0/Drivers/STM32F4xx_HAL_Driver/Src/stm32f4xx_hal_dma_ex.c ****   *
  35:/home/vtrnnhlinh/STM32Cube/Repository/STM32Cube_FW_F4_V1.28.0/Drivers/STM32F4xx_HAL_Driver/Src/stm32f4xx_hal_dma_ex.c ****   ******************************************************************************
  36:/home/vtrnnhlinh/STM32Cube/Repository/STM32Cube_FW_F4_V1.28.0/Drivers/STM32F4xx_HAL_Driver/Src/stm32f4xx_hal_dma_ex.c ****   */
  37:/home/vtrnnhlinh/STM32Cube/Repository/STM32Cube_FW_F4_V1.28.0/Drivers/STM32F4xx_HAL_Driver/Src/stm32f4xx_hal_dma_ex.c **** 
  38:/home/vtrnnhlinh/STM32Cube/Repository/STM32Cube_FW_F4_V1.28.0/Drivers/STM32F4xx_HAL_Driver/Src/stm32f4xx_hal_dma_ex.c **** /* Includes ------------------------------------------------------------------*/
  39:/home/vtrnnhlinh/STM32Cube/Repository/STM32Cube_FW_F4_V1.28.0/Drivers/STM32F4xx_HAL_Driver/Src/stm32f4xx_hal_dma_ex.c **** #include "stm32f4xx_hal.h"
  40:/home/vtrnnhlinh/STM32Cube/Repository/STM32Cube_FW_F4_V1.28.0/Drivers/STM32F4xx_HAL_Driver/Src/stm32f4xx_hal_dma_ex.c **** 
  41:/home/vtrnnhlinh/STM32Cube/Repository/STM32Cube_FW_F4_V1.28.0/Drivers/STM32F4xx_HAL_Driver/Src/stm32f4xx_hal_dma_ex.c **** /** @addtogroup STM32F4xx_HAL_Driver
  42:/home/vtrnnhlinh/STM32Cube/Repository/STM32Cube_FW_F4_V1.28.0/Drivers/STM32F4xx_HAL_Driver/Src/stm32f4xx_hal_dma_ex.c ****   * @{
  43:/home/vtrnnhlinh/STM32Cube/Repository/STM32Cube_FW_F4_V1.28.0/Drivers/STM32F4xx_HAL_Driver/Src/stm32f4xx_hal_dma_ex.c ****   */
  44:/home/vtrnnhlinh/STM32Cube/Repository/STM32Cube_FW_F4_V1.28.0/Drivers/STM32F4xx_HAL_Driver/Src/stm32f4xx_hal_dma_ex.c **** 
  45:/home/vtrnnhlinh/STM32Cube/Repository/STM32Cube_FW_F4_V1.28.0/Drivers/STM32F4xx_HAL_Driver/Src/stm32f4xx_hal_dma_ex.c **** /** @defgroup DMAEx DMAEx
  46:/home/vtrnnhlinh/STM32Cube/Repository/STM32Cube_FW_F4_V1.28.0/Drivers/STM32F4xx_HAL_Driver/Src/stm32f4xx_hal_dma_ex.c ****   * @brief DMA Extended HAL module driver
  47:/home/vtrnnhlinh/STM32Cube/Repository/STM32Cube_FW_F4_V1.28.0/Drivers/STM32F4xx_HAL_Driver/Src/stm32f4xx_hal_dma_ex.c ****   * @{
  48:/home/vtrnnhlinh/STM32Cube/Repository/STM32Cube_FW_F4_V1.28.0/Drivers/STM32F4xx_HAL_Driver/Src/stm32f4xx_hal_dma_ex.c ****   */
  49:/home/vtrnnhlinh/STM32Cube/Repository/STM32Cube_FW_F4_V1.28.0/Drivers/STM32F4xx_HAL_Driver/Src/stm32f4xx_hal_dma_ex.c **** 
  50:/home/vtrnnhlinh/STM32Cube/Repository/STM32Cube_FW_F4_V1.28.0/Drivers/STM32F4xx_HAL_Driver/Src/stm32f4xx_hal_dma_ex.c **** #ifdef HAL_DMA_MODULE_ENABLED
  51:/home/vtrnnhlinh/STM32Cube/Repository/STM32Cube_FW_F4_V1.28.0/Drivers/STM32F4xx_HAL_Driver/Src/stm32f4xx_hal_dma_ex.c **** 
  52:/home/vtrnnhlinh/STM32Cube/Repository/STM32Cube_FW_F4_V1.28.0/Drivers/STM32F4xx_HAL_Driver/Src/stm32f4xx_hal_dma_ex.c **** /* Private types -------------------------------------------------------------*/
  53:/home/vtrnnhlinh/STM32Cube/Repository/STM32Cube_FW_F4_V1.28.0/Drivers/STM32F4xx_HAL_Driver/Src/stm32f4xx_hal_dma_ex.c **** /* Private variables ---------------------------------------------------------*/
  54:/home/vtrnnhlinh/STM32Cube/Repository/STM32Cube_FW_F4_V1.28.0/Drivers/STM32F4xx_HAL_Driver/Src/stm32f4xx_hal_dma_ex.c **** /* Private Constants ---------------------------------------------------------*/
  55:/home/vtrnnhlinh/STM32Cube/Repository/STM32Cube_FW_F4_V1.28.0/Drivers/STM32F4xx_HAL_Driver/Src/stm32f4xx_hal_dma_ex.c **** /* Private macros ------------------------------------------------------------*/
  56:/home/vtrnnhlinh/STM32Cube/Repository/STM32Cube_FW_F4_V1.28.0/Drivers/STM32F4xx_HAL_Driver/Src/stm32f4xx_hal_dma_ex.c **** /* Private functions ---------------------------------------------------------*/
  57:/home/vtrnnhlinh/STM32Cube/Repository/STM32Cube_FW_F4_V1.28.0/Drivers/STM32F4xx_HAL_Driver/Src/stm32f4xx_hal_dma_ex.c **** /** @addtogroup DMAEx_Private_Functions
  58:/home/vtrnnhlinh/STM32Cube/Repository/STM32Cube_FW_F4_V1.28.0/Drivers/STM32F4xx_HAL_Driver/Src/stm32f4xx_hal_dma_ex.c ****   * @{
  59:/home/vtrnnhlinh/STM32Cube/Repository/STM32Cube_FW_F4_V1.28.0/Drivers/STM32F4xx_HAL_Driver/Src/stm32f4xx_hal_dma_ex.c ****   */
  60:/home/vtrnnhlinh/STM32Cube/Repository/STM32Cube_FW_F4_V1.28.0/Drivers/STM32F4xx_HAL_Driver/Src/stm32f4xx_hal_dma_ex.c **** static void DMA_MultiBufferSetConfig(DMA_HandleTypeDef *hdma, uint32_t SrcAddress, uint32_t DstAddr
  61:/home/vtrnnhlinh/STM32Cube/Repository/STM32Cube_FW_F4_V1.28.0/Drivers/STM32F4xx_HAL_Driver/Src/stm32f4xx_hal_dma_ex.c **** /**
  62:/home/vtrnnhlinh/STM32Cube/Repository/STM32Cube_FW_F4_V1.28.0/Drivers/STM32F4xx_HAL_Driver/Src/stm32f4xx_hal_dma_ex.c ****   * @}
  63:/home/vtrnnhlinh/STM32Cube/Repository/STM32Cube_FW_F4_V1.28.0/Drivers/STM32F4xx_HAL_Driver/Src/stm32f4xx_hal_dma_ex.c ****   */
  64:/home/vtrnnhlinh/STM32Cube/Repository/STM32Cube_FW_F4_V1.28.0/Drivers/STM32F4xx_HAL_Driver/Src/stm32f4xx_hal_dma_ex.c **** 
  65:/home/vtrnnhlinh/STM32Cube/Repository/STM32Cube_FW_F4_V1.28.0/Drivers/STM32F4xx_HAL_Driver/Src/stm32f4xx_hal_dma_ex.c **** /* Exported functions ---------------------------------------------------------*/
  66:/home/vtrnnhlinh/STM32Cube/Repository/STM32Cube_FW_F4_V1.28.0/Drivers/STM32F4xx_HAL_Driver/Src/stm32f4xx_hal_dma_ex.c **** 
  67:/home/vtrnnhlinh/STM32Cube/Repository/STM32Cube_FW_F4_V1.28.0/Drivers/STM32F4xx_HAL_Driver/Src/stm32f4xx_hal_dma_ex.c **** /** @addtogroup DMAEx_Exported_Functions
  68:/home/vtrnnhlinh/STM32Cube/Repository/STM32Cube_FW_F4_V1.28.0/Drivers/STM32F4xx_HAL_Driver/Src/stm32f4xx_hal_dma_ex.c ****   * @{
  69:/home/vtrnnhlinh/STM32Cube/Repository/STM32Cube_FW_F4_V1.28.0/Drivers/STM32F4xx_HAL_Driver/Src/stm32f4xx_hal_dma_ex.c ****   */
  70:/home/vtrnnhlinh/STM32Cube/Repository/STM32Cube_FW_F4_V1.28.0/Drivers/STM32F4xx_HAL_Driver/Src/stm32f4xx_hal_dma_ex.c **** 
  71:/home/vtrnnhlinh/STM32Cube/Repository/STM32Cube_FW_F4_V1.28.0/Drivers/STM32F4xx_HAL_Driver/Src/stm32f4xx_hal_dma_ex.c **** 
  72:/home/vtrnnhlinh/STM32Cube/Repository/STM32Cube_FW_F4_V1.28.0/Drivers/STM32F4xx_HAL_Driver/Src/stm32f4xx_hal_dma_ex.c **** /** @addtogroup DMAEx_Exported_Functions_Group1
  73:/home/vtrnnhlinh/STM32Cube/Repository/STM32Cube_FW_F4_V1.28.0/Drivers/STM32F4xx_HAL_Driver/Src/stm32f4xx_hal_dma_ex.c ****   *
  74:/home/vtrnnhlinh/STM32Cube/Repository/STM32Cube_FW_F4_V1.28.0/Drivers/STM32F4xx_HAL_Driver/Src/stm32f4xx_hal_dma_ex.c **** @verbatim   
  75:/home/vtrnnhlinh/STM32Cube/Repository/STM32Cube_FW_F4_V1.28.0/Drivers/STM32F4xx_HAL_Driver/Src/stm32f4xx_hal_dma_ex.c ****  ===============================================================================
  76:/home/vtrnnhlinh/STM32Cube/Repository/STM32Cube_FW_F4_V1.28.0/Drivers/STM32F4xx_HAL_Driver/Src/stm32f4xx_hal_dma_ex.c ****                 #####  Extended features functions  #####
  77:/home/vtrnnhlinh/STM32Cube/Repository/STM32Cube_FW_F4_V1.28.0/Drivers/STM32F4xx_HAL_Driver/Src/stm32f4xx_hal_dma_ex.c ****  ===============================================================================  
  78:/home/vtrnnhlinh/STM32Cube/Repository/STM32Cube_FW_F4_V1.28.0/Drivers/STM32F4xx_HAL_Driver/Src/stm32f4xx_hal_dma_ex.c ****     [..]  This section provides functions allowing to:
  79:/home/vtrnnhlinh/STM32Cube/Repository/STM32Cube_FW_F4_V1.28.0/Drivers/STM32F4xx_HAL_Driver/Src/stm32f4xx_hal_dma_ex.c ****       (+) Configure the source, destination address and data length and 
  80:/home/vtrnnhlinh/STM32Cube/Repository/STM32Cube_FW_F4_V1.28.0/Drivers/STM32F4xx_HAL_Driver/Src/stm32f4xx_hal_dma_ex.c ****           Start MultiBuffer DMA transfer
  81:/home/vtrnnhlinh/STM32Cube/Repository/STM32Cube_FW_F4_V1.28.0/Drivers/STM32F4xx_HAL_Driver/Src/stm32f4xx_hal_dma_ex.c ****       (+) Configure the source, destination address and data length and 
  82:/home/vtrnnhlinh/STM32Cube/Repository/STM32Cube_FW_F4_V1.28.0/Drivers/STM32F4xx_HAL_Driver/Src/stm32f4xx_hal_dma_ex.c ****           Start MultiBuffer DMA transfer with interrupt
  83:/home/vtrnnhlinh/STM32Cube/Repository/STM32Cube_FW_F4_V1.28.0/Drivers/STM32F4xx_HAL_Driver/Src/stm32f4xx_hal_dma_ex.c ****       (+) Change on the fly the memory0 or memory1 address.
  84:/home/vtrnnhlinh/STM32Cube/Repository/STM32Cube_FW_F4_V1.28.0/Drivers/STM32F4xx_HAL_Driver/Src/stm32f4xx_hal_dma_ex.c ****       
  85:/home/vtrnnhlinh/STM32Cube/Repository/STM32Cube_FW_F4_V1.28.0/Drivers/STM32F4xx_HAL_Driver/Src/stm32f4xx_hal_dma_ex.c **** @endverbatim
  86:/home/vtrnnhlinh/STM32Cube/Repository/STM32Cube_FW_F4_V1.28.0/Drivers/STM32F4xx_HAL_Driver/Src/stm32f4xx_hal_dma_ex.c ****   * @{
  87:/home/vtrnnhlinh/STM32Cube/Repository/STM32Cube_FW_F4_V1.28.0/Drivers/STM32F4xx_HAL_Driver/Src/stm32f4xx_hal_dma_ex.c ****   */
ARM GAS  /tmp/cc92hle1.s 			page 3


  88:/home/vtrnnhlinh/STM32Cube/Repository/STM32Cube_FW_F4_V1.28.0/Drivers/STM32F4xx_HAL_Driver/Src/stm32f4xx_hal_dma_ex.c **** 
  89:/home/vtrnnhlinh/STM32Cube/Repository/STM32Cube_FW_F4_V1.28.0/Drivers/STM32F4xx_HAL_Driver/Src/stm32f4xx_hal_dma_ex.c **** 
  90:/home/vtrnnhlinh/STM32Cube/Repository/STM32Cube_FW_F4_V1.28.0/Drivers/STM32F4xx_HAL_Driver/Src/stm32f4xx_hal_dma_ex.c **** /**
  91:/home/vtrnnhlinh/STM32Cube/Repository/STM32Cube_FW_F4_V1.28.0/Drivers/STM32F4xx_HAL_Driver/Src/stm32f4xx_hal_dma_ex.c ****   * @brief  Starts the multi_buffer DMA Transfer.
  92:/home/vtrnnhlinh/STM32Cube/Repository/STM32Cube_FW_F4_V1.28.0/Drivers/STM32F4xx_HAL_Driver/Src/stm32f4xx_hal_dma_ex.c ****   * @param  hdma       pointer to a DMA_HandleTypeDef structure that contains
  93:/home/vtrnnhlinh/STM32Cube/Repository/STM32Cube_FW_F4_V1.28.0/Drivers/STM32F4xx_HAL_Driver/Src/stm32f4xx_hal_dma_ex.c ****   *                     the configuration information for the specified DMA Stream.  
  94:/home/vtrnnhlinh/STM32Cube/Repository/STM32Cube_FW_F4_V1.28.0/Drivers/STM32F4xx_HAL_Driver/Src/stm32f4xx_hal_dma_ex.c ****   * @param  SrcAddress The source memory Buffer address
  95:/home/vtrnnhlinh/STM32Cube/Repository/STM32Cube_FW_F4_V1.28.0/Drivers/STM32F4xx_HAL_Driver/Src/stm32f4xx_hal_dma_ex.c ****   * @param  DstAddress The destination memory Buffer address
  96:/home/vtrnnhlinh/STM32Cube/Repository/STM32Cube_FW_F4_V1.28.0/Drivers/STM32F4xx_HAL_Driver/Src/stm32f4xx_hal_dma_ex.c ****   * @param  SecondMemAddress The second memory Buffer address in case of multi buffer Transfer  
  97:/home/vtrnnhlinh/STM32Cube/Repository/STM32Cube_FW_F4_V1.28.0/Drivers/STM32F4xx_HAL_Driver/Src/stm32f4xx_hal_dma_ex.c ****   * @param  DataLength The length of data to be transferred from source to destination
  98:/home/vtrnnhlinh/STM32Cube/Repository/STM32Cube_FW_F4_V1.28.0/Drivers/STM32F4xx_HAL_Driver/Src/stm32f4xx_hal_dma_ex.c ****   * @retval HAL status
  99:/home/vtrnnhlinh/STM32Cube/Repository/STM32Cube_FW_F4_V1.28.0/Drivers/STM32F4xx_HAL_Driver/Src/stm32f4xx_hal_dma_ex.c ****   */
 100:/home/vtrnnhlinh/STM32Cube/Repository/STM32Cube_FW_F4_V1.28.0/Drivers/STM32F4xx_HAL_Driver/Src/stm32f4xx_hal_dma_ex.c **** HAL_StatusTypeDef HAL_DMAEx_MultiBufferStart(DMA_HandleTypeDef *hdma, uint32_t SrcAddress, uint32_t
 101:/home/vtrnnhlinh/STM32Cube/Repository/STM32Cube_FW_F4_V1.28.0/Drivers/STM32F4xx_HAL_Driver/Src/stm32f4xx_hal_dma_ex.c **** {
 102:/home/vtrnnhlinh/STM32Cube/Repository/STM32Cube_FW_F4_V1.28.0/Drivers/STM32F4xx_HAL_Driver/Src/stm32f4xx_hal_dma_ex.c ****   HAL_StatusTypeDef status = HAL_OK;
 103:/home/vtrnnhlinh/STM32Cube/Repository/STM32Cube_FW_F4_V1.28.0/Drivers/STM32F4xx_HAL_Driver/Src/stm32f4xx_hal_dma_ex.c ****   
 104:/home/vtrnnhlinh/STM32Cube/Repository/STM32Cube_FW_F4_V1.28.0/Drivers/STM32F4xx_HAL_Driver/Src/stm32f4xx_hal_dma_ex.c ****   /* Check the parameters */
 105:/home/vtrnnhlinh/STM32Cube/Repository/STM32Cube_FW_F4_V1.28.0/Drivers/STM32F4xx_HAL_Driver/Src/stm32f4xx_hal_dma_ex.c ****   assert_param(IS_DMA_BUFFER_SIZE(DataLength));
 106:/home/vtrnnhlinh/STM32Cube/Repository/STM32Cube_FW_F4_V1.28.0/Drivers/STM32F4xx_HAL_Driver/Src/stm32f4xx_hal_dma_ex.c ****   
 107:/home/vtrnnhlinh/STM32Cube/Repository/STM32Cube_FW_F4_V1.28.0/Drivers/STM32F4xx_HAL_Driver/Src/stm32f4xx_hal_dma_ex.c ****   /* Memory-to-memory transfer not supported in double buffering mode */
 108:/home/vtrnnhlinh/STM32Cube/Repository/STM32Cube_FW_F4_V1.28.0/Drivers/STM32F4xx_HAL_Driver/Src/stm32f4xx_hal_dma_ex.c ****   if (hdma->Init.Direction == DMA_MEMORY_TO_MEMORY)
 109:/home/vtrnnhlinh/STM32Cube/Repository/STM32Cube_FW_F4_V1.28.0/Drivers/STM32F4xx_HAL_Driver/Src/stm32f4xx_hal_dma_ex.c ****   {
 110:/home/vtrnnhlinh/STM32Cube/Repository/STM32Cube_FW_F4_V1.28.0/Drivers/STM32F4xx_HAL_Driver/Src/stm32f4xx_hal_dma_ex.c ****     hdma->ErrorCode = HAL_DMA_ERROR_NOT_SUPPORTED;
 111:/home/vtrnnhlinh/STM32Cube/Repository/STM32Cube_FW_F4_V1.28.0/Drivers/STM32F4xx_HAL_Driver/Src/stm32f4xx_hal_dma_ex.c ****     status = HAL_ERROR;
 112:/home/vtrnnhlinh/STM32Cube/Repository/STM32Cube_FW_F4_V1.28.0/Drivers/STM32F4xx_HAL_Driver/Src/stm32f4xx_hal_dma_ex.c ****   }
 113:/home/vtrnnhlinh/STM32Cube/Repository/STM32Cube_FW_F4_V1.28.0/Drivers/STM32F4xx_HAL_Driver/Src/stm32f4xx_hal_dma_ex.c ****   else
 114:/home/vtrnnhlinh/STM32Cube/Repository/STM32Cube_FW_F4_V1.28.0/Drivers/STM32F4xx_HAL_Driver/Src/stm32f4xx_hal_dma_ex.c ****   {
 115:/home/vtrnnhlinh/STM32Cube/Repository/STM32Cube_FW_F4_V1.28.0/Drivers/STM32F4xx_HAL_Driver/Src/stm32f4xx_hal_dma_ex.c ****     /* Process Locked */
 116:/home/vtrnnhlinh/STM32Cube/Repository/STM32Cube_FW_F4_V1.28.0/Drivers/STM32F4xx_HAL_Driver/Src/stm32f4xx_hal_dma_ex.c ****     __HAL_LOCK(hdma);
 117:/home/vtrnnhlinh/STM32Cube/Repository/STM32Cube_FW_F4_V1.28.0/Drivers/STM32F4xx_HAL_Driver/Src/stm32f4xx_hal_dma_ex.c ****     
 118:/home/vtrnnhlinh/STM32Cube/Repository/STM32Cube_FW_F4_V1.28.0/Drivers/STM32F4xx_HAL_Driver/Src/stm32f4xx_hal_dma_ex.c ****     if(HAL_DMA_STATE_READY == hdma->State)
 119:/home/vtrnnhlinh/STM32Cube/Repository/STM32Cube_FW_F4_V1.28.0/Drivers/STM32F4xx_HAL_Driver/Src/stm32f4xx_hal_dma_ex.c ****     {
 120:/home/vtrnnhlinh/STM32Cube/Repository/STM32Cube_FW_F4_V1.28.0/Drivers/STM32F4xx_HAL_Driver/Src/stm32f4xx_hal_dma_ex.c ****       /* Change DMA peripheral state */
 121:/home/vtrnnhlinh/STM32Cube/Repository/STM32Cube_FW_F4_V1.28.0/Drivers/STM32F4xx_HAL_Driver/Src/stm32f4xx_hal_dma_ex.c ****       hdma->State = HAL_DMA_STATE_BUSY; 
 122:/home/vtrnnhlinh/STM32Cube/Repository/STM32Cube_FW_F4_V1.28.0/Drivers/STM32F4xx_HAL_Driver/Src/stm32f4xx_hal_dma_ex.c ****       
 123:/home/vtrnnhlinh/STM32Cube/Repository/STM32Cube_FW_F4_V1.28.0/Drivers/STM32F4xx_HAL_Driver/Src/stm32f4xx_hal_dma_ex.c ****       /* Enable the double buffer mode */
 124:/home/vtrnnhlinh/STM32Cube/Repository/STM32Cube_FW_F4_V1.28.0/Drivers/STM32F4xx_HAL_Driver/Src/stm32f4xx_hal_dma_ex.c ****       hdma->Instance->CR |= (uint32_t)DMA_SxCR_DBM;
 125:/home/vtrnnhlinh/STM32Cube/Repository/STM32Cube_FW_F4_V1.28.0/Drivers/STM32F4xx_HAL_Driver/Src/stm32f4xx_hal_dma_ex.c ****       
 126:/home/vtrnnhlinh/STM32Cube/Repository/STM32Cube_FW_F4_V1.28.0/Drivers/STM32F4xx_HAL_Driver/Src/stm32f4xx_hal_dma_ex.c ****       /* Configure DMA Stream destination address */
 127:/home/vtrnnhlinh/STM32Cube/Repository/STM32Cube_FW_F4_V1.28.0/Drivers/STM32F4xx_HAL_Driver/Src/stm32f4xx_hal_dma_ex.c ****       hdma->Instance->M1AR = SecondMemAddress;
 128:/home/vtrnnhlinh/STM32Cube/Repository/STM32Cube_FW_F4_V1.28.0/Drivers/STM32F4xx_HAL_Driver/Src/stm32f4xx_hal_dma_ex.c ****       
 129:/home/vtrnnhlinh/STM32Cube/Repository/STM32Cube_FW_F4_V1.28.0/Drivers/STM32F4xx_HAL_Driver/Src/stm32f4xx_hal_dma_ex.c ****       /* Configure the source, destination address and the data length */
 130:/home/vtrnnhlinh/STM32Cube/Repository/STM32Cube_FW_F4_V1.28.0/Drivers/STM32F4xx_HAL_Driver/Src/stm32f4xx_hal_dma_ex.c ****       DMA_MultiBufferSetConfig(hdma, SrcAddress, DstAddress, DataLength);
 131:/home/vtrnnhlinh/STM32Cube/Repository/STM32Cube_FW_F4_V1.28.0/Drivers/STM32F4xx_HAL_Driver/Src/stm32f4xx_hal_dma_ex.c ****       
 132:/home/vtrnnhlinh/STM32Cube/Repository/STM32Cube_FW_F4_V1.28.0/Drivers/STM32F4xx_HAL_Driver/Src/stm32f4xx_hal_dma_ex.c ****       /* Enable the peripheral */
 133:/home/vtrnnhlinh/STM32Cube/Repository/STM32Cube_FW_F4_V1.28.0/Drivers/STM32F4xx_HAL_Driver/Src/stm32f4xx_hal_dma_ex.c ****       __HAL_DMA_ENABLE(hdma);
 134:/home/vtrnnhlinh/STM32Cube/Repository/STM32Cube_FW_F4_V1.28.0/Drivers/STM32F4xx_HAL_Driver/Src/stm32f4xx_hal_dma_ex.c ****     }
 135:/home/vtrnnhlinh/STM32Cube/Repository/STM32Cube_FW_F4_V1.28.0/Drivers/STM32F4xx_HAL_Driver/Src/stm32f4xx_hal_dma_ex.c ****     else
 136:/home/vtrnnhlinh/STM32Cube/Repository/STM32Cube_FW_F4_V1.28.0/Drivers/STM32F4xx_HAL_Driver/Src/stm32f4xx_hal_dma_ex.c ****     {
 137:/home/vtrnnhlinh/STM32Cube/Repository/STM32Cube_FW_F4_V1.28.0/Drivers/STM32F4xx_HAL_Driver/Src/stm32f4xx_hal_dma_ex.c ****       /* Return error status */
 138:/home/vtrnnhlinh/STM32Cube/Repository/STM32Cube_FW_F4_V1.28.0/Drivers/STM32F4xx_HAL_Driver/Src/stm32f4xx_hal_dma_ex.c ****       status = HAL_BUSY;
 139:/home/vtrnnhlinh/STM32Cube/Repository/STM32Cube_FW_F4_V1.28.0/Drivers/STM32F4xx_HAL_Driver/Src/stm32f4xx_hal_dma_ex.c ****     }
 140:/home/vtrnnhlinh/STM32Cube/Repository/STM32Cube_FW_F4_V1.28.0/Drivers/STM32F4xx_HAL_Driver/Src/stm32f4xx_hal_dma_ex.c ****   }
 141:/home/vtrnnhlinh/STM32Cube/Repository/STM32Cube_FW_F4_V1.28.0/Drivers/STM32F4xx_HAL_Driver/Src/stm32f4xx_hal_dma_ex.c ****   return status;
 142:/home/vtrnnhlinh/STM32Cube/Repository/STM32Cube_FW_F4_V1.28.0/Drivers/STM32F4xx_HAL_Driver/Src/stm32f4xx_hal_dma_ex.c **** }
 143:/home/vtrnnhlinh/STM32Cube/Repository/STM32Cube_FW_F4_V1.28.0/Drivers/STM32F4xx_HAL_Driver/Src/stm32f4xx_hal_dma_ex.c **** 
 144:/home/vtrnnhlinh/STM32Cube/Repository/STM32Cube_FW_F4_V1.28.0/Drivers/STM32F4xx_HAL_Driver/Src/stm32f4xx_hal_dma_ex.c **** /**
ARM GAS  /tmp/cc92hle1.s 			page 4


 145:/home/vtrnnhlinh/STM32Cube/Repository/STM32Cube_FW_F4_V1.28.0/Drivers/STM32F4xx_HAL_Driver/Src/stm32f4xx_hal_dma_ex.c ****   * @brief  Starts the multi_buffer DMA Transfer with interrupt enabled.
 146:/home/vtrnnhlinh/STM32Cube/Repository/STM32Cube_FW_F4_V1.28.0/Drivers/STM32F4xx_HAL_Driver/Src/stm32f4xx_hal_dma_ex.c ****   * @param  hdma       pointer to a DMA_HandleTypeDef structure that contains
 147:/home/vtrnnhlinh/STM32Cube/Repository/STM32Cube_FW_F4_V1.28.0/Drivers/STM32F4xx_HAL_Driver/Src/stm32f4xx_hal_dma_ex.c ****   *                     the configuration information for the specified DMA Stream.  
 148:/home/vtrnnhlinh/STM32Cube/Repository/STM32Cube_FW_F4_V1.28.0/Drivers/STM32F4xx_HAL_Driver/Src/stm32f4xx_hal_dma_ex.c ****   * @param  SrcAddress The source memory Buffer address
 149:/home/vtrnnhlinh/STM32Cube/Repository/STM32Cube_FW_F4_V1.28.0/Drivers/STM32F4xx_HAL_Driver/Src/stm32f4xx_hal_dma_ex.c ****   * @param  DstAddress The destination memory Buffer address
 150:/home/vtrnnhlinh/STM32Cube/Repository/STM32Cube_FW_F4_V1.28.0/Drivers/STM32F4xx_HAL_Driver/Src/stm32f4xx_hal_dma_ex.c ****   * @param  SecondMemAddress The second memory Buffer address in case of multi buffer Transfer  
 151:/home/vtrnnhlinh/STM32Cube/Repository/STM32Cube_FW_F4_V1.28.0/Drivers/STM32F4xx_HAL_Driver/Src/stm32f4xx_hal_dma_ex.c ****   * @param  DataLength The length of data to be transferred from source to destination
 152:/home/vtrnnhlinh/STM32Cube/Repository/STM32Cube_FW_F4_V1.28.0/Drivers/STM32F4xx_HAL_Driver/Src/stm32f4xx_hal_dma_ex.c ****   * @retval HAL status
 153:/home/vtrnnhlinh/STM32Cube/Repository/STM32Cube_FW_F4_V1.28.0/Drivers/STM32F4xx_HAL_Driver/Src/stm32f4xx_hal_dma_ex.c ****   */
 154:/home/vtrnnhlinh/STM32Cube/Repository/STM32Cube_FW_F4_V1.28.0/Drivers/STM32F4xx_HAL_Driver/Src/stm32f4xx_hal_dma_ex.c **** HAL_StatusTypeDef HAL_DMAEx_MultiBufferStart_IT(DMA_HandleTypeDef *hdma, uint32_t SrcAddress, uint3
 155:/home/vtrnnhlinh/STM32Cube/Repository/STM32Cube_FW_F4_V1.28.0/Drivers/STM32F4xx_HAL_Driver/Src/stm32f4xx_hal_dma_ex.c **** {
 156:/home/vtrnnhlinh/STM32Cube/Repository/STM32Cube_FW_F4_V1.28.0/Drivers/STM32F4xx_HAL_Driver/Src/stm32f4xx_hal_dma_ex.c ****   HAL_StatusTypeDef status = HAL_OK;
 157:/home/vtrnnhlinh/STM32Cube/Repository/STM32Cube_FW_F4_V1.28.0/Drivers/STM32F4xx_HAL_Driver/Src/stm32f4xx_hal_dma_ex.c ****   
 158:/home/vtrnnhlinh/STM32Cube/Repository/STM32Cube_FW_F4_V1.28.0/Drivers/STM32F4xx_HAL_Driver/Src/stm32f4xx_hal_dma_ex.c ****   /* Check the parameters */
 159:/home/vtrnnhlinh/STM32Cube/Repository/STM32Cube_FW_F4_V1.28.0/Drivers/STM32F4xx_HAL_Driver/Src/stm32f4xx_hal_dma_ex.c ****   assert_param(IS_DMA_BUFFER_SIZE(DataLength));
 160:/home/vtrnnhlinh/STM32Cube/Repository/STM32Cube_FW_F4_V1.28.0/Drivers/STM32F4xx_HAL_Driver/Src/stm32f4xx_hal_dma_ex.c ****   
 161:/home/vtrnnhlinh/STM32Cube/Repository/STM32Cube_FW_F4_V1.28.0/Drivers/STM32F4xx_HAL_Driver/Src/stm32f4xx_hal_dma_ex.c ****   /* Memory-to-memory transfer not supported in double buffering mode */
 162:/home/vtrnnhlinh/STM32Cube/Repository/STM32Cube_FW_F4_V1.28.0/Drivers/STM32F4xx_HAL_Driver/Src/stm32f4xx_hal_dma_ex.c ****   if (hdma->Init.Direction == DMA_MEMORY_TO_MEMORY)
 163:/home/vtrnnhlinh/STM32Cube/Repository/STM32Cube_FW_F4_V1.28.0/Drivers/STM32F4xx_HAL_Driver/Src/stm32f4xx_hal_dma_ex.c ****   {
 164:/home/vtrnnhlinh/STM32Cube/Repository/STM32Cube_FW_F4_V1.28.0/Drivers/STM32F4xx_HAL_Driver/Src/stm32f4xx_hal_dma_ex.c ****     hdma->ErrorCode = HAL_DMA_ERROR_NOT_SUPPORTED;
 165:/home/vtrnnhlinh/STM32Cube/Repository/STM32Cube_FW_F4_V1.28.0/Drivers/STM32F4xx_HAL_Driver/Src/stm32f4xx_hal_dma_ex.c ****     return HAL_ERROR;
 166:/home/vtrnnhlinh/STM32Cube/Repository/STM32Cube_FW_F4_V1.28.0/Drivers/STM32F4xx_HAL_Driver/Src/stm32f4xx_hal_dma_ex.c ****   }
 167:/home/vtrnnhlinh/STM32Cube/Repository/STM32Cube_FW_F4_V1.28.0/Drivers/STM32F4xx_HAL_Driver/Src/stm32f4xx_hal_dma_ex.c ****   
 168:/home/vtrnnhlinh/STM32Cube/Repository/STM32Cube_FW_F4_V1.28.0/Drivers/STM32F4xx_HAL_Driver/Src/stm32f4xx_hal_dma_ex.c ****   /* Check callback functions */
 169:/home/vtrnnhlinh/STM32Cube/Repository/STM32Cube_FW_F4_V1.28.0/Drivers/STM32F4xx_HAL_Driver/Src/stm32f4xx_hal_dma_ex.c ****   if ((NULL == hdma->XferCpltCallback) || (NULL == hdma->XferM1CpltCallback) || (NULL == hdma->Xfer
 170:/home/vtrnnhlinh/STM32Cube/Repository/STM32Cube_FW_F4_V1.28.0/Drivers/STM32F4xx_HAL_Driver/Src/stm32f4xx_hal_dma_ex.c ****   {
 171:/home/vtrnnhlinh/STM32Cube/Repository/STM32Cube_FW_F4_V1.28.0/Drivers/STM32F4xx_HAL_Driver/Src/stm32f4xx_hal_dma_ex.c ****     hdma->ErrorCode = HAL_DMA_ERROR_PARAM;
 172:/home/vtrnnhlinh/STM32Cube/Repository/STM32Cube_FW_F4_V1.28.0/Drivers/STM32F4xx_HAL_Driver/Src/stm32f4xx_hal_dma_ex.c ****     return HAL_ERROR;
 173:/home/vtrnnhlinh/STM32Cube/Repository/STM32Cube_FW_F4_V1.28.0/Drivers/STM32F4xx_HAL_Driver/Src/stm32f4xx_hal_dma_ex.c ****   }
 174:/home/vtrnnhlinh/STM32Cube/Repository/STM32Cube_FW_F4_V1.28.0/Drivers/STM32F4xx_HAL_Driver/Src/stm32f4xx_hal_dma_ex.c ****   
 175:/home/vtrnnhlinh/STM32Cube/Repository/STM32Cube_FW_F4_V1.28.0/Drivers/STM32F4xx_HAL_Driver/Src/stm32f4xx_hal_dma_ex.c ****   /* Process locked */
 176:/home/vtrnnhlinh/STM32Cube/Repository/STM32Cube_FW_F4_V1.28.0/Drivers/STM32F4xx_HAL_Driver/Src/stm32f4xx_hal_dma_ex.c ****   __HAL_LOCK(hdma);
 177:/home/vtrnnhlinh/STM32Cube/Repository/STM32Cube_FW_F4_V1.28.0/Drivers/STM32F4xx_HAL_Driver/Src/stm32f4xx_hal_dma_ex.c ****   
 178:/home/vtrnnhlinh/STM32Cube/Repository/STM32Cube_FW_F4_V1.28.0/Drivers/STM32F4xx_HAL_Driver/Src/stm32f4xx_hal_dma_ex.c ****   if(HAL_DMA_STATE_READY == hdma->State)
 179:/home/vtrnnhlinh/STM32Cube/Repository/STM32Cube_FW_F4_V1.28.0/Drivers/STM32F4xx_HAL_Driver/Src/stm32f4xx_hal_dma_ex.c ****   {
 180:/home/vtrnnhlinh/STM32Cube/Repository/STM32Cube_FW_F4_V1.28.0/Drivers/STM32F4xx_HAL_Driver/Src/stm32f4xx_hal_dma_ex.c ****     /* Change DMA peripheral state */
 181:/home/vtrnnhlinh/STM32Cube/Repository/STM32Cube_FW_F4_V1.28.0/Drivers/STM32F4xx_HAL_Driver/Src/stm32f4xx_hal_dma_ex.c ****     hdma->State = HAL_DMA_STATE_BUSY;
 182:/home/vtrnnhlinh/STM32Cube/Repository/STM32Cube_FW_F4_V1.28.0/Drivers/STM32F4xx_HAL_Driver/Src/stm32f4xx_hal_dma_ex.c ****     
 183:/home/vtrnnhlinh/STM32Cube/Repository/STM32Cube_FW_F4_V1.28.0/Drivers/STM32F4xx_HAL_Driver/Src/stm32f4xx_hal_dma_ex.c ****     /* Initialize the error code */
 184:/home/vtrnnhlinh/STM32Cube/Repository/STM32Cube_FW_F4_V1.28.0/Drivers/STM32F4xx_HAL_Driver/Src/stm32f4xx_hal_dma_ex.c ****     hdma->ErrorCode = HAL_DMA_ERROR_NONE;
 185:/home/vtrnnhlinh/STM32Cube/Repository/STM32Cube_FW_F4_V1.28.0/Drivers/STM32F4xx_HAL_Driver/Src/stm32f4xx_hal_dma_ex.c ****     
 186:/home/vtrnnhlinh/STM32Cube/Repository/STM32Cube_FW_F4_V1.28.0/Drivers/STM32F4xx_HAL_Driver/Src/stm32f4xx_hal_dma_ex.c ****     /* Enable the Double buffer mode */
 187:/home/vtrnnhlinh/STM32Cube/Repository/STM32Cube_FW_F4_V1.28.0/Drivers/STM32F4xx_HAL_Driver/Src/stm32f4xx_hal_dma_ex.c ****     hdma->Instance->CR |= (uint32_t)DMA_SxCR_DBM;
 188:/home/vtrnnhlinh/STM32Cube/Repository/STM32Cube_FW_F4_V1.28.0/Drivers/STM32F4xx_HAL_Driver/Src/stm32f4xx_hal_dma_ex.c ****     
 189:/home/vtrnnhlinh/STM32Cube/Repository/STM32Cube_FW_F4_V1.28.0/Drivers/STM32F4xx_HAL_Driver/Src/stm32f4xx_hal_dma_ex.c ****     /* Configure DMA Stream destination address */
 190:/home/vtrnnhlinh/STM32Cube/Repository/STM32Cube_FW_F4_V1.28.0/Drivers/STM32F4xx_HAL_Driver/Src/stm32f4xx_hal_dma_ex.c ****     hdma->Instance->M1AR = SecondMemAddress;
 191:/home/vtrnnhlinh/STM32Cube/Repository/STM32Cube_FW_F4_V1.28.0/Drivers/STM32F4xx_HAL_Driver/Src/stm32f4xx_hal_dma_ex.c ****     
 192:/home/vtrnnhlinh/STM32Cube/Repository/STM32Cube_FW_F4_V1.28.0/Drivers/STM32F4xx_HAL_Driver/Src/stm32f4xx_hal_dma_ex.c ****     /* Configure the source, destination address and the data length */
 193:/home/vtrnnhlinh/STM32Cube/Repository/STM32Cube_FW_F4_V1.28.0/Drivers/STM32F4xx_HAL_Driver/Src/stm32f4xx_hal_dma_ex.c ****     DMA_MultiBufferSetConfig(hdma, SrcAddress, DstAddress, DataLength); 
 194:/home/vtrnnhlinh/STM32Cube/Repository/STM32Cube_FW_F4_V1.28.0/Drivers/STM32F4xx_HAL_Driver/Src/stm32f4xx_hal_dma_ex.c ****     
 195:/home/vtrnnhlinh/STM32Cube/Repository/STM32Cube_FW_F4_V1.28.0/Drivers/STM32F4xx_HAL_Driver/Src/stm32f4xx_hal_dma_ex.c ****     /* Clear all flags */
 196:/home/vtrnnhlinh/STM32Cube/Repository/STM32Cube_FW_F4_V1.28.0/Drivers/STM32F4xx_HAL_Driver/Src/stm32f4xx_hal_dma_ex.c ****     __HAL_DMA_CLEAR_FLAG (hdma, __HAL_DMA_GET_TC_FLAG_INDEX(hdma));
 197:/home/vtrnnhlinh/STM32Cube/Repository/STM32Cube_FW_F4_V1.28.0/Drivers/STM32F4xx_HAL_Driver/Src/stm32f4xx_hal_dma_ex.c ****     __HAL_DMA_CLEAR_FLAG (hdma, __HAL_DMA_GET_HT_FLAG_INDEX(hdma));
 198:/home/vtrnnhlinh/STM32Cube/Repository/STM32Cube_FW_F4_V1.28.0/Drivers/STM32F4xx_HAL_Driver/Src/stm32f4xx_hal_dma_ex.c ****     __HAL_DMA_CLEAR_FLAG (hdma, __HAL_DMA_GET_TE_FLAG_INDEX(hdma));
 199:/home/vtrnnhlinh/STM32Cube/Repository/STM32Cube_FW_F4_V1.28.0/Drivers/STM32F4xx_HAL_Driver/Src/stm32f4xx_hal_dma_ex.c ****     __HAL_DMA_CLEAR_FLAG (hdma, __HAL_DMA_GET_DME_FLAG_INDEX(hdma));
 200:/home/vtrnnhlinh/STM32Cube/Repository/STM32Cube_FW_F4_V1.28.0/Drivers/STM32F4xx_HAL_Driver/Src/stm32f4xx_hal_dma_ex.c ****     __HAL_DMA_CLEAR_FLAG (hdma, __HAL_DMA_GET_FE_FLAG_INDEX(hdma));
 201:/home/vtrnnhlinh/STM32Cube/Repository/STM32Cube_FW_F4_V1.28.0/Drivers/STM32F4xx_HAL_Driver/Src/stm32f4xx_hal_dma_ex.c **** 
ARM GAS  /tmp/cc92hle1.s 			page 5


 202:/home/vtrnnhlinh/STM32Cube/Repository/STM32Cube_FW_F4_V1.28.0/Drivers/STM32F4xx_HAL_Driver/Src/stm32f4xx_hal_dma_ex.c ****     /* Enable Common interrupts*/
 203:/home/vtrnnhlinh/STM32Cube/Repository/STM32Cube_FW_F4_V1.28.0/Drivers/STM32F4xx_HAL_Driver/Src/stm32f4xx_hal_dma_ex.c ****     hdma->Instance->CR  |= DMA_IT_TC | DMA_IT_TE | DMA_IT_DME;
 204:/home/vtrnnhlinh/STM32Cube/Repository/STM32Cube_FW_F4_V1.28.0/Drivers/STM32F4xx_HAL_Driver/Src/stm32f4xx_hal_dma_ex.c ****     hdma->Instance->FCR |= DMA_IT_FE;
 205:/home/vtrnnhlinh/STM32Cube/Repository/STM32Cube_FW_F4_V1.28.0/Drivers/STM32F4xx_HAL_Driver/Src/stm32f4xx_hal_dma_ex.c ****     
 206:/home/vtrnnhlinh/STM32Cube/Repository/STM32Cube_FW_F4_V1.28.0/Drivers/STM32F4xx_HAL_Driver/Src/stm32f4xx_hal_dma_ex.c ****     if((hdma->XferHalfCpltCallback != NULL) || (hdma->XferM1HalfCpltCallback != NULL))
 207:/home/vtrnnhlinh/STM32Cube/Repository/STM32Cube_FW_F4_V1.28.0/Drivers/STM32F4xx_HAL_Driver/Src/stm32f4xx_hal_dma_ex.c ****     {
 208:/home/vtrnnhlinh/STM32Cube/Repository/STM32Cube_FW_F4_V1.28.0/Drivers/STM32F4xx_HAL_Driver/Src/stm32f4xx_hal_dma_ex.c ****       hdma->Instance->CR  |= DMA_IT_HT;
 209:/home/vtrnnhlinh/STM32Cube/Repository/STM32Cube_FW_F4_V1.28.0/Drivers/STM32F4xx_HAL_Driver/Src/stm32f4xx_hal_dma_ex.c ****     }
 210:/home/vtrnnhlinh/STM32Cube/Repository/STM32Cube_FW_F4_V1.28.0/Drivers/STM32F4xx_HAL_Driver/Src/stm32f4xx_hal_dma_ex.c ****     
 211:/home/vtrnnhlinh/STM32Cube/Repository/STM32Cube_FW_F4_V1.28.0/Drivers/STM32F4xx_HAL_Driver/Src/stm32f4xx_hal_dma_ex.c ****     /* Enable the peripheral */
 212:/home/vtrnnhlinh/STM32Cube/Repository/STM32Cube_FW_F4_V1.28.0/Drivers/STM32F4xx_HAL_Driver/Src/stm32f4xx_hal_dma_ex.c ****     __HAL_DMA_ENABLE(hdma); 
 213:/home/vtrnnhlinh/STM32Cube/Repository/STM32Cube_FW_F4_V1.28.0/Drivers/STM32F4xx_HAL_Driver/Src/stm32f4xx_hal_dma_ex.c ****   }
 214:/home/vtrnnhlinh/STM32Cube/Repository/STM32Cube_FW_F4_V1.28.0/Drivers/STM32F4xx_HAL_Driver/Src/stm32f4xx_hal_dma_ex.c ****   else
 215:/home/vtrnnhlinh/STM32Cube/Repository/STM32Cube_FW_F4_V1.28.0/Drivers/STM32F4xx_HAL_Driver/Src/stm32f4xx_hal_dma_ex.c ****   {     
 216:/home/vtrnnhlinh/STM32Cube/Repository/STM32Cube_FW_F4_V1.28.0/Drivers/STM32F4xx_HAL_Driver/Src/stm32f4xx_hal_dma_ex.c ****     /* Process unlocked */
 217:/home/vtrnnhlinh/STM32Cube/Repository/STM32Cube_FW_F4_V1.28.0/Drivers/STM32F4xx_HAL_Driver/Src/stm32f4xx_hal_dma_ex.c ****     __HAL_UNLOCK(hdma);	  
 218:/home/vtrnnhlinh/STM32Cube/Repository/STM32Cube_FW_F4_V1.28.0/Drivers/STM32F4xx_HAL_Driver/Src/stm32f4xx_hal_dma_ex.c ****     
 219:/home/vtrnnhlinh/STM32Cube/Repository/STM32Cube_FW_F4_V1.28.0/Drivers/STM32F4xx_HAL_Driver/Src/stm32f4xx_hal_dma_ex.c ****     /* Return error status */
 220:/home/vtrnnhlinh/STM32Cube/Repository/STM32Cube_FW_F4_V1.28.0/Drivers/STM32F4xx_HAL_Driver/Src/stm32f4xx_hal_dma_ex.c ****     status = HAL_BUSY;
 221:/home/vtrnnhlinh/STM32Cube/Repository/STM32Cube_FW_F4_V1.28.0/Drivers/STM32F4xx_HAL_Driver/Src/stm32f4xx_hal_dma_ex.c ****   }  
 222:/home/vtrnnhlinh/STM32Cube/Repository/STM32Cube_FW_F4_V1.28.0/Drivers/STM32F4xx_HAL_Driver/Src/stm32f4xx_hal_dma_ex.c ****   return status; 
 223:/home/vtrnnhlinh/STM32Cube/Repository/STM32Cube_FW_F4_V1.28.0/Drivers/STM32F4xx_HAL_Driver/Src/stm32f4xx_hal_dma_ex.c **** }
 224:/home/vtrnnhlinh/STM32Cube/Repository/STM32Cube_FW_F4_V1.28.0/Drivers/STM32F4xx_HAL_Driver/Src/stm32f4xx_hal_dma_ex.c **** 
 225:/home/vtrnnhlinh/STM32Cube/Repository/STM32Cube_FW_F4_V1.28.0/Drivers/STM32F4xx_HAL_Driver/Src/stm32f4xx_hal_dma_ex.c **** /**
 226:/home/vtrnnhlinh/STM32Cube/Repository/STM32Cube_FW_F4_V1.28.0/Drivers/STM32F4xx_HAL_Driver/Src/stm32f4xx_hal_dma_ex.c ****   * @brief  Change the memory0 or memory1 address on the fly.
 227:/home/vtrnnhlinh/STM32Cube/Repository/STM32Cube_FW_F4_V1.28.0/Drivers/STM32F4xx_HAL_Driver/Src/stm32f4xx_hal_dma_ex.c ****   * @param  hdma       pointer to a DMA_HandleTypeDef structure that contains
 228:/home/vtrnnhlinh/STM32Cube/Repository/STM32Cube_FW_F4_V1.28.0/Drivers/STM32F4xx_HAL_Driver/Src/stm32f4xx_hal_dma_ex.c ****   *                     the configuration information for the specified DMA Stream.  
 229:/home/vtrnnhlinh/STM32Cube/Repository/STM32Cube_FW_F4_V1.28.0/Drivers/STM32F4xx_HAL_Driver/Src/stm32f4xx_hal_dma_ex.c ****   * @param  Address    The new address
 230:/home/vtrnnhlinh/STM32Cube/Repository/STM32Cube_FW_F4_V1.28.0/Drivers/STM32F4xx_HAL_Driver/Src/stm32f4xx_hal_dma_ex.c ****   * @param  memory     the memory to be changed, This parameter can be one of 
 231:/home/vtrnnhlinh/STM32Cube/Repository/STM32Cube_FW_F4_V1.28.0/Drivers/STM32F4xx_HAL_Driver/Src/stm32f4xx_hal_dma_ex.c ****   *                     the following values:
 232:/home/vtrnnhlinh/STM32Cube/Repository/STM32Cube_FW_F4_V1.28.0/Drivers/STM32F4xx_HAL_Driver/Src/stm32f4xx_hal_dma_ex.c ****   *                      MEMORY0 /
 233:/home/vtrnnhlinh/STM32Cube/Repository/STM32Cube_FW_F4_V1.28.0/Drivers/STM32F4xx_HAL_Driver/Src/stm32f4xx_hal_dma_ex.c ****   *                      MEMORY1
 234:/home/vtrnnhlinh/STM32Cube/Repository/STM32Cube_FW_F4_V1.28.0/Drivers/STM32F4xx_HAL_Driver/Src/stm32f4xx_hal_dma_ex.c ****   * @note   The MEMORY0 address can be changed only when the current transfer use
 235:/home/vtrnnhlinh/STM32Cube/Repository/STM32Cube_FW_F4_V1.28.0/Drivers/STM32F4xx_HAL_Driver/Src/stm32f4xx_hal_dma_ex.c ****   *         MEMORY1 and the MEMORY1 address can be changed only when the current 
 236:/home/vtrnnhlinh/STM32Cube/Repository/STM32Cube_FW_F4_V1.28.0/Drivers/STM32F4xx_HAL_Driver/Src/stm32f4xx_hal_dma_ex.c ****   *         transfer use MEMORY0.
 237:/home/vtrnnhlinh/STM32Cube/Repository/STM32Cube_FW_F4_V1.28.0/Drivers/STM32F4xx_HAL_Driver/Src/stm32f4xx_hal_dma_ex.c ****   * @retval HAL status
 238:/home/vtrnnhlinh/STM32Cube/Repository/STM32Cube_FW_F4_V1.28.0/Drivers/STM32F4xx_HAL_Driver/Src/stm32f4xx_hal_dma_ex.c ****   */
 239:/home/vtrnnhlinh/STM32Cube/Repository/STM32Cube_FW_F4_V1.28.0/Drivers/STM32F4xx_HAL_Driver/Src/stm32f4xx_hal_dma_ex.c **** HAL_StatusTypeDef HAL_DMAEx_ChangeMemory(DMA_HandleTypeDef *hdma, uint32_t Address, HAL_DMA_MemoryT
 240:/home/vtrnnhlinh/STM32Cube/Repository/STM32Cube_FW_F4_V1.28.0/Drivers/STM32F4xx_HAL_Driver/Src/stm32f4xx_hal_dma_ex.c **** {
 241:/home/vtrnnhlinh/STM32Cube/Repository/STM32Cube_FW_F4_V1.28.0/Drivers/STM32F4xx_HAL_Driver/Src/stm32f4xx_hal_dma_ex.c ****   if(memory == MEMORY0)
 242:/home/vtrnnhlinh/STM32Cube/Repository/STM32Cube_FW_F4_V1.28.0/Drivers/STM32F4xx_HAL_Driver/Src/stm32f4xx_hal_dma_ex.c ****   {
 243:/home/vtrnnhlinh/STM32Cube/Repository/STM32Cube_FW_F4_V1.28.0/Drivers/STM32F4xx_HAL_Driver/Src/stm32f4xx_hal_dma_ex.c ****     /* change the memory0 address */
 244:/home/vtrnnhlinh/STM32Cube/Repository/STM32Cube_FW_F4_V1.28.0/Drivers/STM32F4xx_HAL_Driver/Src/stm32f4xx_hal_dma_ex.c ****     hdma->Instance->M0AR = Address;
 245:/home/vtrnnhlinh/STM32Cube/Repository/STM32Cube_FW_F4_V1.28.0/Drivers/STM32F4xx_HAL_Driver/Src/stm32f4xx_hal_dma_ex.c ****   }
 246:/home/vtrnnhlinh/STM32Cube/Repository/STM32Cube_FW_F4_V1.28.0/Drivers/STM32F4xx_HAL_Driver/Src/stm32f4xx_hal_dma_ex.c ****   else
 247:/home/vtrnnhlinh/STM32Cube/Repository/STM32Cube_FW_F4_V1.28.0/Drivers/STM32F4xx_HAL_Driver/Src/stm32f4xx_hal_dma_ex.c ****   {
 248:/home/vtrnnhlinh/STM32Cube/Repository/STM32Cube_FW_F4_V1.28.0/Drivers/STM32F4xx_HAL_Driver/Src/stm32f4xx_hal_dma_ex.c ****     /* change the memory1 address */
 249:/home/vtrnnhlinh/STM32Cube/Repository/STM32Cube_FW_F4_V1.28.0/Drivers/STM32F4xx_HAL_Driver/Src/stm32f4xx_hal_dma_ex.c ****     hdma->Instance->M1AR = Address;
 250:/home/vtrnnhlinh/STM32Cube/Repository/STM32Cube_FW_F4_V1.28.0/Drivers/STM32F4xx_HAL_Driver/Src/stm32f4xx_hal_dma_ex.c ****   }
 251:/home/vtrnnhlinh/STM32Cube/Repository/STM32Cube_FW_F4_V1.28.0/Drivers/STM32F4xx_HAL_Driver/Src/stm32f4xx_hal_dma_ex.c **** 
 252:/home/vtrnnhlinh/STM32Cube/Repository/STM32Cube_FW_F4_V1.28.0/Drivers/STM32F4xx_HAL_Driver/Src/stm32f4xx_hal_dma_ex.c ****   return HAL_OK;
 253:/home/vtrnnhlinh/STM32Cube/Repository/STM32Cube_FW_F4_V1.28.0/Drivers/STM32F4xx_HAL_Driver/Src/stm32f4xx_hal_dma_ex.c **** }
 254:/home/vtrnnhlinh/STM32Cube/Repository/STM32Cube_FW_F4_V1.28.0/Drivers/STM32F4xx_HAL_Driver/Src/stm32f4xx_hal_dma_ex.c **** 
 255:/home/vtrnnhlinh/STM32Cube/Repository/STM32Cube_FW_F4_V1.28.0/Drivers/STM32F4xx_HAL_Driver/Src/stm32f4xx_hal_dma_ex.c **** /**
 256:/home/vtrnnhlinh/STM32Cube/Repository/STM32Cube_FW_F4_V1.28.0/Drivers/STM32F4xx_HAL_Driver/Src/stm32f4xx_hal_dma_ex.c ****   * @}
 257:/home/vtrnnhlinh/STM32Cube/Repository/STM32Cube_FW_F4_V1.28.0/Drivers/STM32F4xx_HAL_Driver/Src/stm32f4xx_hal_dma_ex.c ****   */
 258:/home/vtrnnhlinh/STM32Cube/Repository/STM32Cube_FW_F4_V1.28.0/Drivers/STM32F4xx_HAL_Driver/Src/stm32f4xx_hal_dma_ex.c **** 
ARM GAS  /tmp/cc92hle1.s 			page 6


 259:/home/vtrnnhlinh/STM32Cube/Repository/STM32Cube_FW_F4_V1.28.0/Drivers/STM32F4xx_HAL_Driver/Src/stm32f4xx_hal_dma_ex.c **** /**
 260:/home/vtrnnhlinh/STM32Cube/Repository/STM32Cube_FW_F4_V1.28.0/Drivers/STM32F4xx_HAL_Driver/Src/stm32f4xx_hal_dma_ex.c ****   * @}
 261:/home/vtrnnhlinh/STM32Cube/Repository/STM32Cube_FW_F4_V1.28.0/Drivers/STM32F4xx_HAL_Driver/Src/stm32f4xx_hal_dma_ex.c ****   */
 262:/home/vtrnnhlinh/STM32Cube/Repository/STM32Cube_FW_F4_V1.28.0/Drivers/STM32F4xx_HAL_Driver/Src/stm32f4xx_hal_dma_ex.c **** 
 263:/home/vtrnnhlinh/STM32Cube/Repository/STM32Cube_FW_F4_V1.28.0/Drivers/STM32F4xx_HAL_Driver/Src/stm32f4xx_hal_dma_ex.c **** /** @addtogroup DMAEx_Private_Functions
 264:/home/vtrnnhlinh/STM32Cube/Repository/STM32Cube_FW_F4_V1.28.0/Drivers/STM32F4xx_HAL_Driver/Src/stm32f4xx_hal_dma_ex.c ****   * @{
 265:/home/vtrnnhlinh/STM32Cube/Repository/STM32Cube_FW_F4_V1.28.0/Drivers/STM32F4xx_HAL_Driver/Src/stm32f4xx_hal_dma_ex.c ****   */
 266:/home/vtrnnhlinh/STM32Cube/Repository/STM32Cube_FW_F4_V1.28.0/Drivers/STM32F4xx_HAL_Driver/Src/stm32f4xx_hal_dma_ex.c **** 
 267:/home/vtrnnhlinh/STM32Cube/Repository/STM32Cube_FW_F4_V1.28.0/Drivers/STM32F4xx_HAL_Driver/Src/stm32f4xx_hal_dma_ex.c **** /**
 268:/home/vtrnnhlinh/STM32Cube/Repository/STM32Cube_FW_F4_V1.28.0/Drivers/STM32F4xx_HAL_Driver/Src/stm32f4xx_hal_dma_ex.c ****   * @brief  Set the DMA Transfer parameter.
 269:/home/vtrnnhlinh/STM32Cube/Repository/STM32Cube_FW_F4_V1.28.0/Drivers/STM32F4xx_HAL_Driver/Src/stm32f4xx_hal_dma_ex.c ****   * @param  hdma       pointer to a DMA_HandleTypeDef structure that contains
 270:/home/vtrnnhlinh/STM32Cube/Repository/STM32Cube_FW_F4_V1.28.0/Drivers/STM32F4xx_HAL_Driver/Src/stm32f4xx_hal_dma_ex.c ****   *                     the configuration information for the specified DMA Stream.  
 271:/home/vtrnnhlinh/STM32Cube/Repository/STM32Cube_FW_F4_V1.28.0/Drivers/STM32F4xx_HAL_Driver/Src/stm32f4xx_hal_dma_ex.c ****   * @param  SrcAddress The source memory Buffer address
 272:/home/vtrnnhlinh/STM32Cube/Repository/STM32Cube_FW_F4_V1.28.0/Drivers/STM32F4xx_HAL_Driver/Src/stm32f4xx_hal_dma_ex.c ****   * @param  DstAddress The destination memory Buffer address
 273:/home/vtrnnhlinh/STM32Cube/Repository/STM32Cube_FW_F4_V1.28.0/Drivers/STM32F4xx_HAL_Driver/Src/stm32f4xx_hal_dma_ex.c ****   * @param  DataLength The length of data to be transferred from source to destination
 274:/home/vtrnnhlinh/STM32Cube/Repository/STM32Cube_FW_F4_V1.28.0/Drivers/STM32F4xx_HAL_Driver/Src/stm32f4xx_hal_dma_ex.c ****   * @retval HAL status
 275:/home/vtrnnhlinh/STM32Cube/Repository/STM32Cube_FW_F4_V1.28.0/Drivers/STM32F4xx_HAL_Driver/Src/stm32f4xx_hal_dma_ex.c ****   */
 276:/home/vtrnnhlinh/STM32Cube/Repository/STM32Cube_FW_F4_V1.28.0/Drivers/STM32F4xx_HAL_Driver/Src/stm32f4xx_hal_dma_ex.c **** static void DMA_MultiBufferSetConfig(DMA_HandleTypeDef *hdma, uint32_t SrcAddress, uint32_t DstAddr
 277:/home/vtrnnhlinh/STM32Cube/Repository/STM32Cube_FW_F4_V1.28.0/Drivers/STM32F4xx_HAL_Driver/Src/stm32f4xx_hal_dma_ex.c **** {  
  29              		.loc 1 277 1 view -0
  30              		.cfi_startproc
  31              		@ args = 0, pretend = 0, frame = 0
  32              		@ frame_needed = 0, uses_anonymous_args = 0
  33              		@ link register save eliminated.
  34              		.loc 1 277 1 is_stmt 0 view .LVU1
  35 0000 10B4     		push	{r4}
  36              	.LCFI0:
  37              		.cfi_def_cfa_offset 4
  38              		.cfi_offset 4, -4
 278:/home/vtrnnhlinh/STM32Cube/Repository/STM32Cube_FW_F4_V1.28.0/Drivers/STM32F4xx_HAL_Driver/Src/stm32f4xx_hal_dma_ex.c ****   /* Configure DMA Stream data length */
 279:/home/vtrnnhlinh/STM32Cube/Repository/STM32Cube_FW_F4_V1.28.0/Drivers/STM32F4xx_HAL_Driver/Src/stm32f4xx_hal_dma_ex.c ****   hdma->Instance->NDTR = DataLength;
  39              		.loc 1 279 3 is_stmt 1 view .LVU2
  40              		.loc 1 279 24 is_stmt 0 view .LVU3
  41 0002 0468     		ldr	r4, [r0]
  42 0004 6360     		str	r3, [r4, #4]
 280:/home/vtrnnhlinh/STM32Cube/Repository/STM32Cube_FW_F4_V1.28.0/Drivers/STM32F4xx_HAL_Driver/Src/stm32f4xx_hal_dma_ex.c ****   
 281:/home/vtrnnhlinh/STM32Cube/Repository/STM32Cube_FW_F4_V1.28.0/Drivers/STM32F4xx_HAL_Driver/Src/stm32f4xx_hal_dma_ex.c ****   /* Peripheral to Memory */
 282:/home/vtrnnhlinh/STM32Cube/Repository/STM32Cube_FW_F4_V1.28.0/Drivers/STM32F4xx_HAL_Driver/Src/stm32f4xx_hal_dma_ex.c ****   if((hdma->Init.Direction) == DMA_MEMORY_TO_PERIPH)
  43              		.loc 1 282 3 is_stmt 1 view .LVU4
  44              		.loc 1 282 17 is_stmt 0 view .LVU5
  45 0006 8368     		ldr	r3, [r0, #8]
  46              	.LVL1:
  47              		.loc 1 282 5 view .LVU6
  48 0008 402B     		cmp	r3, #64
  49 000a 06D0     		beq	.L5
 283:/home/vtrnnhlinh/STM32Cube/Repository/STM32Cube_FW_F4_V1.28.0/Drivers/STM32F4xx_HAL_Driver/Src/stm32f4xx_hal_dma_ex.c ****   {   
 284:/home/vtrnnhlinh/STM32Cube/Repository/STM32Cube_FW_F4_V1.28.0/Drivers/STM32F4xx_HAL_Driver/Src/stm32f4xx_hal_dma_ex.c ****     /* Configure DMA Stream destination address */
 285:/home/vtrnnhlinh/STM32Cube/Repository/STM32Cube_FW_F4_V1.28.0/Drivers/STM32F4xx_HAL_Driver/Src/stm32f4xx_hal_dma_ex.c ****     hdma->Instance->PAR = DstAddress;
 286:/home/vtrnnhlinh/STM32Cube/Repository/STM32Cube_FW_F4_V1.28.0/Drivers/STM32F4xx_HAL_Driver/Src/stm32f4xx_hal_dma_ex.c ****     
 287:/home/vtrnnhlinh/STM32Cube/Repository/STM32Cube_FW_F4_V1.28.0/Drivers/STM32F4xx_HAL_Driver/Src/stm32f4xx_hal_dma_ex.c ****     /* Configure DMA Stream source address */
 288:/home/vtrnnhlinh/STM32Cube/Repository/STM32Cube_FW_F4_V1.28.0/Drivers/STM32F4xx_HAL_Driver/Src/stm32f4xx_hal_dma_ex.c ****     hdma->Instance->M0AR = SrcAddress;
 289:/home/vtrnnhlinh/STM32Cube/Repository/STM32Cube_FW_F4_V1.28.0/Drivers/STM32F4xx_HAL_Driver/Src/stm32f4xx_hal_dma_ex.c ****   }
 290:/home/vtrnnhlinh/STM32Cube/Repository/STM32Cube_FW_F4_V1.28.0/Drivers/STM32F4xx_HAL_Driver/Src/stm32f4xx_hal_dma_ex.c ****   /* Memory to Peripheral */
 291:/home/vtrnnhlinh/STM32Cube/Repository/STM32Cube_FW_F4_V1.28.0/Drivers/STM32F4xx_HAL_Driver/Src/stm32f4xx_hal_dma_ex.c ****   else
 292:/home/vtrnnhlinh/STM32Cube/Repository/STM32Cube_FW_F4_V1.28.0/Drivers/STM32F4xx_HAL_Driver/Src/stm32f4xx_hal_dma_ex.c ****   {
 293:/home/vtrnnhlinh/STM32Cube/Repository/STM32Cube_FW_F4_V1.28.0/Drivers/STM32F4xx_HAL_Driver/Src/stm32f4xx_hal_dma_ex.c ****     /* Configure DMA Stream source address */
 294:/home/vtrnnhlinh/STM32Cube/Repository/STM32Cube_FW_F4_V1.28.0/Drivers/STM32F4xx_HAL_Driver/Src/stm32f4xx_hal_dma_ex.c ****     hdma->Instance->PAR = SrcAddress;
ARM GAS  /tmp/cc92hle1.s 			page 7


  50              		.loc 1 294 5 is_stmt 1 view .LVU7
  51              		.loc 1 294 9 is_stmt 0 view .LVU8
  52 000c 0368     		ldr	r3, [r0]
  53              		.loc 1 294 25 view .LVU9
  54 000e 9960     		str	r1, [r3, #8]
  55              	.LVL2:
 295:/home/vtrnnhlinh/STM32Cube/Repository/STM32Cube_FW_F4_V1.28.0/Drivers/STM32F4xx_HAL_Driver/Src/stm32f4xx_hal_dma_ex.c ****     
 296:/home/vtrnnhlinh/STM32Cube/Repository/STM32Cube_FW_F4_V1.28.0/Drivers/STM32F4xx_HAL_Driver/Src/stm32f4xx_hal_dma_ex.c ****     /* Configure DMA Stream destination address */
 297:/home/vtrnnhlinh/STM32Cube/Repository/STM32Cube_FW_F4_V1.28.0/Drivers/STM32F4xx_HAL_Driver/Src/stm32f4xx_hal_dma_ex.c ****     hdma->Instance->M0AR = DstAddress;
  56              		.loc 1 297 5 is_stmt 1 view .LVU10
  57              		.loc 1 297 9 is_stmt 0 view .LVU11
  58 0010 0368     		ldr	r3, [r0]
  59              		.loc 1 297 26 view .LVU12
  60 0012 DA60     		str	r2, [r3, #12]
  61              	.L1:
 298:/home/vtrnnhlinh/STM32Cube/Repository/STM32Cube_FW_F4_V1.28.0/Drivers/STM32F4xx_HAL_Driver/Src/stm32f4xx_hal_dma_ex.c ****   }
 299:/home/vtrnnhlinh/STM32Cube/Repository/STM32Cube_FW_F4_V1.28.0/Drivers/STM32F4xx_HAL_Driver/Src/stm32f4xx_hal_dma_ex.c **** }
  62              		.loc 1 299 1 view .LVU13
  63 0014 5DF8044B 		ldr	r4, [sp], #4
  64              	.LCFI1:
  65              		.cfi_remember_state
  66              		.cfi_restore 4
  67              		.cfi_def_cfa_offset 0
  68 0018 7047     		bx	lr
  69              	.LVL3:
  70              	.L5:
  71              	.LCFI2:
  72              		.cfi_restore_state
 285:/home/vtrnnhlinh/STM32Cube/Repository/STM32Cube_FW_F4_V1.28.0/Drivers/STM32F4xx_HAL_Driver/Src/stm32f4xx_hal_dma_ex.c ****     
  73              		.loc 1 285 5 is_stmt 1 view .LVU14
 285:/home/vtrnnhlinh/STM32Cube/Repository/STM32Cube_FW_F4_V1.28.0/Drivers/STM32F4xx_HAL_Driver/Src/stm32f4xx_hal_dma_ex.c ****     
  74              		.loc 1 285 9 is_stmt 0 view .LVU15
  75 001a 0368     		ldr	r3, [r0]
 285:/home/vtrnnhlinh/STM32Cube/Repository/STM32Cube_FW_F4_V1.28.0/Drivers/STM32F4xx_HAL_Driver/Src/stm32f4xx_hal_dma_ex.c ****     
  76              		.loc 1 285 25 view .LVU16
  77 001c 9A60     		str	r2, [r3, #8]
  78              	.LVL4:
 288:/home/vtrnnhlinh/STM32Cube/Repository/STM32Cube_FW_F4_V1.28.0/Drivers/STM32F4xx_HAL_Driver/Src/stm32f4xx_hal_dma_ex.c ****   }
  79              		.loc 1 288 5 is_stmt 1 view .LVU17
 288:/home/vtrnnhlinh/STM32Cube/Repository/STM32Cube_FW_F4_V1.28.0/Drivers/STM32F4xx_HAL_Driver/Src/stm32f4xx_hal_dma_ex.c ****   }
  80              		.loc 1 288 9 is_stmt 0 view .LVU18
  81 001e 0368     		ldr	r3, [r0]
 288:/home/vtrnnhlinh/STM32Cube/Repository/STM32Cube_FW_F4_V1.28.0/Drivers/STM32F4xx_HAL_Driver/Src/stm32f4xx_hal_dma_ex.c ****   }
  82              		.loc 1 288 26 view .LVU19
  83 0020 D960     		str	r1, [r3, #12]
  84 0022 F7E7     		b	.L1
  85              		.cfi_endproc
  86              	.LFE137:
  88              		.section	.rodata.HAL_DMAEx_MultiBufferStart.str1.4,"aMS",%progbits,1
  89              		.align	2
  90              	.LC0:
  91 0000 2F686F6D 		.ascii	"/home/vtrnnhlinh/STM32Cube/Repository/STM32Cube_FW_"
  91      652F7674 
  91      726E6E68 
  91      6C696E68 
  91      2F53544D 
  92 0033 46345F56 		.ascii	"F4_V1.28.0/Drivers/STM32F4xx_HAL_Driver/Src/stm32f4"
ARM GAS  /tmp/cc92hle1.s 			page 8


  92      312E3238 
  92      2E302F44 
  92      72697665 
  92      72732F53 
  93 0066 78785F68 		.ascii	"xx_hal_dma_ex.c\000"
  93      616C5F64 
  93      6D615F65 
  93      782E6300 
  94              		.section	.text.HAL_DMAEx_MultiBufferStart,"ax",%progbits
  95              		.align	1
  96              		.global	HAL_DMAEx_MultiBufferStart
  97              		.syntax unified
  98              		.thumb
  99              		.thumb_func
 100              		.fpu fpv4-sp-d16
 102              	HAL_DMAEx_MultiBufferStart:
 103              	.LVL5:
 104              	.LFB134:
 101:/home/vtrnnhlinh/STM32Cube/Repository/STM32Cube_FW_F4_V1.28.0/Drivers/STM32F4xx_HAL_Driver/Src/stm32f4xx_hal_dma_ex.c ****   HAL_StatusTypeDef status = HAL_OK;
 105              		.loc 1 101 1 is_stmt 1 view -0
 106              		.cfi_startproc
 107              		@ args = 4, pretend = 0, frame = 0
 108              		@ frame_needed = 0, uses_anonymous_args = 0
 101:/home/vtrnnhlinh/STM32Cube/Repository/STM32Cube_FW_F4_V1.28.0/Drivers/STM32F4xx_HAL_Driver/Src/stm32f4xx_hal_dma_ex.c ****   HAL_StatusTypeDef status = HAL_OK;
 109              		.loc 1 101 1 is_stmt 0 view .LVU21
 110 0000 2DE9F041 		push	{r4, r5, r6, r7, r8, lr}
 111              	.LCFI3:
 112              		.cfi_def_cfa_offset 24
 113              		.cfi_offset 4, -24
 114              		.cfi_offset 5, -20
 115              		.cfi_offset 6, -16
 116              		.cfi_offset 7, -12
 117              		.cfi_offset 8, -8
 118              		.cfi_offset 14, -4
 119 0004 0446     		mov	r4, r0
 120 0006 0D46     		mov	r5, r1
 121 0008 1646     		mov	r6, r2
 122 000a 9846     		mov	r8, r3
 123 000c 069F     		ldr	r7, [sp, #24]
 102:/home/vtrnnhlinh/STM32Cube/Repository/STM32Cube_FW_F4_V1.28.0/Drivers/STM32F4xx_HAL_Driver/Src/stm32f4xx_hal_dma_ex.c ****   
 124              		.loc 1 102 3 is_stmt 1 view .LVU22
 125              	.LVL6:
 105:/home/vtrnnhlinh/STM32Cube/Repository/STM32Cube_FW_F4_V1.28.0/Drivers/STM32F4xx_HAL_Driver/Src/stm32f4xx_hal_dma_ex.c ****   
 126              		.loc 1 105 3 view .LVU23
 127 000e 7A1E     		subs	r2, r7, #1
 128              	.LVL7:
 105:/home/vtrnnhlinh/STM32Cube/Repository/STM32Cube_FW_F4_V1.28.0/Drivers/STM32F4xx_HAL_Driver/Src/stm32f4xx_hal_dma_ex.c ****   
 129              		.loc 1 105 3 is_stmt 0 view .LVU24
 130 0010 4FF6FE73 		movw	r3, #65534
 131              	.LVL8:
 105:/home/vtrnnhlinh/STM32Cube/Repository/STM32Cube_FW_F4_V1.28.0/Drivers/STM32F4xx_HAL_Driver/Src/stm32f4xx_hal_dma_ex.c ****   
 132              		.loc 1 105 3 view .LVU25
 133 0014 9A42     		cmp	r2, r3
 134 0016 11D8     		bhi	.L13
 135              	.LVL9:
 136              	.L7:
 108:/home/vtrnnhlinh/STM32Cube/Repository/STM32Cube_FW_F4_V1.28.0/Drivers/STM32F4xx_HAL_Driver/Src/stm32f4xx_hal_dma_ex.c ****   {
ARM GAS  /tmp/cc92hle1.s 			page 9


 137              		.loc 1 108 3 is_stmt 1 view .LVU26
 108:/home/vtrnnhlinh/STM32Cube/Repository/STM32Cube_FW_F4_V1.28.0/Drivers/STM32F4xx_HAL_Driver/Src/stm32f4xx_hal_dma_ex.c ****   {
 138              		.loc 1 108 17 is_stmt 0 view .LVU27
 139 0018 A368     		ldr	r3, [r4, #8]
 108:/home/vtrnnhlinh/STM32Cube/Repository/STM32Cube_FW_F4_V1.28.0/Drivers/STM32F4xx_HAL_Driver/Src/stm32f4xx_hal_dma_ex.c ****   {
 140              		.loc 1 108 6 view .LVU28
 141 001a 802B     		cmp	r3, #128
 142 001c 13D0     		beq	.L14
 116:/home/vtrnnhlinh/STM32Cube/Repository/STM32Cube_FW_F4_V1.28.0/Drivers/STM32F4xx_HAL_Driver/Src/stm32f4xx_hal_dma_ex.c ****     
 143              		.loc 1 116 5 is_stmt 1 view .LVU29
 116:/home/vtrnnhlinh/STM32Cube/Repository/STM32Cube_FW_F4_V1.28.0/Drivers/STM32F4xx_HAL_Driver/Src/stm32f4xx_hal_dma_ex.c ****     
 144              		.loc 1 116 5 view .LVU30
 145 001e 94F83430 		ldrb	r3, [r4, #52]	@ zero_extendqisi2
 146 0022 012B     		cmp	r3, #1
 147 0024 2CD0     		beq	.L10
 116:/home/vtrnnhlinh/STM32Cube/Repository/STM32Cube_FW_F4_V1.28.0/Drivers/STM32F4xx_HAL_Driver/Src/stm32f4xx_hal_dma_ex.c ****     
 148              		.loc 1 116 5 discriminator 2 view .LVU31
 149 0026 0123     		movs	r3, #1
 150 0028 84F83430 		strb	r3, [r4, #52]
 116:/home/vtrnnhlinh/STM32Cube/Repository/STM32Cube_FW_F4_V1.28.0/Drivers/STM32F4xx_HAL_Driver/Src/stm32f4xx_hal_dma_ex.c ****     
 151              		.loc 1 116 5 discriminator 2 view .LVU32
 118:/home/vtrnnhlinh/STM32Cube/Repository/STM32Cube_FW_F4_V1.28.0/Drivers/STM32F4xx_HAL_Driver/Src/stm32f4xx_hal_dma_ex.c ****     {
 152              		.loc 1 118 5 discriminator 2 view .LVU33
 118:/home/vtrnnhlinh/STM32Cube/Repository/STM32Cube_FW_F4_V1.28.0/Drivers/STM32F4xx_HAL_Driver/Src/stm32f4xx_hal_dma_ex.c ****     {
 153              		.loc 1 118 35 is_stmt 0 discriminator 2 view .LVU34
 154 002c 94F83530 		ldrb	r3, [r4, #53]	@ zero_extendqisi2
 155 0030 DBB2     		uxtb	r3, r3
 118:/home/vtrnnhlinh/STM32Cube/Repository/STM32Cube_FW_F4_V1.28.0/Drivers/STM32F4xx_HAL_Driver/Src/stm32f4xx_hal_dma_ex.c ****     {
 156              		.loc 1 118 7 discriminator 2 view .LVU35
 157 0032 012B     		cmp	r3, #1
 158 0034 0CD0     		beq	.L15
 138:/home/vtrnnhlinh/STM32Cube/Repository/STM32Cube_FW_F4_V1.28.0/Drivers/STM32F4xx_HAL_Driver/Src/stm32f4xx_hal_dma_ex.c ****     }
 159              		.loc 1 138 14 view .LVU36
 160 0036 0220     		movs	r0, #2
 161              	.LVL10:
 162              	.L9:
 142:/home/vtrnnhlinh/STM32Cube/Repository/STM32Cube_FW_F4_V1.28.0/Drivers/STM32F4xx_HAL_Driver/Src/stm32f4xx_hal_dma_ex.c **** 
 163              		.loc 1 142 1 view .LVU37
 164 0038 BDE8F081 		pop	{r4, r5, r6, r7, r8, pc}
 165              	.LVL11:
 166              	.L13:
 105:/home/vtrnnhlinh/STM32Cube/Repository/STM32Cube_FW_F4_V1.28.0/Drivers/STM32F4xx_HAL_Driver/Src/stm32f4xx_hal_dma_ex.c ****   
 167              		.loc 1 105 3 discriminator 1 view .LVU38
 168 003c 6921     		movs	r1, #105
 169              	.LVL12:
 105:/home/vtrnnhlinh/STM32Cube/Repository/STM32Cube_FW_F4_V1.28.0/Drivers/STM32F4xx_HAL_Driver/Src/stm32f4xx_hal_dma_ex.c ****   
 170              		.loc 1 105 3 discriminator 1 view .LVU39
 171 003e 1148     		ldr	r0, .L16
 172              	.LVL13:
 105:/home/vtrnnhlinh/STM32Cube/Repository/STM32Cube_FW_F4_V1.28.0/Drivers/STM32F4xx_HAL_Driver/Src/stm32f4xx_hal_dma_ex.c ****   
 173              		.loc 1 105 3 discriminator 1 view .LVU40
 174 0040 FFF7FEFF 		bl	assert_failed
 175              	.LVL14:
 176 0044 E8E7     		b	.L7
 177              	.L14:
 110:/home/vtrnnhlinh/STM32Cube/Repository/STM32Cube_FW_F4_V1.28.0/Drivers/STM32F4xx_HAL_Driver/Src/stm32f4xx_hal_dma_ex.c ****     status = HAL_ERROR;
 178              		.loc 1 110 5 is_stmt 1 view .LVU41
ARM GAS  /tmp/cc92hle1.s 			page 10


 110:/home/vtrnnhlinh/STM32Cube/Repository/STM32Cube_FW_F4_V1.28.0/Drivers/STM32F4xx_HAL_Driver/Src/stm32f4xx_hal_dma_ex.c ****     status = HAL_ERROR;
 179              		.loc 1 110 21 is_stmt 0 view .LVU42
 180 0046 4FF48073 		mov	r3, #256
 181 004a 6365     		str	r3, [r4, #84]
 111:/home/vtrnnhlinh/STM32Cube/Repository/STM32Cube_FW_F4_V1.28.0/Drivers/STM32F4xx_HAL_Driver/Src/stm32f4xx_hal_dma_ex.c ****   }
 182              		.loc 1 111 5 is_stmt 1 view .LVU43
 183              	.LVL15:
 111:/home/vtrnnhlinh/STM32Cube/Repository/STM32Cube_FW_F4_V1.28.0/Drivers/STM32F4xx_HAL_Driver/Src/stm32f4xx_hal_dma_ex.c ****   }
 184              		.loc 1 111 12 is_stmt 0 view .LVU44
 185 004c 0120     		movs	r0, #1
 186 004e F3E7     		b	.L9
 187              	.LVL16:
 188              	.L15:
 121:/home/vtrnnhlinh/STM32Cube/Repository/STM32Cube_FW_F4_V1.28.0/Drivers/STM32F4xx_HAL_Driver/Src/stm32f4xx_hal_dma_ex.c ****       
 189              		.loc 1 121 7 is_stmt 1 view .LVU45
 121:/home/vtrnnhlinh/STM32Cube/Repository/STM32Cube_FW_F4_V1.28.0/Drivers/STM32F4xx_HAL_Driver/Src/stm32f4xx_hal_dma_ex.c ****       
 190              		.loc 1 121 19 is_stmt 0 view .LVU46
 191 0050 0223     		movs	r3, #2
 192 0052 84F83530 		strb	r3, [r4, #53]
 124:/home/vtrnnhlinh/STM32Cube/Repository/STM32Cube_FW_F4_V1.28.0/Drivers/STM32F4xx_HAL_Driver/Src/stm32f4xx_hal_dma_ex.c ****       
 193              		.loc 1 124 7 is_stmt 1 view .LVU47
 124:/home/vtrnnhlinh/STM32Cube/Repository/STM32Cube_FW_F4_V1.28.0/Drivers/STM32F4xx_HAL_Driver/Src/stm32f4xx_hal_dma_ex.c ****       
 194              		.loc 1 124 11 is_stmt 0 view .LVU48
 195 0056 2268     		ldr	r2, [r4]
 124:/home/vtrnnhlinh/STM32Cube/Repository/STM32Cube_FW_F4_V1.28.0/Drivers/STM32F4xx_HAL_Driver/Src/stm32f4xx_hal_dma_ex.c ****       
 196              		.loc 1 124 26 view .LVU49
 197 0058 1368     		ldr	r3, [r2]
 198 005a 43F48023 		orr	r3, r3, #262144
 199 005e 1360     		str	r3, [r2]
 127:/home/vtrnnhlinh/STM32Cube/Repository/STM32Cube_FW_F4_V1.28.0/Drivers/STM32F4xx_HAL_Driver/Src/stm32f4xx_hal_dma_ex.c ****       
 200              		.loc 1 127 7 is_stmt 1 view .LVU50
 127:/home/vtrnnhlinh/STM32Cube/Repository/STM32Cube_FW_F4_V1.28.0/Drivers/STM32F4xx_HAL_Driver/Src/stm32f4xx_hal_dma_ex.c ****       
 201              		.loc 1 127 11 is_stmt 0 view .LVU51
 202 0060 2368     		ldr	r3, [r4]
 127:/home/vtrnnhlinh/STM32Cube/Repository/STM32Cube_FW_F4_V1.28.0/Drivers/STM32F4xx_HAL_Driver/Src/stm32f4xx_hal_dma_ex.c ****       
 203              		.loc 1 127 28 view .LVU52
 204 0062 C3F81080 		str	r8, [r3, #16]
 130:/home/vtrnnhlinh/STM32Cube/Repository/STM32Cube_FW_F4_V1.28.0/Drivers/STM32F4xx_HAL_Driver/Src/stm32f4xx_hal_dma_ex.c ****       
 205              		.loc 1 130 7 is_stmt 1 view .LVU53
 206 0066 3B46     		mov	r3, r7
 207 0068 3246     		mov	r2, r6
 208 006a 2946     		mov	r1, r5
 209 006c 2046     		mov	r0, r4
 210 006e FFF7FEFF 		bl	DMA_MultiBufferSetConfig
 211              	.LVL17:
 133:/home/vtrnnhlinh/STM32Cube/Repository/STM32Cube_FW_F4_V1.28.0/Drivers/STM32F4xx_HAL_Driver/Src/stm32f4xx_hal_dma_ex.c ****     }
 212              		.loc 1 133 7 view .LVU54
 213 0072 2268     		ldr	r2, [r4]
 214 0074 1368     		ldr	r3, [r2]
 215 0076 43F00103 		orr	r3, r3, #1
 216 007a 1360     		str	r3, [r2]
 102:/home/vtrnnhlinh/STM32Cube/Repository/STM32Cube_FW_F4_V1.28.0/Drivers/STM32F4xx_HAL_Driver/Src/stm32f4xx_hal_dma_ex.c ****   
 217              		.loc 1 102 21 is_stmt 0 view .LVU55
 218 007c 0020     		movs	r0, #0
 219 007e DBE7     		b	.L9
 220              	.L10:
 116:/home/vtrnnhlinh/STM32Cube/Repository/STM32Cube_FW_F4_V1.28.0/Drivers/STM32F4xx_HAL_Driver/Src/stm32f4xx_hal_dma_ex.c ****     
ARM GAS  /tmp/cc92hle1.s 			page 11


 221              		.loc 1 116 5 view .LVU56
 222 0080 0220     		movs	r0, #2
 223 0082 D9E7     		b	.L9
 224              	.L17:
 225              		.align	2
 226              	.L16:
 227 0084 00000000 		.word	.LC0
 228              		.cfi_endproc
 229              	.LFE134:
 231              		.section	.text.HAL_DMAEx_MultiBufferStart_IT,"ax",%progbits
 232              		.align	1
 233              		.global	HAL_DMAEx_MultiBufferStart_IT
 234              		.syntax unified
 235              		.thumb
 236              		.thumb_func
 237              		.fpu fpv4-sp-d16
 239              	HAL_DMAEx_MultiBufferStart_IT:
 240              	.LVL18:
 241              	.LFB135:
 155:/home/vtrnnhlinh/STM32Cube/Repository/STM32Cube_FW_F4_V1.28.0/Drivers/STM32F4xx_HAL_Driver/Src/stm32f4xx_hal_dma_ex.c ****   HAL_StatusTypeDef status = HAL_OK;
 242              		.loc 1 155 1 is_stmt 1 view -0
 243              		.cfi_startproc
 244              		@ args = 4, pretend = 0, frame = 0
 245              		@ frame_needed = 0, uses_anonymous_args = 0
 155:/home/vtrnnhlinh/STM32Cube/Repository/STM32Cube_FW_F4_V1.28.0/Drivers/STM32F4xx_HAL_Driver/Src/stm32f4xx_hal_dma_ex.c ****   HAL_StatusTypeDef status = HAL_OK;
 246              		.loc 1 155 1 is_stmt 0 view .LVU58
 247 0000 2DE9F041 		push	{r4, r5, r6, r7, r8, lr}
 248              	.LCFI4:
 249              		.cfi_def_cfa_offset 24
 250              		.cfi_offset 4, -24
 251              		.cfi_offset 5, -20
 252              		.cfi_offset 6, -16
 253              		.cfi_offset 7, -12
 254              		.cfi_offset 8, -8
 255              		.cfi_offset 14, -4
 256 0004 0446     		mov	r4, r0
 257 0006 0D46     		mov	r5, r1
 258 0008 1646     		mov	r6, r2
 259 000a 9846     		mov	r8, r3
 260 000c 069F     		ldr	r7, [sp, #24]
 156:/home/vtrnnhlinh/STM32Cube/Repository/STM32Cube_FW_F4_V1.28.0/Drivers/STM32F4xx_HAL_Driver/Src/stm32f4xx_hal_dma_ex.c ****   
 261              		.loc 1 156 3 is_stmt 1 view .LVU59
 262              	.LVL19:
 159:/home/vtrnnhlinh/STM32Cube/Repository/STM32Cube_FW_F4_V1.28.0/Drivers/STM32F4xx_HAL_Driver/Src/stm32f4xx_hal_dma_ex.c ****   
 263              		.loc 1 159 3 view .LVU60
 264 000e 791E     		subs	r1, r7, #1
 265              	.LVL20:
 159:/home/vtrnnhlinh/STM32Cube/Repository/STM32Cube_FW_F4_V1.28.0/Drivers/STM32F4xx_HAL_Driver/Src/stm32f4xx_hal_dma_ex.c ****   
 266              		.loc 1 159 3 is_stmt 0 view .LVU61
 267 0010 4FF6FE72 		movw	r2, #65534
 268              	.LVL21:
 159:/home/vtrnnhlinh/STM32Cube/Repository/STM32Cube_FW_F4_V1.28.0/Drivers/STM32F4xx_HAL_Driver/Src/stm32f4xx_hal_dma_ex.c ****   
 269              		.loc 1 159 3 view .LVU62
 270 0014 9142     		cmp	r1, r2
 271 0016 1AD8     		bhi	.L309
 272              	.LVL22:
 273              	.L19:
ARM GAS  /tmp/cc92hle1.s 			page 12


 162:/home/vtrnnhlinh/STM32Cube/Repository/STM32Cube_FW_F4_V1.28.0/Drivers/STM32F4xx_HAL_Driver/Src/stm32f4xx_hal_dma_ex.c ****   {
 274              		.loc 1 162 3 is_stmt 1 view .LVU63
 162:/home/vtrnnhlinh/STM32Cube/Repository/STM32Cube_FW_F4_V1.28.0/Drivers/STM32F4xx_HAL_Driver/Src/stm32f4xx_hal_dma_ex.c ****   {
 275              		.loc 1 162 17 is_stmt 0 view .LVU64
 276 0018 A268     		ldr	r2, [r4, #8]
 162:/home/vtrnnhlinh/STM32Cube/Repository/STM32Cube_FW_F4_V1.28.0/Drivers/STM32F4xx_HAL_Driver/Src/stm32f4xx_hal_dma_ex.c ****   {
 277              		.loc 1 162 6 view .LVU65
 278 001a 802A     		cmp	r2, #128
 279 001c 1CD0     		beq	.L310
 169:/home/vtrnnhlinh/STM32Cube/Repository/STM32Cube_FW_F4_V1.28.0/Drivers/STM32F4xx_HAL_Driver/Src/stm32f4xx_hal_dma_ex.c ****   {
 280              		.loc 1 169 3 is_stmt 1 view .LVU66
 169:/home/vtrnnhlinh/STM32Cube/Repository/STM32Cube_FW_F4_V1.28.0/Drivers/STM32F4xx_HAL_Driver/Src/stm32f4xx_hal_dma_ex.c ****   {
 281              		.loc 1 169 20 is_stmt 0 view .LVU67
 282 001e E36B     		ldr	r3, [r4, #60]
 169:/home/vtrnnhlinh/STM32Cube/Repository/STM32Cube_FW_F4_V1.28.0/Drivers/STM32F4xx_HAL_Driver/Src/stm32f4xx_hal_dma_ex.c ****   {
 283              		.loc 1 169 6 view .LVU68
 284 0020 FBB1     		cbz	r3, .L22
 169:/home/vtrnnhlinh/STM32Cube/Repository/STM32Cube_FW_F4_V1.28.0/Drivers/STM32F4xx_HAL_Driver/Src/stm32f4xx_hal_dma_ex.c ****   {
 285              		.loc 1 169 56 discriminator 1 view .LVU69
 286 0022 636C     		ldr	r3, [r4, #68]
 169:/home/vtrnnhlinh/STM32Cube/Repository/STM32Cube_FW_F4_V1.28.0/Drivers/STM32F4xx_HAL_Driver/Src/stm32f4xx_hal_dma_ex.c ****   {
 287              		.loc 1 169 40 discriminator 1 view .LVU70
 288 0024 EBB1     		cbz	r3, .L22
 169:/home/vtrnnhlinh/STM32Cube/Repository/STM32Cube_FW_F4_V1.28.0/Drivers/STM32F4xx_HAL_Driver/Src/stm32f4xx_hal_dma_ex.c ****   {
 289              		.loc 1 169 94 discriminator 2 view .LVU71
 290 0026 E36C     		ldr	r3, [r4, #76]
 169:/home/vtrnnhlinh/STM32Cube/Repository/STM32Cube_FW_F4_V1.28.0/Drivers/STM32F4xx_HAL_Driver/Src/stm32f4xx_hal_dma_ex.c ****   {
 291              		.loc 1 169 78 discriminator 2 view .LVU72
 292 0028 DBB1     		cbz	r3, .L22
 176:/home/vtrnnhlinh/STM32Cube/Repository/STM32Cube_FW_F4_V1.28.0/Drivers/STM32F4xx_HAL_Driver/Src/stm32f4xx_hal_dma_ex.c ****   
 293              		.loc 1 176 3 is_stmt 1 view .LVU73
 176:/home/vtrnnhlinh/STM32Cube/Repository/STM32Cube_FW_F4_V1.28.0/Drivers/STM32F4xx_HAL_Driver/Src/stm32f4xx_hal_dma_ex.c ****   
 294              		.loc 1 176 3 view .LVU74
 295 002a 94F83430 		ldrb	r3, [r4, #52]	@ zero_extendqisi2
 296 002e 012B     		cmp	r3, #1
 297 0030 00F07387 		beq	.L67
 176:/home/vtrnnhlinh/STM32Cube/Repository/STM32Cube_FW_F4_V1.28.0/Drivers/STM32F4xx_HAL_Driver/Src/stm32f4xx_hal_dma_ex.c ****   
 298              		.loc 1 176 3 discriminator 2 view .LVU75
 299 0034 0123     		movs	r3, #1
 300 0036 84F83430 		strb	r3, [r4, #52]
 176:/home/vtrnnhlinh/STM32Cube/Repository/STM32Cube_FW_F4_V1.28.0/Drivers/STM32F4xx_HAL_Driver/Src/stm32f4xx_hal_dma_ex.c ****   
 301              		.loc 1 176 3 discriminator 2 view .LVU76
 178:/home/vtrnnhlinh/STM32Cube/Repository/STM32Cube_FW_F4_V1.28.0/Drivers/STM32F4xx_HAL_Driver/Src/stm32f4xx_hal_dma_ex.c ****   {
 302              		.loc 1 178 3 discriminator 2 view .LVU77
 178:/home/vtrnnhlinh/STM32Cube/Repository/STM32Cube_FW_F4_V1.28.0/Drivers/STM32F4xx_HAL_Driver/Src/stm32f4xx_hal_dma_ex.c ****   {
 303              		.loc 1 178 33 is_stmt 0 discriminator 2 view .LVU78
 304 003a 94F83530 		ldrb	r3, [r4, #53]	@ zero_extendqisi2
 305 003e DBB2     		uxtb	r3, r3
 178:/home/vtrnnhlinh/STM32Cube/Repository/STM32Cube_FW_F4_V1.28.0/Drivers/STM32F4xx_HAL_Driver/Src/stm32f4xx_hal_dma_ex.c ****   {
 306              		.loc 1 178 5 discriminator 2 view .LVU79
 307 0040 012B     		cmp	r3, #1
 308 0042 13D0     		beq	.L311
 217:/home/vtrnnhlinh/STM32Cube/Repository/STM32Cube_FW_F4_V1.28.0/Drivers/STM32F4xx_HAL_Driver/Src/stm32f4xx_hal_dma_ex.c ****     
 309              		.loc 1 217 5 is_stmt 1 view .LVU80
 217:/home/vtrnnhlinh/STM32Cube/Repository/STM32Cube_FW_F4_V1.28.0/Drivers/STM32F4xx_HAL_Driver/Src/stm32f4xx_hal_dma_ex.c ****     
 310              		.loc 1 217 5 view .LVU81
 311 0044 0023     		movs	r3, #0
ARM GAS  /tmp/cc92hle1.s 			page 13


 312 0046 84F83430 		strb	r3, [r4, #52]
 217:/home/vtrnnhlinh/STM32Cube/Repository/STM32Cube_FW_F4_V1.28.0/Drivers/STM32F4xx_HAL_Driver/Src/stm32f4xx_hal_dma_ex.c ****     
 313              		.loc 1 217 5 view .LVU82
 220:/home/vtrnnhlinh/STM32Cube/Repository/STM32Cube_FW_F4_V1.28.0/Drivers/STM32F4xx_HAL_Driver/Src/stm32f4xx_hal_dma_ex.c ****   }  
 314              		.loc 1 220 5 view .LVU83
 315              	.LVL23:
 220:/home/vtrnnhlinh/STM32Cube/Repository/STM32Cube_FW_F4_V1.28.0/Drivers/STM32F4xx_HAL_Driver/Src/stm32f4xx_hal_dma_ex.c ****   }  
 316              		.loc 1 220 12 is_stmt 0 view .LVU84
 317 004a 0220     		movs	r0, #2
 318 004c 0CE0     		b	.L21
 319              	.LVL24:
 320              	.L309:
 159:/home/vtrnnhlinh/STM32Cube/Repository/STM32Cube_FW_F4_V1.28.0/Drivers/STM32F4xx_HAL_Driver/Src/stm32f4xx_hal_dma_ex.c ****   
 321              		.loc 1 159 3 discriminator 1 view .LVU85
 322 004e 9F21     		movs	r1, #159
 323 0050 B248     		ldr	r0, .L333
 324              	.LVL25:
 159:/home/vtrnnhlinh/STM32Cube/Repository/STM32Cube_FW_F4_V1.28.0/Drivers/STM32F4xx_HAL_Driver/Src/stm32f4xx_hal_dma_ex.c ****   
 325              		.loc 1 159 3 discriminator 1 view .LVU86
 326 0052 FFF7FEFF 		bl	assert_failed
 327              	.LVL26:
 159:/home/vtrnnhlinh/STM32Cube/Repository/STM32Cube_FW_F4_V1.28.0/Drivers/STM32F4xx_HAL_Driver/Src/stm32f4xx_hal_dma_ex.c ****   
 328              		.loc 1 159 3 discriminator 1 view .LVU87
 329 0056 DFE7     		b	.L19
 330              	.L310:
 164:/home/vtrnnhlinh/STM32Cube/Repository/STM32Cube_FW_F4_V1.28.0/Drivers/STM32F4xx_HAL_Driver/Src/stm32f4xx_hal_dma_ex.c ****     return HAL_ERROR;
 331              		.loc 1 164 5 is_stmt 1 view .LVU88
 164:/home/vtrnnhlinh/STM32Cube/Repository/STM32Cube_FW_F4_V1.28.0/Drivers/STM32F4xx_HAL_Driver/Src/stm32f4xx_hal_dma_ex.c ****     return HAL_ERROR;
 332              		.loc 1 164 21 is_stmt 0 view .LVU89
 333 0058 4FF48073 		mov	r3, #256
 334 005c 6365     		str	r3, [r4, #84]
 165:/home/vtrnnhlinh/STM32Cube/Repository/STM32Cube_FW_F4_V1.28.0/Drivers/STM32F4xx_HAL_Driver/Src/stm32f4xx_hal_dma_ex.c ****   }
 335              		.loc 1 165 5 is_stmt 1 view .LVU90
 165:/home/vtrnnhlinh/STM32Cube/Repository/STM32Cube_FW_F4_V1.28.0/Drivers/STM32F4xx_HAL_Driver/Src/stm32f4xx_hal_dma_ex.c ****   }
 336              		.loc 1 165 12 is_stmt 0 view .LVU91
 337 005e 0120     		movs	r0, #1
 338 0060 02E0     		b	.L21
 339              	.L22:
 171:/home/vtrnnhlinh/STM32Cube/Repository/STM32Cube_FW_F4_V1.28.0/Drivers/STM32F4xx_HAL_Driver/Src/stm32f4xx_hal_dma_ex.c ****     return HAL_ERROR;
 340              		.loc 1 171 5 is_stmt 1 view .LVU92
 171:/home/vtrnnhlinh/STM32Cube/Repository/STM32Cube_FW_F4_V1.28.0/Drivers/STM32F4xx_HAL_Driver/Src/stm32f4xx_hal_dma_ex.c ****     return HAL_ERROR;
 341              		.loc 1 171 21 is_stmt 0 view .LVU93
 342 0062 4023     		movs	r3, #64
 343 0064 6365     		str	r3, [r4, #84]
 172:/home/vtrnnhlinh/STM32Cube/Repository/STM32Cube_FW_F4_V1.28.0/Drivers/STM32F4xx_HAL_Driver/Src/stm32f4xx_hal_dma_ex.c ****   }
 344              		.loc 1 172 5 is_stmt 1 view .LVU94
 172:/home/vtrnnhlinh/STM32Cube/Repository/STM32Cube_FW_F4_V1.28.0/Drivers/STM32F4xx_HAL_Driver/Src/stm32f4xx_hal_dma_ex.c ****   }
 345              		.loc 1 172 12 is_stmt 0 view .LVU95
 346 0066 0120     		movs	r0, #1
 347              	.LVL27:
 348              	.L21:
 223:/home/vtrnnhlinh/STM32Cube/Repository/STM32Cube_FW_F4_V1.28.0/Drivers/STM32F4xx_HAL_Driver/Src/stm32f4xx_hal_dma_ex.c **** 
 349              		.loc 1 223 1 view .LVU96
 350 0068 BDE8F081 		pop	{r4, r5, r6, r7, r8, pc}
 351              	.LVL28:
 352              	.L311:
 181:/home/vtrnnhlinh/STM32Cube/Repository/STM32Cube_FW_F4_V1.28.0/Drivers/STM32F4xx_HAL_Driver/Src/stm32f4xx_hal_dma_ex.c ****     
ARM GAS  /tmp/cc92hle1.s 			page 14


 353              		.loc 1 181 5 is_stmt 1 view .LVU97
 181:/home/vtrnnhlinh/STM32Cube/Repository/STM32Cube_FW_F4_V1.28.0/Drivers/STM32F4xx_HAL_Driver/Src/stm32f4xx_hal_dma_ex.c ****     
 354              		.loc 1 181 17 is_stmt 0 view .LVU98
 355 006c 0223     		movs	r3, #2
 356 006e 84F83530 		strb	r3, [r4, #53]
 184:/home/vtrnnhlinh/STM32Cube/Repository/STM32Cube_FW_F4_V1.28.0/Drivers/STM32F4xx_HAL_Driver/Src/stm32f4xx_hal_dma_ex.c ****     
 357              		.loc 1 184 5 is_stmt 1 view .LVU99
 184:/home/vtrnnhlinh/STM32Cube/Repository/STM32Cube_FW_F4_V1.28.0/Drivers/STM32F4xx_HAL_Driver/Src/stm32f4xx_hal_dma_ex.c ****     
 358              		.loc 1 184 21 is_stmt 0 view .LVU100
 359 0072 0023     		movs	r3, #0
 360 0074 6365     		str	r3, [r4, #84]
 187:/home/vtrnnhlinh/STM32Cube/Repository/STM32Cube_FW_F4_V1.28.0/Drivers/STM32F4xx_HAL_Driver/Src/stm32f4xx_hal_dma_ex.c ****     
 361              		.loc 1 187 5 is_stmt 1 view .LVU101
 187:/home/vtrnnhlinh/STM32Cube/Repository/STM32Cube_FW_F4_V1.28.0/Drivers/STM32F4xx_HAL_Driver/Src/stm32f4xx_hal_dma_ex.c ****     
 362              		.loc 1 187 9 is_stmt 0 view .LVU102
 363 0076 2268     		ldr	r2, [r4]
 187:/home/vtrnnhlinh/STM32Cube/Repository/STM32Cube_FW_F4_V1.28.0/Drivers/STM32F4xx_HAL_Driver/Src/stm32f4xx_hal_dma_ex.c ****     
 364              		.loc 1 187 24 view .LVU103
 365 0078 1368     		ldr	r3, [r2]
 366 007a 43F48023 		orr	r3, r3, #262144
 367 007e 1360     		str	r3, [r2]
 190:/home/vtrnnhlinh/STM32Cube/Repository/STM32Cube_FW_F4_V1.28.0/Drivers/STM32F4xx_HAL_Driver/Src/stm32f4xx_hal_dma_ex.c ****     
 368              		.loc 1 190 5 is_stmt 1 view .LVU104
 190:/home/vtrnnhlinh/STM32Cube/Repository/STM32Cube_FW_F4_V1.28.0/Drivers/STM32F4xx_HAL_Driver/Src/stm32f4xx_hal_dma_ex.c ****     
 369              		.loc 1 190 9 is_stmt 0 view .LVU105
 370 0080 2368     		ldr	r3, [r4]
 190:/home/vtrnnhlinh/STM32Cube/Repository/STM32Cube_FW_F4_V1.28.0/Drivers/STM32F4xx_HAL_Driver/Src/stm32f4xx_hal_dma_ex.c ****     
 371              		.loc 1 190 26 view .LVU106
 372 0082 C3F81080 		str	r8, [r3, #16]
 193:/home/vtrnnhlinh/STM32Cube/Repository/STM32Cube_FW_F4_V1.28.0/Drivers/STM32F4xx_HAL_Driver/Src/stm32f4xx_hal_dma_ex.c ****     
 373              		.loc 1 193 5 is_stmt 1 view .LVU107
 374 0086 3B46     		mov	r3, r7
 375 0088 3246     		mov	r2, r6
 376 008a 2946     		mov	r1, r5
 377 008c 2046     		mov	r0, r4
 378 008e FFF7FEFF 		bl	DMA_MultiBufferSetConfig
 379              	.LVL29:
 196:/home/vtrnnhlinh/STM32Cube/Repository/STM32Cube_FW_F4_V1.28.0/Drivers/STM32F4xx_HAL_Driver/Src/stm32f4xx_hal_dma_ex.c ****     __HAL_DMA_CLEAR_FLAG (hdma, __HAL_DMA_GET_HT_FLAG_INDEX(hdma));
 380              		.loc 1 196 5 view .LVU108
 381 0092 2368     		ldr	r3, [r4]
 382 0094 A24A     		ldr	r2, .L333+4
 383 0096 9342     		cmp	r3, r2
 384 0098 40F29880 		bls	.L25
 196:/home/vtrnnhlinh/STM32Cube/Repository/STM32Cube_FW_F4_V1.28.0/Drivers/STM32F4xx_HAL_Driver/Src/stm32f4xx_hal_dma_ex.c ****     __HAL_DMA_CLEAR_FLAG (hdma, __HAL_DMA_GET_HT_FLAG_INDEX(hdma));
 385              		.loc 1 196 5 is_stmt 0 discriminator 1 view .LVU109
 386 009c A2F58962 		sub	r2, r2, #1096
 387 00a0 9342     		cmp	r3, r2
 388 00a2 31D0     		beq	.L68
 196:/home/vtrnnhlinh/STM32Cube/Repository/STM32Cube_FW_F4_V1.28.0/Drivers/STM32F4xx_HAL_Driver/Src/stm32f4xx_hal_dma_ex.c ****     __HAL_DMA_CLEAR_FLAG (hdma, __HAL_DMA_GET_HT_FLAG_INDEX(hdma));
 389              		.loc 1 196 5 discriminator 3 view .LVU110
 390 00a4 02F58062 		add	r2, r2, #1024
 391 00a8 9342     		cmp	r3, r2
 392 00aa 74D0     		beq	.L69
 196:/home/vtrnnhlinh/STM32Cube/Repository/STM32Cube_FW_F4_V1.28.0/Drivers/STM32F4xx_HAL_Driver/Src/stm32f4xx_hal_dma_ex.c ****     __HAL_DMA_CLEAR_FLAG (hdma, __HAL_DMA_GET_HT_FLAG_INDEX(hdma));
 393              		.loc 1 196 5 discriminator 5 view .LVU111
 394 00ac A2F56872 		sub	r2, r2, #928
 395 00b0 9342     		cmp	r3, r2
ARM GAS  /tmp/cc92hle1.s 			page 15


 396 00b2 72D0     		beq	.L70
 196:/home/vtrnnhlinh/STM32Cube/Repository/STM32Cube_FW_F4_V1.28.0/Drivers/STM32F4xx_HAL_Driver/Src/stm32f4xx_hal_dma_ex.c ****     __HAL_DMA_CLEAR_FLAG (hdma, __HAL_DMA_GET_HT_FLAG_INDEX(hdma));
 397              		.loc 1 196 5 discriminator 7 view .LVU112
 398 00b4 02F58062 		add	r2, r2, #1024
 399 00b8 9342     		cmp	r3, r2
 400 00ba 70D0     		beq	.L71
 196:/home/vtrnnhlinh/STM32Cube/Repository/STM32Cube_FW_F4_V1.28.0/Drivers/STM32F4xx_HAL_Driver/Src/stm32f4xx_hal_dma_ex.c ****     __HAL_DMA_CLEAR_FLAG (hdma, __HAL_DMA_GET_HT_FLAG_INDEX(hdma));
 401              		.loc 1 196 5 discriminator 9 view .LVU113
 402 00bc A2F58962 		sub	r2, r2, #1096
 403 00c0 9342     		cmp	r3, r2
 404 00c2 6ED0     		beq	.L72
 196:/home/vtrnnhlinh/STM32Cube/Repository/STM32Cube_FW_F4_V1.28.0/Drivers/STM32F4xx_HAL_Driver/Src/stm32f4xx_hal_dma_ex.c ****     __HAL_DMA_CLEAR_FLAG (hdma, __HAL_DMA_GET_HT_FLAG_INDEX(hdma));
 405              		.loc 1 196 5 discriminator 11 view .LVU114
 406 00c4 02F58062 		add	r2, r2, #1024
 407 00c8 9342     		cmp	r3, r2
 408 00ca 6DD0     		beq	.L73
 196:/home/vtrnnhlinh/STM32Cube/Repository/STM32Cube_FW_F4_V1.28.0/Drivers/STM32F4xx_HAL_Driver/Src/stm32f4xx_hal_dma_ex.c ****     __HAL_DMA_CLEAR_FLAG (hdma, __HAL_DMA_GET_HT_FLAG_INDEX(hdma));
 409              		.loc 1 196 5 discriminator 13 view .LVU115
 410 00cc A2F56872 		sub	r2, r2, #928
 411 00d0 9342     		cmp	r3, r2
 412 00d2 6CD0     		beq	.L74
 196:/home/vtrnnhlinh/STM32Cube/Repository/STM32Cube_FW_F4_V1.28.0/Drivers/STM32F4xx_HAL_Driver/Src/stm32f4xx_hal_dma_ex.c ****     __HAL_DMA_CLEAR_FLAG (hdma, __HAL_DMA_GET_HT_FLAG_INDEX(hdma));
 413              		.loc 1 196 5 discriminator 15 view .LVU116
 414 00d4 02F58062 		add	r2, r2, #1024
 415 00d8 9342     		cmp	r3, r2
 416 00da 6BD0     		beq	.L75
 196:/home/vtrnnhlinh/STM32Cube/Repository/STM32Cube_FW_F4_V1.28.0/Drivers/STM32F4xx_HAL_Driver/Src/stm32f4xx_hal_dma_ex.c ****     __HAL_DMA_CLEAR_FLAG (hdma, __HAL_DMA_GET_HT_FLAG_INDEX(hdma));
 417              		.loc 1 196 5 discriminator 17 view .LVU117
 418 00dc A2F58962 		sub	r2, r2, #1096
 419 00e0 9342     		cmp	r3, r2
 420 00e2 6AD0     		beq	.L76
 196:/home/vtrnnhlinh/STM32Cube/Repository/STM32Cube_FW_F4_V1.28.0/Drivers/STM32F4xx_HAL_Driver/Src/stm32f4xx_hal_dma_ex.c ****     __HAL_DMA_CLEAR_FLAG (hdma, __HAL_DMA_GET_HT_FLAG_INDEX(hdma));
 421              		.loc 1 196 5 discriminator 19 view .LVU118
 422 00e4 02F58062 		add	r2, r2, #1024
 423 00e8 9342     		cmp	r3, r2
 424 00ea 69D0     		beq	.L77
 196:/home/vtrnnhlinh/STM32Cube/Repository/STM32Cube_FW_F4_V1.28.0/Drivers/STM32F4xx_HAL_Driver/Src/stm32f4xx_hal_dma_ex.c ****     __HAL_DMA_CLEAR_FLAG (hdma, __HAL_DMA_GET_HT_FLAG_INDEX(hdma));
 425              		.loc 1 196 5 discriminator 21 view .LVU119
 426 00ec A2F56872 		sub	r2, r2, #928
 427 00f0 9342     		cmp	r3, r2
 428 00f2 68D0     		beq	.L78
 196:/home/vtrnnhlinh/STM32Cube/Repository/STM32Cube_FW_F4_V1.28.0/Drivers/STM32F4xx_HAL_Driver/Src/stm32f4xx_hal_dma_ex.c ****     __HAL_DMA_CLEAR_FLAG (hdma, __HAL_DMA_GET_HT_FLAG_INDEX(hdma));
 429              		.loc 1 196 5 discriminator 23 view .LVU120
 430 00f4 02F58062 		add	r2, r2, #1024
 431 00f8 9342     		cmp	r3, r2
 432 00fa 02D0     		beq	.L312
 196:/home/vtrnnhlinh/STM32Cube/Repository/STM32Cube_FW_F4_V1.28.0/Drivers/STM32F4xx_HAL_Driver/Src/stm32f4xx_hal_dma_ex.c ****     __HAL_DMA_CLEAR_FLAG (hdma, __HAL_DMA_GET_HT_FLAG_INDEX(hdma));
 433              		.loc 1 196 5 view .LVU121
 434 00fc 4FF00062 		mov	r2, #134217728
 435 0100 03E0     		b	.L26
 436              	.L312:
 437 0102 4FF40012 		mov	r2, #2097152
 438 0106 00E0     		b	.L26
 439              	.L68:
 440 0108 2022     		movs	r2, #32
 441              	.L26:
 196:/home/vtrnnhlinh/STM32Cube/Repository/STM32Cube_FW_F4_V1.28.0/Drivers/STM32F4xx_HAL_Driver/Src/stm32f4xx_hal_dma_ex.c ****     __HAL_DMA_CLEAR_FLAG (hdma, __HAL_DMA_GET_HT_FLAG_INDEX(hdma));
ARM GAS  /tmp/cc92hle1.s 			page 16


 442              		.loc 1 196 5 discriminator 50 view .LVU122
 443 010a 864B     		ldr	r3, .L333+8
 444 010c DA60     		str	r2, [r3, #12]
 445              	.LVL30:
 446              	.L27:
 197:/home/vtrnnhlinh/STM32Cube/Repository/STM32Cube_FW_F4_V1.28.0/Drivers/STM32F4xx_HAL_Driver/Src/stm32f4xx_hal_dma_ex.c ****     __HAL_DMA_CLEAR_FLAG (hdma, __HAL_DMA_GET_TE_FLAG_INDEX(hdma));
 447              		.loc 1 197 5 is_stmt 1 view .LVU123
 448 010e 2368     		ldr	r3, [r4]
 449 0110 834A     		ldr	r2, .L333+4
 450 0112 9342     		cmp	r3, r2
 451 0114 40F2CD81 		bls	.L33
 197:/home/vtrnnhlinh/STM32Cube/Repository/STM32Cube_FW_F4_V1.28.0/Drivers/STM32F4xx_HAL_Driver/Src/stm32f4xx_hal_dma_ex.c ****     __HAL_DMA_CLEAR_FLAG (hdma, __HAL_DMA_GET_TE_FLAG_INDEX(hdma));
 452              		.loc 1 197 5 is_stmt 0 discriminator 1 view .LVU124
 453 0118 A2F58962 		sub	r2, r2, #1096
 454 011c 9342     		cmp	r3, r2
 455 011e 00F06681 		beq	.L116
 197:/home/vtrnnhlinh/STM32Cube/Repository/STM32Cube_FW_F4_V1.28.0/Drivers/STM32F4xx_HAL_Driver/Src/stm32f4xx_hal_dma_ex.c ****     __HAL_DMA_CLEAR_FLAG (hdma, __HAL_DMA_GET_TE_FLAG_INDEX(hdma));
 456              		.loc 1 197 5 discriminator 3 view .LVU125
 457 0122 02F58062 		add	r2, r2, #1024
 458 0126 9342     		cmp	r3, r2
 459 0128 00F0A881 		beq	.L117
 197:/home/vtrnnhlinh/STM32Cube/Repository/STM32Cube_FW_F4_V1.28.0/Drivers/STM32F4xx_HAL_Driver/Src/stm32f4xx_hal_dma_ex.c ****     __HAL_DMA_CLEAR_FLAG (hdma, __HAL_DMA_GET_TE_FLAG_INDEX(hdma));
 460              		.loc 1 197 5 discriminator 5 view .LVU126
 461 012c A2F56872 		sub	r2, r2, #928
 462 0130 9342     		cmp	r3, r2
 463 0132 00F0A581 		beq	.L118
 197:/home/vtrnnhlinh/STM32Cube/Repository/STM32Cube_FW_F4_V1.28.0/Drivers/STM32F4xx_HAL_Driver/Src/stm32f4xx_hal_dma_ex.c ****     __HAL_DMA_CLEAR_FLAG (hdma, __HAL_DMA_GET_TE_FLAG_INDEX(hdma));
 464              		.loc 1 197 5 discriminator 7 view .LVU127
 465 0136 02F58062 		add	r2, r2, #1024
 466 013a 9342     		cmp	r3, r2
 467 013c 00F0A281 		beq	.L119
 197:/home/vtrnnhlinh/STM32Cube/Repository/STM32Cube_FW_F4_V1.28.0/Drivers/STM32F4xx_HAL_Driver/Src/stm32f4xx_hal_dma_ex.c ****     __HAL_DMA_CLEAR_FLAG (hdma, __HAL_DMA_GET_TE_FLAG_INDEX(hdma));
 468              		.loc 1 197 5 discriminator 9 view .LVU128
 469 0140 A2F58962 		sub	r2, r2, #1096
 470 0144 9342     		cmp	r3, r2
 471 0146 00F09F81 		beq	.L120
 197:/home/vtrnnhlinh/STM32Cube/Repository/STM32Cube_FW_F4_V1.28.0/Drivers/STM32F4xx_HAL_Driver/Src/stm32f4xx_hal_dma_ex.c ****     __HAL_DMA_CLEAR_FLAG (hdma, __HAL_DMA_GET_TE_FLAG_INDEX(hdma));
 472              		.loc 1 197 5 discriminator 11 view .LVU129
 473 014a 02F58062 		add	r2, r2, #1024
 474 014e 9342     		cmp	r3, r2
 475 0150 00F09D81 		beq	.L121
 197:/home/vtrnnhlinh/STM32Cube/Repository/STM32Cube_FW_F4_V1.28.0/Drivers/STM32F4xx_HAL_Driver/Src/stm32f4xx_hal_dma_ex.c ****     __HAL_DMA_CLEAR_FLAG (hdma, __HAL_DMA_GET_TE_FLAG_INDEX(hdma));
 476              		.loc 1 197 5 discriminator 13 view .LVU130
 477 0154 A2F56872 		sub	r2, r2, #928
 478 0158 9342     		cmp	r3, r2
 479 015a 00F09B81 		beq	.L122
 197:/home/vtrnnhlinh/STM32Cube/Repository/STM32Cube_FW_F4_V1.28.0/Drivers/STM32F4xx_HAL_Driver/Src/stm32f4xx_hal_dma_ex.c ****     __HAL_DMA_CLEAR_FLAG (hdma, __HAL_DMA_GET_TE_FLAG_INDEX(hdma));
 480              		.loc 1 197 5 discriminator 15 view .LVU131
 481 015e 02F58062 		add	r2, r2, #1024
 482 0162 9342     		cmp	r3, r2
 483 0164 00F09981 		beq	.L123
 197:/home/vtrnnhlinh/STM32Cube/Repository/STM32Cube_FW_F4_V1.28.0/Drivers/STM32F4xx_HAL_Driver/Src/stm32f4xx_hal_dma_ex.c ****     __HAL_DMA_CLEAR_FLAG (hdma, __HAL_DMA_GET_TE_FLAG_INDEX(hdma));
 484              		.loc 1 197 5 discriminator 17 view .LVU132
 485 0168 A2F58962 		sub	r2, r2, #1096
 486 016c 9342     		cmp	r3, r2
 487 016e 00F09781 		beq	.L124
 197:/home/vtrnnhlinh/STM32Cube/Repository/STM32Cube_FW_F4_V1.28.0/Drivers/STM32F4xx_HAL_Driver/Src/stm32f4xx_hal_dma_ex.c ****     __HAL_DMA_CLEAR_FLAG (hdma, __HAL_DMA_GET_TE_FLAG_INDEX(hdma));
ARM GAS  /tmp/cc92hle1.s 			page 17


 488              		.loc 1 197 5 discriminator 19 view .LVU133
 489 0172 02F58062 		add	r2, r2, #1024
 490 0176 9342     		cmp	r3, r2
 491 0178 00F09581 		beq	.L125
 197:/home/vtrnnhlinh/STM32Cube/Repository/STM32Cube_FW_F4_V1.28.0/Drivers/STM32F4xx_HAL_Driver/Src/stm32f4xx_hal_dma_ex.c ****     __HAL_DMA_CLEAR_FLAG (hdma, __HAL_DMA_GET_TE_FLAG_INDEX(hdma));
 492              		.loc 1 197 5 discriminator 21 view .LVU134
 493 017c A2F56872 		sub	r2, r2, #928
 494 0180 9342     		cmp	r3, r2
 495 0182 00F09381 		beq	.L126
 197:/home/vtrnnhlinh/STM32Cube/Repository/STM32Cube_FW_F4_V1.28.0/Drivers/STM32F4xx_HAL_Driver/Src/stm32f4xx_hal_dma_ex.c ****     __HAL_DMA_CLEAR_FLAG (hdma, __HAL_DMA_GET_TE_FLAG_INDEX(hdma));
 496              		.loc 1 197 5 discriminator 23 view .LVU135
 497 0186 02F58062 		add	r2, r2, #1024
 498 018a 9342     		cmp	r3, r2
 499 018c 00F02C81 		beq	.L313
 197:/home/vtrnnhlinh/STM32Cube/Repository/STM32Cube_FW_F4_V1.28.0/Drivers/STM32F4xx_HAL_Driver/Src/stm32f4xx_hal_dma_ex.c ****     __HAL_DMA_CLEAR_FLAG (hdma, __HAL_DMA_GET_TE_FLAG_INDEX(hdma));
 500              		.loc 1 197 5 view .LVU136
 501 0190 4FF08062 		mov	r2, #67108864
 502 0194 2CE1     		b	.L34
 503              	.LVL31:
 504              	.L69:
 196:/home/vtrnnhlinh/STM32Cube/Repository/STM32Cube_FW_F4_V1.28.0/Drivers/STM32F4xx_HAL_Driver/Src/stm32f4xx_hal_dma_ex.c ****     __HAL_DMA_CLEAR_FLAG (hdma, __HAL_DMA_GET_HT_FLAG_INDEX(hdma));
 505              		.loc 1 196 5 view .LVU137
 506 0196 2022     		movs	r2, #32
 507 0198 B7E7     		b	.L26
 508              	.L70:
 509 019a 2022     		movs	r2, #32
 510 019c B5E7     		b	.L26
 511              	.L71:
 512 019e 2022     		movs	r2, #32
 513 01a0 B3E7     		b	.L26
 514              	.L72:
 515 01a2 4FF40062 		mov	r2, #2048
 516 01a6 B0E7     		b	.L26
 517              	.L73:
 518 01a8 4FF40062 		mov	r2, #2048
 519 01ac ADE7     		b	.L26
 520              	.L74:
 521 01ae 4FF40062 		mov	r2, #2048
 522 01b2 AAE7     		b	.L26
 523              	.L75:
 524 01b4 4FF40062 		mov	r2, #2048
 525 01b8 A7E7     		b	.L26
 526              	.L76:
 527 01ba 4FF40012 		mov	r2, #2097152
 528 01be A4E7     		b	.L26
 529              	.L77:
 530 01c0 4FF40012 		mov	r2, #2097152
 531 01c4 A1E7     		b	.L26
 532              	.L78:
 533 01c6 4FF40012 		mov	r2, #2097152
 534 01ca 9EE7     		b	.L26
 535              	.L25:
 196:/home/vtrnnhlinh/STM32Cube/Repository/STM32Cube_FW_F4_V1.28.0/Drivers/STM32F4xx_HAL_Driver/Src/stm32f4xx_hal_dma_ex.c ****     __HAL_DMA_CLEAR_FLAG (hdma, __HAL_DMA_GET_HT_FLAG_INDEX(hdma));
 536              		.loc 1 196 5 discriminator 2 view .LVU138
 537 01cc 564A     		ldr	r2, .L333+12
 538 01ce 9342     		cmp	r3, r2
 539 01d0 53D9     		bls	.L28
ARM GAS  /tmp/cc92hle1.s 			page 18


 196:/home/vtrnnhlinh/STM32Cube/Repository/STM32Cube_FW_F4_V1.28.0/Drivers/STM32F4xx_HAL_Driver/Src/stm32f4xx_hal_dma_ex.c ****     __HAL_DMA_CLEAR_FLAG (hdma, __HAL_DMA_GET_HT_FLAG_INDEX(hdma));
 540              		.loc 1 196 5 discriminator 51 view .LVU139
 541 01d2 A83A     		subs	r2, r2, #168
 542 01d4 9342     		cmp	r3, r2
 543 01d6 31D0     		beq	.L80
 196:/home/vtrnnhlinh/STM32Cube/Repository/STM32Cube_FW_F4_V1.28.0/Drivers/STM32F4xx_HAL_Driver/Src/stm32f4xx_hal_dma_ex.c ****     __HAL_DMA_CLEAR_FLAG (hdma, __HAL_DMA_GET_HT_FLAG_INDEX(hdma));
 544              		.loc 1 196 5 discriminator 53 view .LVU140
 545 01d8 02F58062 		add	r2, r2, #1024
 546 01dc 9342     		cmp	r3, r2
 547 01de 31D0     		beq	.L81
 196:/home/vtrnnhlinh/STM32Cube/Repository/STM32Cube_FW_F4_V1.28.0/Drivers/STM32F4xx_HAL_Driver/Src/stm32f4xx_hal_dma_ex.c ****     __HAL_DMA_CLEAR_FLAG (hdma, __HAL_DMA_GET_HT_FLAG_INDEX(hdma));
 548              		.loc 1 196 5 discriminator 55 view .LVU141
 549 01e0 A2F56872 		sub	r2, r2, #928
 550 01e4 9342     		cmp	r3, r2
 551 01e6 2FD0     		beq	.L82
 196:/home/vtrnnhlinh/STM32Cube/Repository/STM32Cube_FW_F4_V1.28.0/Drivers/STM32F4xx_HAL_Driver/Src/stm32f4xx_hal_dma_ex.c ****     __HAL_DMA_CLEAR_FLAG (hdma, __HAL_DMA_GET_HT_FLAG_INDEX(hdma));
 552              		.loc 1 196 5 discriminator 57 view .LVU142
 553 01e8 02F58062 		add	r2, r2, #1024
 554 01ec 9342     		cmp	r3, r2
 555 01ee 2DD0     		beq	.L83
 196:/home/vtrnnhlinh/STM32Cube/Repository/STM32Cube_FW_F4_V1.28.0/Drivers/STM32F4xx_HAL_Driver/Src/stm32f4xx_hal_dma_ex.c ****     __HAL_DMA_CLEAR_FLAG (hdma, __HAL_DMA_GET_HT_FLAG_INDEX(hdma));
 556              		.loc 1 196 5 discriminator 59 view .LVU143
 557 01f0 A2F58962 		sub	r2, r2, #1096
 558 01f4 9342     		cmp	r3, r2
 559 01f6 2BD0     		beq	.L84
 196:/home/vtrnnhlinh/STM32Cube/Repository/STM32Cube_FW_F4_V1.28.0/Drivers/STM32F4xx_HAL_Driver/Src/stm32f4xx_hal_dma_ex.c ****     __HAL_DMA_CLEAR_FLAG (hdma, __HAL_DMA_GET_HT_FLAG_INDEX(hdma));
 560              		.loc 1 196 5 discriminator 61 view .LVU144
 561 01f8 02F58062 		add	r2, r2, #1024
 562 01fc 9342     		cmp	r3, r2
 563 01fe 2AD0     		beq	.L85
 196:/home/vtrnnhlinh/STM32Cube/Repository/STM32Cube_FW_F4_V1.28.0/Drivers/STM32F4xx_HAL_Driver/Src/stm32f4xx_hal_dma_ex.c ****     __HAL_DMA_CLEAR_FLAG (hdma, __HAL_DMA_GET_HT_FLAG_INDEX(hdma));
 564              		.loc 1 196 5 discriminator 63 view .LVU145
 565 0200 A2F56872 		sub	r2, r2, #928
 566 0204 9342     		cmp	r3, r2
 567 0206 29D0     		beq	.L86
 196:/home/vtrnnhlinh/STM32Cube/Repository/STM32Cube_FW_F4_V1.28.0/Drivers/STM32F4xx_HAL_Driver/Src/stm32f4xx_hal_dma_ex.c ****     __HAL_DMA_CLEAR_FLAG (hdma, __HAL_DMA_GET_HT_FLAG_INDEX(hdma));
 568              		.loc 1 196 5 discriminator 65 view .LVU146
 569 0208 02F58062 		add	r2, r2, #1024
 570 020c 9342     		cmp	r3, r2
 571 020e 28D0     		beq	.L87
 196:/home/vtrnnhlinh/STM32Cube/Repository/STM32Cube_FW_F4_V1.28.0/Drivers/STM32F4xx_HAL_Driver/Src/stm32f4xx_hal_dma_ex.c ****     __HAL_DMA_CLEAR_FLAG (hdma, __HAL_DMA_GET_HT_FLAG_INDEX(hdma));
 572              		.loc 1 196 5 discriminator 67 view .LVU147
 573 0210 A2F58962 		sub	r2, r2, #1096
 574 0214 9342     		cmp	r3, r2
 575 0216 27D0     		beq	.L88
 196:/home/vtrnnhlinh/STM32Cube/Repository/STM32Cube_FW_F4_V1.28.0/Drivers/STM32F4xx_HAL_Driver/Src/stm32f4xx_hal_dma_ex.c ****     __HAL_DMA_CLEAR_FLAG (hdma, __HAL_DMA_GET_HT_FLAG_INDEX(hdma));
 576              		.loc 1 196 5 discriminator 69 view .LVU148
 577 0218 02F58062 		add	r2, r2, #1024
 578 021c 9342     		cmp	r3, r2
 579 021e 26D0     		beq	.L89
 196:/home/vtrnnhlinh/STM32Cube/Repository/STM32Cube_FW_F4_V1.28.0/Drivers/STM32F4xx_HAL_Driver/Src/stm32f4xx_hal_dma_ex.c ****     __HAL_DMA_CLEAR_FLAG (hdma, __HAL_DMA_GET_HT_FLAG_INDEX(hdma));
 580              		.loc 1 196 5 discriminator 71 view .LVU149
 581 0220 A2F56872 		sub	r2, r2, #928
 582 0224 9342     		cmp	r3, r2
 583 0226 25D0     		beq	.L90
 196:/home/vtrnnhlinh/STM32Cube/Repository/STM32Cube_FW_F4_V1.28.0/Drivers/STM32F4xx_HAL_Driver/Src/stm32f4xx_hal_dma_ex.c ****     __HAL_DMA_CLEAR_FLAG (hdma, __HAL_DMA_GET_HT_FLAG_INDEX(hdma));
 584              		.loc 1 196 5 discriminator 73 view .LVU150
ARM GAS  /tmp/cc92hle1.s 			page 19


 585 0228 02F58062 		add	r2, r2, #1024
 586 022c 9342     		cmp	r3, r2
 587 022e 02D0     		beq	.L314
 196:/home/vtrnnhlinh/STM32Cube/Repository/STM32Cube_FW_F4_V1.28.0/Drivers/STM32F4xx_HAL_Driver/Src/stm32f4xx_hal_dma_ex.c ****     __HAL_DMA_CLEAR_FLAG (hdma, __HAL_DMA_GET_HT_FLAG_INDEX(hdma));
 588              		.loc 1 196 5 view .LVU151
 589 0230 4FF00063 		mov	r3, #134217728
 590 0234 03E0     		b	.L29
 591              	.L314:
 592 0236 4FF40013 		mov	r3, #2097152
 593 023a 00E0     		b	.L29
 594              	.L80:
 595 023c 2023     		movs	r3, #32
 596              	.L29:
 196:/home/vtrnnhlinh/STM32Cube/Repository/STM32Cube_FW_F4_V1.28.0/Drivers/STM32F4xx_HAL_Driver/Src/stm32f4xx_hal_dma_ex.c ****     __HAL_DMA_CLEAR_FLAG (hdma, __HAL_DMA_GET_HT_FLAG_INDEX(hdma));
 597              		.loc 1 196 5 discriminator 100 view .LVU152
 598 023e 394A     		ldr	r2, .L333+8
 599 0240 9360     		str	r3, [r2, #8]
 600              	.LVL32:
 196:/home/vtrnnhlinh/STM32Cube/Repository/STM32Cube_FW_F4_V1.28.0/Drivers/STM32F4xx_HAL_Driver/Src/stm32f4xx_hal_dma_ex.c ****     __HAL_DMA_CLEAR_FLAG (hdma, __HAL_DMA_GET_HT_FLAG_INDEX(hdma));
 601              		.loc 1 196 5 discriminator 100 view .LVU153
 602 0242 64E7     		b	.L27
 603              	.LVL33:
 604              	.L81:
 196:/home/vtrnnhlinh/STM32Cube/Repository/STM32Cube_FW_F4_V1.28.0/Drivers/STM32F4xx_HAL_Driver/Src/stm32f4xx_hal_dma_ex.c ****     __HAL_DMA_CLEAR_FLAG (hdma, __HAL_DMA_GET_HT_FLAG_INDEX(hdma));
 605              		.loc 1 196 5 view .LVU154
 606 0244 2023     		movs	r3, #32
 607 0246 FAE7     		b	.L29
 608              	.L82:
 609 0248 2023     		movs	r3, #32
 610 024a F8E7     		b	.L29
 611              	.L83:
 612 024c 2023     		movs	r3, #32
 613 024e F6E7     		b	.L29
 614              	.L84:
 615 0250 4FF40063 		mov	r3, #2048
 616 0254 F3E7     		b	.L29
 617              	.L85:
 618 0256 4FF40063 		mov	r3, #2048
 619 025a F0E7     		b	.L29
 620              	.L86:
 621 025c 4FF40063 		mov	r3, #2048
 622 0260 EDE7     		b	.L29
 623              	.L87:
 624 0262 4FF40063 		mov	r3, #2048
 625 0266 EAE7     		b	.L29
 626              	.L88:
 627 0268 4FF40013 		mov	r3, #2097152
 628 026c E7E7     		b	.L29
 629              	.L89:
 630 026e 4FF40013 		mov	r3, #2097152
 631 0272 E4E7     		b	.L29
 632              	.L90:
 633 0274 4FF40013 		mov	r3, #2097152
 634 0278 E1E7     		b	.L29
 635              	.L28:
 196:/home/vtrnnhlinh/STM32Cube/Repository/STM32Cube_FW_F4_V1.28.0/Drivers/STM32F4xx_HAL_Driver/Src/stm32f4xx_hal_dma_ex.c ****     __HAL_DMA_CLEAR_FLAG (hdma, __HAL_DMA_GET_HT_FLAG_INDEX(hdma));
 636              		.loc 1 196 5 discriminator 52 view .LVU155
ARM GAS  /tmp/cc92hle1.s 			page 20


 637 027a 2C4A     		ldr	r2, .L333+16
 638 027c 9342     		cmp	r3, r2
 639 027e 5FD9     		bls	.L30
 196:/home/vtrnnhlinh/STM32Cube/Repository/STM32Cube_FW_F4_V1.28.0/Drivers/STM32F4xx_HAL_Driver/Src/stm32f4xx_hal_dma_ex.c ****     __HAL_DMA_CLEAR_FLAG (hdma, __HAL_DMA_GET_HT_FLAG_INDEX(hdma));
 640              		.loc 1 196 5 discriminator 102 view .LVU156
 641 0280 483A     		subs	r2, r2, #72
 642 0282 9342     		cmp	r3, r2
 643 0284 31D0     		beq	.L92
 196:/home/vtrnnhlinh/STM32Cube/Repository/STM32Cube_FW_F4_V1.28.0/Drivers/STM32F4xx_HAL_Driver/Src/stm32f4xx_hal_dma_ex.c ****     __HAL_DMA_CLEAR_FLAG (hdma, __HAL_DMA_GET_HT_FLAG_INDEX(hdma));
 644              		.loc 1 196 5 discriminator 104 view .LVU157
 645 0286 02F58062 		add	r2, r2, #1024
 646 028a 9342     		cmp	r3, r2
 647 028c 31D0     		beq	.L93
 196:/home/vtrnnhlinh/STM32Cube/Repository/STM32Cube_FW_F4_V1.28.0/Drivers/STM32F4xx_HAL_Driver/Src/stm32f4xx_hal_dma_ex.c ****     __HAL_DMA_CLEAR_FLAG (hdma, __HAL_DMA_GET_HT_FLAG_INDEX(hdma));
 648              		.loc 1 196 5 discriminator 106 view .LVU158
 649 028e A2F56872 		sub	r2, r2, #928
 650 0292 9342     		cmp	r3, r2
 651 0294 2FD0     		beq	.L94
 196:/home/vtrnnhlinh/STM32Cube/Repository/STM32Cube_FW_F4_V1.28.0/Drivers/STM32F4xx_HAL_Driver/Src/stm32f4xx_hal_dma_ex.c ****     __HAL_DMA_CLEAR_FLAG (hdma, __HAL_DMA_GET_HT_FLAG_INDEX(hdma));
 652              		.loc 1 196 5 discriminator 108 view .LVU159
 653 0296 02F58062 		add	r2, r2, #1024
 654 029a 9342     		cmp	r3, r2
 655 029c 2DD0     		beq	.L95
 196:/home/vtrnnhlinh/STM32Cube/Repository/STM32Cube_FW_F4_V1.28.0/Drivers/STM32F4xx_HAL_Driver/Src/stm32f4xx_hal_dma_ex.c ****     __HAL_DMA_CLEAR_FLAG (hdma, __HAL_DMA_GET_HT_FLAG_INDEX(hdma));
 656              		.loc 1 196 5 discriminator 110 view .LVU160
 657 029e A2F58962 		sub	r2, r2, #1096
 658 02a2 9342     		cmp	r3, r2
 659 02a4 2BD0     		beq	.L96
 196:/home/vtrnnhlinh/STM32Cube/Repository/STM32Cube_FW_F4_V1.28.0/Drivers/STM32F4xx_HAL_Driver/Src/stm32f4xx_hal_dma_ex.c ****     __HAL_DMA_CLEAR_FLAG (hdma, __HAL_DMA_GET_HT_FLAG_INDEX(hdma));
 660              		.loc 1 196 5 discriminator 112 view .LVU161
 661 02a6 02F58062 		add	r2, r2, #1024
 662 02aa 9342     		cmp	r3, r2
 663 02ac 2AD0     		beq	.L97
 196:/home/vtrnnhlinh/STM32Cube/Repository/STM32Cube_FW_F4_V1.28.0/Drivers/STM32F4xx_HAL_Driver/Src/stm32f4xx_hal_dma_ex.c ****     __HAL_DMA_CLEAR_FLAG (hdma, __HAL_DMA_GET_HT_FLAG_INDEX(hdma));
 664              		.loc 1 196 5 discriminator 114 view .LVU162
 665 02ae A2F56872 		sub	r2, r2, #928
 666 02b2 9342     		cmp	r3, r2
 667 02b4 29D0     		beq	.L98
 196:/home/vtrnnhlinh/STM32Cube/Repository/STM32Cube_FW_F4_V1.28.0/Drivers/STM32F4xx_HAL_Driver/Src/stm32f4xx_hal_dma_ex.c ****     __HAL_DMA_CLEAR_FLAG (hdma, __HAL_DMA_GET_HT_FLAG_INDEX(hdma));
 668              		.loc 1 196 5 discriminator 116 view .LVU163
 669 02b6 02F58062 		add	r2, r2, #1024
 670 02ba 9342     		cmp	r3, r2
 671 02bc 28D0     		beq	.L99
 196:/home/vtrnnhlinh/STM32Cube/Repository/STM32Cube_FW_F4_V1.28.0/Drivers/STM32F4xx_HAL_Driver/Src/stm32f4xx_hal_dma_ex.c ****     __HAL_DMA_CLEAR_FLAG (hdma, __HAL_DMA_GET_HT_FLAG_INDEX(hdma));
 672              		.loc 1 196 5 discriminator 118 view .LVU164
 673 02be A2F58962 		sub	r2, r2, #1096
 674 02c2 9342     		cmp	r3, r2
 675 02c4 27D0     		beq	.L100
 196:/home/vtrnnhlinh/STM32Cube/Repository/STM32Cube_FW_F4_V1.28.0/Drivers/STM32F4xx_HAL_Driver/Src/stm32f4xx_hal_dma_ex.c ****     __HAL_DMA_CLEAR_FLAG (hdma, __HAL_DMA_GET_HT_FLAG_INDEX(hdma));
 676              		.loc 1 196 5 discriminator 120 view .LVU165
 677 02c6 02F58062 		add	r2, r2, #1024
 678 02ca 9342     		cmp	r3, r2
 679 02cc 32D0     		beq	.L101
 196:/home/vtrnnhlinh/STM32Cube/Repository/STM32Cube_FW_F4_V1.28.0/Drivers/STM32F4xx_HAL_Driver/Src/stm32f4xx_hal_dma_ex.c ****     __HAL_DMA_CLEAR_FLAG (hdma, __HAL_DMA_GET_HT_FLAG_INDEX(hdma));
 680              		.loc 1 196 5 discriminator 122 view .LVU166
 681 02ce A2F56872 		sub	r2, r2, #928
 682 02d2 9342     		cmp	r3, r2
ARM GAS  /tmp/cc92hle1.s 			page 21


 683 02d4 31D0     		beq	.L102
 196:/home/vtrnnhlinh/STM32Cube/Repository/STM32Cube_FW_F4_V1.28.0/Drivers/STM32F4xx_HAL_Driver/Src/stm32f4xx_hal_dma_ex.c ****     __HAL_DMA_CLEAR_FLAG (hdma, __HAL_DMA_GET_HT_FLAG_INDEX(hdma));
 684              		.loc 1 196 5 discriminator 124 view .LVU167
 685 02d6 02F58062 		add	r2, r2, #1024
 686 02da 9342     		cmp	r3, r2
 687 02dc 02D0     		beq	.L315
 196:/home/vtrnnhlinh/STM32Cube/Repository/STM32Cube_FW_F4_V1.28.0/Drivers/STM32F4xx_HAL_Driver/Src/stm32f4xx_hal_dma_ex.c ****     __HAL_DMA_CLEAR_FLAG (hdma, __HAL_DMA_GET_HT_FLAG_INDEX(hdma));
 688              		.loc 1 196 5 view .LVU168
 689 02de 4FF00063 		mov	r3, #134217728
 690 02e2 03E0     		b	.L31
 691              	.L315:
 692 02e4 4FF40013 		mov	r3, #2097152
 693 02e8 00E0     		b	.L31
 694              	.L92:
 695 02ea 2023     		movs	r3, #32
 696              	.L31:
 196:/home/vtrnnhlinh/STM32Cube/Repository/STM32Cube_FW_F4_V1.28.0/Drivers/STM32F4xx_HAL_Driver/Src/stm32f4xx_hal_dma_ex.c ****     __HAL_DMA_CLEAR_FLAG (hdma, __HAL_DMA_GET_HT_FLAG_INDEX(hdma));
 697              		.loc 1 196 5 discriminator 151 view .LVU169
 698 02ec 104A     		ldr	r2, .L333+20
 699 02ee D360     		str	r3, [r2, #12]
 700              	.LVL34:
 196:/home/vtrnnhlinh/STM32Cube/Repository/STM32Cube_FW_F4_V1.28.0/Drivers/STM32F4xx_HAL_Driver/Src/stm32f4xx_hal_dma_ex.c ****     __HAL_DMA_CLEAR_FLAG (hdma, __HAL_DMA_GET_HT_FLAG_INDEX(hdma));
 701              		.loc 1 196 5 discriminator 151 view .LVU170
 702 02f0 0DE7     		b	.L27
 703              	.LVL35:
 704              	.L93:
 196:/home/vtrnnhlinh/STM32Cube/Repository/STM32Cube_FW_F4_V1.28.0/Drivers/STM32F4xx_HAL_Driver/Src/stm32f4xx_hal_dma_ex.c ****     __HAL_DMA_CLEAR_FLAG (hdma, __HAL_DMA_GET_HT_FLAG_INDEX(hdma));
 705              		.loc 1 196 5 view .LVU171
 706 02f2 2023     		movs	r3, #32
 707 02f4 FAE7     		b	.L31
 708              	.L94:
 709 02f6 2023     		movs	r3, #32
 710 02f8 F8E7     		b	.L31
 711              	.L95:
 712 02fa 2023     		movs	r3, #32
 713 02fc F6E7     		b	.L31
 714              	.L96:
 715 02fe 4FF40063 		mov	r3, #2048
 716 0302 F3E7     		b	.L31
 717              	.L97:
 718 0304 4FF40063 		mov	r3, #2048
 719 0308 F0E7     		b	.L31
 720              	.L98:
 721 030a 4FF40063 		mov	r3, #2048
 722 030e EDE7     		b	.L31
 723              	.L99:
 724 0310 4FF40063 		mov	r3, #2048
 725 0314 EAE7     		b	.L31
 726              	.L100:
 727 0316 4FF40013 		mov	r3, #2097152
 728 031a E7E7     		b	.L31
 729              	.L334:
 730              		.align	2
 731              	.L333:
 732 031c 00000000 		.word	.LC0
 733 0320 58640240 		.word	1073898584
 734 0324 00640240 		.word	1073898496
ARM GAS  /tmp/cc92hle1.s 			page 22


 735 0328 B8600240 		.word	1073897656
 736 032c 58600240 		.word	1073897560
 737 0330 00600240 		.word	1073897472
 738              	.L101:
 739 0334 4FF40013 		mov	r3, #2097152
 740 0338 D8E7     		b	.L31
 741              	.L102:
 742 033a 4FF40013 		mov	r3, #2097152
 743 033e D5E7     		b	.L31
 744              	.L30:
 196:/home/vtrnnhlinh/STM32Cube/Repository/STM32Cube_FW_F4_V1.28.0/Drivers/STM32F4xx_HAL_Driver/Src/stm32f4xx_hal_dma_ex.c ****     __HAL_DMA_CLEAR_FLAG (hdma, __HAL_DMA_GET_HT_FLAG_INDEX(hdma));
 745              		.loc 1 196 5 discriminator 103 view .LVU172
 746 0340 B14A     		ldr	r2, .L335
 747 0342 9342     		cmp	r3, r2
 748 0344 31D0     		beq	.L104
 196:/home/vtrnnhlinh/STM32Cube/Repository/STM32Cube_FW_F4_V1.28.0/Drivers/STM32F4xx_HAL_Driver/Src/stm32f4xx_hal_dma_ex.c ****     __HAL_DMA_CLEAR_FLAG (hdma, __HAL_DMA_GET_HT_FLAG_INDEX(hdma));
 749              		.loc 1 196 5 discriminator 153 view .LVU173
 750 0346 02F58062 		add	r2, r2, #1024
 751 034a 9342     		cmp	r3, r2
 752 034c 31D0     		beq	.L105
 196:/home/vtrnnhlinh/STM32Cube/Repository/STM32Cube_FW_F4_V1.28.0/Drivers/STM32F4xx_HAL_Driver/Src/stm32f4xx_hal_dma_ex.c ****     __HAL_DMA_CLEAR_FLAG (hdma, __HAL_DMA_GET_HT_FLAG_INDEX(hdma));
 753              		.loc 1 196 5 discriminator 155 view .LVU174
 754 034e A2F56872 		sub	r2, r2, #928
 755 0352 9342     		cmp	r3, r2
 756 0354 2FD0     		beq	.L106
 196:/home/vtrnnhlinh/STM32Cube/Repository/STM32Cube_FW_F4_V1.28.0/Drivers/STM32F4xx_HAL_Driver/Src/stm32f4xx_hal_dma_ex.c ****     __HAL_DMA_CLEAR_FLAG (hdma, __HAL_DMA_GET_HT_FLAG_INDEX(hdma));
 757              		.loc 1 196 5 discriminator 157 view .LVU175
 758 0356 02F58062 		add	r2, r2, #1024
 759 035a 9342     		cmp	r3, r2
 760 035c 2DD0     		beq	.L107
 196:/home/vtrnnhlinh/STM32Cube/Repository/STM32Cube_FW_F4_V1.28.0/Drivers/STM32F4xx_HAL_Driver/Src/stm32f4xx_hal_dma_ex.c ****     __HAL_DMA_CLEAR_FLAG (hdma, __HAL_DMA_GET_HT_FLAG_INDEX(hdma));
 761              		.loc 1 196 5 discriminator 159 view .LVU176
 762 035e A2F58962 		sub	r2, r2, #1096
 763 0362 9342     		cmp	r3, r2
 764 0364 2BD0     		beq	.L108
 196:/home/vtrnnhlinh/STM32Cube/Repository/STM32Cube_FW_F4_V1.28.0/Drivers/STM32F4xx_HAL_Driver/Src/stm32f4xx_hal_dma_ex.c ****     __HAL_DMA_CLEAR_FLAG (hdma, __HAL_DMA_GET_HT_FLAG_INDEX(hdma));
 765              		.loc 1 196 5 discriminator 161 view .LVU177
 766 0366 02F58062 		add	r2, r2, #1024
 767 036a 9342     		cmp	r3, r2
 768 036c 2AD0     		beq	.L109
 196:/home/vtrnnhlinh/STM32Cube/Repository/STM32Cube_FW_F4_V1.28.0/Drivers/STM32F4xx_HAL_Driver/Src/stm32f4xx_hal_dma_ex.c ****     __HAL_DMA_CLEAR_FLAG (hdma, __HAL_DMA_GET_HT_FLAG_INDEX(hdma));
 769              		.loc 1 196 5 discriminator 163 view .LVU178
 770 036e A2F56872 		sub	r2, r2, #928
 771 0372 9342     		cmp	r3, r2
 772 0374 29D0     		beq	.L110
 196:/home/vtrnnhlinh/STM32Cube/Repository/STM32Cube_FW_F4_V1.28.0/Drivers/STM32F4xx_HAL_Driver/Src/stm32f4xx_hal_dma_ex.c ****     __HAL_DMA_CLEAR_FLAG (hdma, __HAL_DMA_GET_HT_FLAG_INDEX(hdma));
 773              		.loc 1 196 5 discriminator 165 view .LVU179
 774 0376 02F58062 		add	r2, r2, #1024
 775 037a 9342     		cmp	r3, r2
 776 037c 28D0     		beq	.L111
 196:/home/vtrnnhlinh/STM32Cube/Repository/STM32Cube_FW_F4_V1.28.0/Drivers/STM32F4xx_HAL_Driver/Src/stm32f4xx_hal_dma_ex.c ****     __HAL_DMA_CLEAR_FLAG (hdma, __HAL_DMA_GET_HT_FLAG_INDEX(hdma));
 777              		.loc 1 196 5 discriminator 167 view .LVU180
 778 037e A2F58962 		sub	r2, r2, #1096
 779 0382 9342     		cmp	r3, r2
 780 0384 27D0     		beq	.L112
 196:/home/vtrnnhlinh/STM32Cube/Repository/STM32Cube_FW_F4_V1.28.0/Drivers/STM32F4xx_HAL_Driver/Src/stm32f4xx_hal_dma_ex.c ****     __HAL_DMA_CLEAR_FLAG (hdma, __HAL_DMA_GET_HT_FLAG_INDEX(hdma));
 781              		.loc 1 196 5 discriminator 169 view .LVU181
ARM GAS  /tmp/cc92hle1.s 			page 23


 782 0386 02F58062 		add	r2, r2, #1024
 783 038a 9342     		cmp	r3, r2
 784 038c 26D0     		beq	.L113
 196:/home/vtrnnhlinh/STM32Cube/Repository/STM32Cube_FW_F4_V1.28.0/Drivers/STM32F4xx_HAL_Driver/Src/stm32f4xx_hal_dma_ex.c ****     __HAL_DMA_CLEAR_FLAG (hdma, __HAL_DMA_GET_HT_FLAG_INDEX(hdma));
 785              		.loc 1 196 5 discriminator 171 view .LVU182
 786 038e A2F56872 		sub	r2, r2, #928
 787 0392 9342     		cmp	r3, r2
 788 0394 25D0     		beq	.L114
 196:/home/vtrnnhlinh/STM32Cube/Repository/STM32Cube_FW_F4_V1.28.0/Drivers/STM32F4xx_HAL_Driver/Src/stm32f4xx_hal_dma_ex.c ****     __HAL_DMA_CLEAR_FLAG (hdma, __HAL_DMA_GET_HT_FLAG_INDEX(hdma));
 789              		.loc 1 196 5 discriminator 173 view .LVU183
 790 0396 02F58062 		add	r2, r2, #1024
 791 039a 9342     		cmp	r3, r2
 792 039c 02D0     		beq	.L316
 196:/home/vtrnnhlinh/STM32Cube/Repository/STM32Cube_FW_F4_V1.28.0/Drivers/STM32F4xx_HAL_Driver/Src/stm32f4xx_hal_dma_ex.c ****     __HAL_DMA_CLEAR_FLAG (hdma, __HAL_DMA_GET_HT_FLAG_INDEX(hdma));
 793              		.loc 1 196 5 view .LVU184
 794 039e 4FF00063 		mov	r3, #134217728
 795 03a2 03E0     		b	.L32
 796              	.L316:
 797 03a4 4FF40013 		mov	r3, #2097152
 798 03a8 00E0     		b	.L32
 799              	.L104:
 800 03aa 2023     		movs	r3, #32
 801              	.L32:
 196:/home/vtrnnhlinh/STM32Cube/Repository/STM32Cube_FW_F4_V1.28.0/Drivers/STM32F4xx_HAL_Driver/Src/stm32f4xx_hal_dma_ex.c ****     __HAL_DMA_CLEAR_FLAG (hdma, __HAL_DMA_GET_HT_FLAG_INDEX(hdma));
 802              		.loc 1 196 5 discriminator 200 view .LVU185
 803 03ac 974A     		ldr	r2, .L335+4
 804 03ae 9360     		str	r3, [r2, #8]
 805              	.LVL36:
 196:/home/vtrnnhlinh/STM32Cube/Repository/STM32Cube_FW_F4_V1.28.0/Drivers/STM32F4xx_HAL_Driver/Src/stm32f4xx_hal_dma_ex.c ****     __HAL_DMA_CLEAR_FLAG (hdma, __HAL_DMA_GET_HT_FLAG_INDEX(hdma));
 806              		.loc 1 196 5 discriminator 200 view .LVU186
 807 03b0 ADE6     		b	.L27
 808              	.LVL37:
 809              	.L105:
 196:/home/vtrnnhlinh/STM32Cube/Repository/STM32Cube_FW_F4_V1.28.0/Drivers/STM32F4xx_HAL_Driver/Src/stm32f4xx_hal_dma_ex.c ****     __HAL_DMA_CLEAR_FLAG (hdma, __HAL_DMA_GET_HT_FLAG_INDEX(hdma));
 810              		.loc 1 196 5 view .LVU187
 811 03b2 2023     		movs	r3, #32
 812 03b4 FAE7     		b	.L32
 813              	.L106:
 814 03b6 2023     		movs	r3, #32
 815 03b8 F8E7     		b	.L32
 816              	.L107:
 817 03ba 2023     		movs	r3, #32
 818 03bc F6E7     		b	.L32
 819              	.L108:
 820 03be 4FF40063 		mov	r3, #2048
 821 03c2 F3E7     		b	.L32
 822              	.L109:
 823 03c4 4FF40063 		mov	r3, #2048
 824 03c8 F0E7     		b	.L32
 825              	.L110:
 826 03ca 4FF40063 		mov	r3, #2048
 827 03ce EDE7     		b	.L32
 828              	.L111:
 829 03d0 4FF40063 		mov	r3, #2048
 830 03d4 EAE7     		b	.L32
 831              	.L112:
 832 03d6 4FF40013 		mov	r3, #2097152
ARM GAS  /tmp/cc92hle1.s 			page 24


 833 03da E7E7     		b	.L32
 834              	.L113:
 835 03dc 4FF40013 		mov	r3, #2097152
 836 03e0 E4E7     		b	.L32
 837              	.L114:
 838 03e2 4FF40013 		mov	r3, #2097152
 839 03e6 E1E7     		b	.L32
 840              	.LVL38:
 841              	.L313:
 197:/home/vtrnnhlinh/STM32Cube/Repository/STM32Cube_FW_F4_V1.28.0/Drivers/STM32F4xx_HAL_Driver/Src/stm32f4xx_hal_dma_ex.c ****     __HAL_DMA_CLEAR_FLAG (hdma, __HAL_DMA_GET_TE_FLAG_INDEX(hdma));
 842              		.loc 1 197 5 view .LVU188
 843 03e8 4FF48012 		mov	r2, #1048576
 844 03ec 00E0     		b	.L34
 845              	.L116:
 846 03ee 1022     		movs	r2, #16
 847              	.L34:
 197:/home/vtrnnhlinh/STM32Cube/Repository/STM32Cube_FW_F4_V1.28.0/Drivers/STM32F4xx_HAL_Driver/Src/stm32f4xx_hal_dma_ex.c ****     __HAL_DMA_CLEAR_FLAG (hdma, __HAL_DMA_GET_TE_FLAG_INDEX(hdma));
 848              		.loc 1 197 5 discriminator 50 view .LVU189
 849 03f0 874B     		ldr	r3, .L335+8
 850 03f2 DA60     		str	r2, [r3, #12]
 851              	.L35:
 198:/home/vtrnnhlinh/STM32Cube/Repository/STM32Cube_FW_F4_V1.28.0/Drivers/STM32F4xx_HAL_Driver/Src/stm32f4xx_hal_dma_ex.c ****     __HAL_DMA_CLEAR_FLAG (hdma, __HAL_DMA_GET_DME_FLAG_INDEX(hdma));
 852              		.loc 1 198 5 is_stmt 1 view .LVU190
 853 03f4 2368     		ldr	r3, [r4]
 854 03f6 874A     		ldr	r2, .L335+12
 855 03f8 9342     		cmp	r3, r2
 856 03fa 40F2CD81 		bls	.L41
 198:/home/vtrnnhlinh/STM32Cube/Repository/STM32Cube_FW_F4_V1.28.0/Drivers/STM32F4xx_HAL_Driver/Src/stm32f4xx_hal_dma_ex.c ****     __HAL_DMA_CLEAR_FLAG (hdma, __HAL_DMA_GET_DME_FLAG_INDEX(hdma));
 857              		.loc 1 198 5 is_stmt 0 discriminator 1 view .LVU191
 858 03fe A2F58962 		sub	r2, r2, #1096
 859 0402 9342     		cmp	r3, r2
 860 0404 00F06681 		beq	.L164
 198:/home/vtrnnhlinh/STM32Cube/Repository/STM32Cube_FW_F4_V1.28.0/Drivers/STM32F4xx_HAL_Driver/Src/stm32f4xx_hal_dma_ex.c ****     __HAL_DMA_CLEAR_FLAG (hdma, __HAL_DMA_GET_DME_FLAG_INDEX(hdma));
 861              		.loc 1 198 5 discriminator 3 view .LVU192
 862 0408 02F58062 		add	r2, r2, #1024
 863 040c 9342     		cmp	r3, r2
 864 040e 00F0A881 		beq	.L165
 198:/home/vtrnnhlinh/STM32Cube/Repository/STM32Cube_FW_F4_V1.28.0/Drivers/STM32F4xx_HAL_Driver/Src/stm32f4xx_hal_dma_ex.c ****     __HAL_DMA_CLEAR_FLAG (hdma, __HAL_DMA_GET_DME_FLAG_INDEX(hdma));
 865              		.loc 1 198 5 discriminator 5 view .LVU193
 866 0412 A2F56872 		sub	r2, r2, #928
 867 0416 9342     		cmp	r3, r2
 868 0418 00F0A581 		beq	.L166
 198:/home/vtrnnhlinh/STM32Cube/Repository/STM32Cube_FW_F4_V1.28.0/Drivers/STM32F4xx_HAL_Driver/Src/stm32f4xx_hal_dma_ex.c ****     __HAL_DMA_CLEAR_FLAG (hdma, __HAL_DMA_GET_DME_FLAG_INDEX(hdma));
 869              		.loc 1 198 5 discriminator 7 view .LVU194
 870 041c 02F58062 		add	r2, r2, #1024
 871 0420 9342     		cmp	r3, r2
 872 0422 00F0A281 		beq	.L167
 198:/home/vtrnnhlinh/STM32Cube/Repository/STM32Cube_FW_F4_V1.28.0/Drivers/STM32F4xx_HAL_Driver/Src/stm32f4xx_hal_dma_ex.c ****     __HAL_DMA_CLEAR_FLAG (hdma, __HAL_DMA_GET_DME_FLAG_INDEX(hdma));
 873              		.loc 1 198 5 discriminator 9 view .LVU195
 874 0426 A2F58962 		sub	r2, r2, #1096
 875 042a 9342     		cmp	r3, r2
 876 042c 00F09F81 		beq	.L168
 198:/home/vtrnnhlinh/STM32Cube/Repository/STM32Cube_FW_F4_V1.28.0/Drivers/STM32F4xx_HAL_Driver/Src/stm32f4xx_hal_dma_ex.c ****     __HAL_DMA_CLEAR_FLAG (hdma, __HAL_DMA_GET_DME_FLAG_INDEX(hdma));
 877              		.loc 1 198 5 discriminator 11 view .LVU196
 878 0430 02F58062 		add	r2, r2, #1024
 879 0434 9342     		cmp	r3, r2
 880 0436 00F09D81 		beq	.L169
ARM GAS  /tmp/cc92hle1.s 			page 25


 198:/home/vtrnnhlinh/STM32Cube/Repository/STM32Cube_FW_F4_V1.28.0/Drivers/STM32F4xx_HAL_Driver/Src/stm32f4xx_hal_dma_ex.c ****     __HAL_DMA_CLEAR_FLAG (hdma, __HAL_DMA_GET_DME_FLAG_INDEX(hdma));
 881              		.loc 1 198 5 discriminator 13 view .LVU197
 882 043a A2F56872 		sub	r2, r2, #928
 883 043e 9342     		cmp	r3, r2
 884 0440 00F09B81 		beq	.L170
 198:/home/vtrnnhlinh/STM32Cube/Repository/STM32Cube_FW_F4_V1.28.0/Drivers/STM32F4xx_HAL_Driver/Src/stm32f4xx_hal_dma_ex.c ****     __HAL_DMA_CLEAR_FLAG (hdma, __HAL_DMA_GET_DME_FLAG_INDEX(hdma));
 885              		.loc 1 198 5 discriminator 15 view .LVU198
 886 0444 02F58062 		add	r2, r2, #1024
 887 0448 9342     		cmp	r3, r2
 888 044a 00F09981 		beq	.L171
 198:/home/vtrnnhlinh/STM32Cube/Repository/STM32Cube_FW_F4_V1.28.0/Drivers/STM32F4xx_HAL_Driver/Src/stm32f4xx_hal_dma_ex.c ****     __HAL_DMA_CLEAR_FLAG (hdma, __HAL_DMA_GET_DME_FLAG_INDEX(hdma));
 889              		.loc 1 198 5 discriminator 17 view .LVU199
 890 044e A2F58962 		sub	r2, r2, #1096
 891 0452 9342     		cmp	r3, r2
 892 0454 00F09781 		beq	.L172
 198:/home/vtrnnhlinh/STM32Cube/Repository/STM32Cube_FW_F4_V1.28.0/Drivers/STM32F4xx_HAL_Driver/Src/stm32f4xx_hal_dma_ex.c ****     __HAL_DMA_CLEAR_FLAG (hdma, __HAL_DMA_GET_DME_FLAG_INDEX(hdma));
 893              		.loc 1 198 5 discriminator 19 view .LVU200
 894 0458 02F58062 		add	r2, r2, #1024
 895 045c 9342     		cmp	r3, r2
 896 045e 00F09581 		beq	.L173
 198:/home/vtrnnhlinh/STM32Cube/Repository/STM32Cube_FW_F4_V1.28.0/Drivers/STM32F4xx_HAL_Driver/Src/stm32f4xx_hal_dma_ex.c ****     __HAL_DMA_CLEAR_FLAG (hdma, __HAL_DMA_GET_DME_FLAG_INDEX(hdma));
 897              		.loc 1 198 5 discriminator 21 view .LVU201
 898 0462 A2F56872 		sub	r2, r2, #928
 899 0466 9342     		cmp	r3, r2
 900 0468 00F09381 		beq	.L174
 198:/home/vtrnnhlinh/STM32Cube/Repository/STM32Cube_FW_F4_V1.28.0/Drivers/STM32F4xx_HAL_Driver/Src/stm32f4xx_hal_dma_ex.c ****     __HAL_DMA_CLEAR_FLAG (hdma, __HAL_DMA_GET_DME_FLAG_INDEX(hdma));
 901              		.loc 1 198 5 discriminator 23 view .LVU202
 902 046c 02F58062 		add	r2, r2, #1024
 903 0470 9342     		cmp	r3, r2
 904 0472 00F02C81 		beq	.L317
 198:/home/vtrnnhlinh/STM32Cube/Repository/STM32Cube_FW_F4_V1.28.0/Drivers/STM32F4xx_HAL_Driver/Src/stm32f4xx_hal_dma_ex.c ****     __HAL_DMA_CLEAR_FLAG (hdma, __HAL_DMA_GET_DME_FLAG_INDEX(hdma));
 905              		.loc 1 198 5 view .LVU203
 906 0476 4FF00072 		mov	r2, #33554432
 907 047a 2CE1     		b	.L42
 908              	.L117:
 197:/home/vtrnnhlinh/STM32Cube/Repository/STM32Cube_FW_F4_V1.28.0/Drivers/STM32F4xx_HAL_Driver/Src/stm32f4xx_hal_dma_ex.c ****     __HAL_DMA_CLEAR_FLAG (hdma, __HAL_DMA_GET_TE_FLAG_INDEX(hdma));
 909              		.loc 1 197 5 view .LVU204
 910 047c 1022     		movs	r2, #16
 911 047e B7E7     		b	.L34
 912              	.L118:
 913 0480 1022     		movs	r2, #16
 914 0482 B5E7     		b	.L34
 915              	.L119:
 916 0484 1022     		movs	r2, #16
 917 0486 B3E7     		b	.L34
 918              	.L120:
 919 0488 4FF48062 		mov	r2, #1024
 920 048c B0E7     		b	.L34
 921              	.L121:
 922 048e 4FF48062 		mov	r2, #1024
 923 0492 ADE7     		b	.L34
 924              	.L122:
 925 0494 4FF48062 		mov	r2, #1024
 926 0498 AAE7     		b	.L34
 927              	.L123:
 928 049a 4FF48062 		mov	r2, #1024
 929 049e A7E7     		b	.L34
ARM GAS  /tmp/cc92hle1.s 			page 26


 930              	.L124:
 931 04a0 4FF48012 		mov	r2, #1048576
 932 04a4 A4E7     		b	.L34
 933              	.L125:
 934 04a6 4FF48012 		mov	r2, #1048576
 935 04aa A1E7     		b	.L34
 936              	.L126:
 937 04ac 4FF48012 		mov	r2, #1048576
 938 04b0 9EE7     		b	.L34
 939              	.L33:
 197:/home/vtrnnhlinh/STM32Cube/Repository/STM32Cube_FW_F4_V1.28.0/Drivers/STM32F4xx_HAL_Driver/Src/stm32f4xx_hal_dma_ex.c ****     __HAL_DMA_CLEAR_FLAG (hdma, __HAL_DMA_GET_TE_FLAG_INDEX(hdma));
 940              		.loc 1 197 5 discriminator 2 view .LVU205
 941 04b2 594A     		ldr	r2, .L335+16
 942 04b4 9342     		cmp	r3, r2
 943 04b6 53D9     		bls	.L36
 197:/home/vtrnnhlinh/STM32Cube/Repository/STM32Cube_FW_F4_V1.28.0/Drivers/STM32F4xx_HAL_Driver/Src/stm32f4xx_hal_dma_ex.c ****     __HAL_DMA_CLEAR_FLAG (hdma, __HAL_DMA_GET_TE_FLAG_INDEX(hdma));
 944              		.loc 1 197 5 discriminator 51 view .LVU206
 945 04b8 A83A     		subs	r2, r2, #168
 946 04ba 9342     		cmp	r3, r2
 947 04bc 31D0     		beq	.L128
 197:/home/vtrnnhlinh/STM32Cube/Repository/STM32Cube_FW_F4_V1.28.0/Drivers/STM32F4xx_HAL_Driver/Src/stm32f4xx_hal_dma_ex.c ****     __HAL_DMA_CLEAR_FLAG (hdma, __HAL_DMA_GET_TE_FLAG_INDEX(hdma));
 948              		.loc 1 197 5 discriminator 53 view .LVU207
 949 04be 02F58062 		add	r2, r2, #1024
 950 04c2 9342     		cmp	r3, r2
 951 04c4 31D0     		beq	.L129
 197:/home/vtrnnhlinh/STM32Cube/Repository/STM32Cube_FW_F4_V1.28.0/Drivers/STM32F4xx_HAL_Driver/Src/stm32f4xx_hal_dma_ex.c ****     __HAL_DMA_CLEAR_FLAG (hdma, __HAL_DMA_GET_TE_FLAG_INDEX(hdma));
 952              		.loc 1 197 5 discriminator 55 view .LVU208
 953 04c6 A2F56872 		sub	r2, r2, #928
 954 04ca 9342     		cmp	r3, r2
 955 04cc 2FD0     		beq	.L130
 197:/home/vtrnnhlinh/STM32Cube/Repository/STM32Cube_FW_F4_V1.28.0/Drivers/STM32F4xx_HAL_Driver/Src/stm32f4xx_hal_dma_ex.c ****     __HAL_DMA_CLEAR_FLAG (hdma, __HAL_DMA_GET_TE_FLAG_INDEX(hdma));
 956              		.loc 1 197 5 discriminator 57 view .LVU209
 957 04ce 02F58062 		add	r2, r2, #1024
 958 04d2 9342     		cmp	r3, r2
 959 04d4 2DD0     		beq	.L131
 197:/home/vtrnnhlinh/STM32Cube/Repository/STM32Cube_FW_F4_V1.28.0/Drivers/STM32F4xx_HAL_Driver/Src/stm32f4xx_hal_dma_ex.c ****     __HAL_DMA_CLEAR_FLAG (hdma, __HAL_DMA_GET_TE_FLAG_INDEX(hdma));
 960              		.loc 1 197 5 discriminator 59 view .LVU210
 961 04d6 A2F58962 		sub	r2, r2, #1096
 962 04da 9342     		cmp	r3, r2
 963 04dc 2BD0     		beq	.L132
 197:/home/vtrnnhlinh/STM32Cube/Repository/STM32Cube_FW_F4_V1.28.0/Drivers/STM32F4xx_HAL_Driver/Src/stm32f4xx_hal_dma_ex.c ****     __HAL_DMA_CLEAR_FLAG (hdma, __HAL_DMA_GET_TE_FLAG_INDEX(hdma));
 964              		.loc 1 197 5 discriminator 61 view .LVU211
 965 04de 02F58062 		add	r2, r2, #1024
 966 04e2 9342     		cmp	r3, r2
 967 04e4 2AD0     		beq	.L133
 197:/home/vtrnnhlinh/STM32Cube/Repository/STM32Cube_FW_F4_V1.28.0/Drivers/STM32F4xx_HAL_Driver/Src/stm32f4xx_hal_dma_ex.c ****     __HAL_DMA_CLEAR_FLAG (hdma, __HAL_DMA_GET_TE_FLAG_INDEX(hdma));
 968              		.loc 1 197 5 discriminator 63 view .LVU212
 969 04e6 A2F56872 		sub	r2, r2, #928
 970 04ea 9342     		cmp	r3, r2
 971 04ec 29D0     		beq	.L134
 197:/home/vtrnnhlinh/STM32Cube/Repository/STM32Cube_FW_F4_V1.28.0/Drivers/STM32F4xx_HAL_Driver/Src/stm32f4xx_hal_dma_ex.c ****     __HAL_DMA_CLEAR_FLAG (hdma, __HAL_DMA_GET_TE_FLAG_INDEX(hdma));
 972              		.loc 1 197 5 discriminator 65 view .LVU213
 973 04ee 02F58062 		add	r2, r2, #1024
 974 04f2 9342     		cmp	r3, r2
 975 04f4 28D0     		beq	.L135
 197:/home/vtrnnhlinh/STM32Cube/Repository/STM32Cube_FW_F4_V1.28.0/Drivers/STM32F4xx_HAL_Driver/Src/stm32f4xx_hal_dma_ex.c ****     __HAL_DMA_CLEAR_FLAG (hdma, __HAL_DMA_GET_TE_FLAG_INDEX(hdma));
 976              		.loc 1 197 5 discriminator 67 view .LVU214
ARM GAS  /tmp/cc92hle1.s 			page 27


 977 04f6 A2F58962 		sub	r2, r2, #1096
 978 04fa 9342     		cmp	r3, r2
 979 04fc 27D0     		beq	.L136
 197:/home/vtrnnhlinh/STM32Cube/Repository/STM32Cube_FW_F4_V1.28.0/Drivers/STM32F4xx_HAL_Driver/Src/stm32f4xx_hal_dma_ex.c ****     __HAL_DMA_CLEAR_FLAG (hdma, __HAL_DMA_GET_TE_FLAG_INDEX(hdma));
 980              		.loc 1 197 5 discriminator 69 view .LVU215
 981 04fe 02F58062 		add	r2, r2, #1024
 982 0502 9342     		cmp	r3, r2
 983 0504 26D0     		beq	.L137
 197:/home/vtrnnhlinh/STM32Cube/Repository/STM32Cube_FW_F4_V1.28.0/Drivers/STM32F4xx_HAL_Driver/Src/stm32f4xx_hal_dma_ex.c ****     __HAL_DMA_CLEAR_FLAG (hdma, __HAL_DMA_GET_TE_FLAG_INDEX(hdma));
 984              		.loc 1 197 5 discriminator 71 view .LVU216
 985 0506 A2F56872 		sub	r2, r2, #928
 986 050a 9342     		cmp	r3, r2
 987 050c 25D0     		beq	.L138
 197:/home/vtrnnhlinh/STM32Cube/Repository/STM32Cube_FW_F4_V1.28.0/Drivers/STM32F4xx_HAL_Driver/Src/stm32f4xx_hal_dma_ex.c ****     __HAL_DMA_CLEAR_FLAG (hdma, __HAL_DMA_GET_TE_FLAG_INDEX(hdma));
 988              		.loc 1 197 5 discriminator 73 view .LVU217
 989 050e 02F58062 		add	r2, r2, #1024
 990 0512 9342     		cmp	r3, r2
 991 0514 02D0     		beq	.L318
 197:/home/vtrnnhlinh/STM32Cube/Repository/STM32Cube_FW_F4_V1.28.0/Drivers/STM32F4xx_HAL_Driver/Src/stm32f4xx_hal_dma_ex.c ****     __HAL_DMA_CLEAR_FLAG (hdma, __HAL_DMA_GET_TE_FLAG_INDEX(hdma));
 992              		.loc 1 197 5 view .LVU218
 993 0516 4FF08063 		mov	r3, #67108864
 994 051a 03E0     		b	.L37
 995              	.L318:
 996 051c 4FF48013 		mov	r3, #1048576
 997 0520 00E0     		b	.L37
 998              	.L128:
 999 0522 1023     		movs	r3, #16
 1000              	.L37:
 197:/home/vtrnnhlinh/STM32Cube/Repository/STM32Cube_FW_F4_V1.28.0/Drivers/STM32F4xx_HAL_Driver/Src/stm32f4xx_hal_dma_ex.c ****     __HAL_DMA_CLEAR_FLAG (hdma, __HAL_DMA_GET_TE_FLAG_INDEX(hdma));
 1001              		.loc 1 197 5 discriminator 100 view .LVU219
 1002 0524 3A4A     		ldr	r2, .L335+8
 1003 0526 9360     		str	r3, [r2, #8]
 1004 0528 64E7     		b	.L35
 1005              	.L129:
 197:/home/vtrnnhlinh/STM32Cube/Repository/STM32Cube_FW_F4_V1.28.0/Drivers/STM32F4xx_HAL_Driver/Src/stm32f4xx_hal_dma_ex.c ****     __HAL_DMA_CLEAR_FLAG (hdma, __HAL_DMA_GET_TE_FLAG_INDEX(hdma));
 1006              		.loc 1 197 5 view .LVU220
 1007 052a 1023     		movs	r3, #16
 1008 052c FAE7     		b	.L37
 1009              	.L130:
 1010 052e 1023     		movs	r3, #16
 1011 0530 F8E7     		b	.L37
 1012              	.L131:
 1013 0532 1023     		movs	r3, #16
 1014 0534 F6E7     		b	.L37
 1015              	.L132:
 1016 0536 4FF48063 		mov	r3, #1024
 1017 053a F3E7     		b	.L37
 1018              	.L133:
 1019 053c 4FF48063 		mov	r3, #1024
 1020 0540 F0E7     		b	.L37
 1021              	.L134:
 1022 0542 4FF48063 		mov	r3, #1024
 1023 0546 EDE7     		b	.L37
 1024              	.L135:
 1025 0548 4FF48063 		mov	r3, #1024
 1026 054c EAE7     		b	.L37
 1027              	.L136:
ARM GAS  /tmp/cc92hle1.s 			page 28


 1028 054e 4FF48013 		mov	r3, #1048576
 1029 0552 E7E7     		b	.L37
 1030              	.L137:
 1031 0554 4FF48013 		mov	r3, #1048576
 1032 0558 E4E7     		b	.L37
 1033              	.L138:
 1034 055a 4FF48013 		mov	r3, #1048576
 1035 055e E1E7     		b	.L37
 1036              	.L36:
 197:/home/vtrnnhlinh/STM32Cube/Repository/STM32Cube_FW_F4_V1.28.0/Drivers/STM32F4xx_HAL_Driver/Src/stm32f4xx_hal_dma_ex.c ****     __HAL_DMA_CLEAR_FLAG (hdma, __HAL_DMA_GET_TE_FLAG_INDEX(hdma));
 1037              		.loc 1 197 5 discriminator 52 view .LVU221
 1038 0560 2E4A     		ldr	r2, .L335+20
 1039 0562 9342     		cmp	r3, r2
 1040 0564 5FD9     		bls	.L38
 197:/home/vtrnnhlinh/STM32Cube/Repository/STM32Cube_FW_F4_V1.28.0/Drivers/STM32F4xx_HAL_Driver/Src/stm32f4xx_hal_dma_ex.c ****     __HAL_DMA_CLEAR_FLAG (hdma, __HAL_DMA_GET_TE_FLAG_INDEX(hdma));
 1041              		.loc 1 197 5 discriminator 102 view .LVU222
 1042 0566 483A     		subs	r2, r2, #72
 1043 0568 9342     		cmp	r3, r2
 1044 056a 31D0     		beq	.L140
 197:/home/vtrnnhlinh/STM32Cube/Repository/STM32Cube_FW_F4_V1.28.0/Drivers/STM32F4xx_HAL_Driver/Src/stm32f4xx_hal_dma_ex.c ****     __HAL_DMA_CLEAR_FLAG (hdma, __HAL_DMA_GET_TE_FLAG_INDEX(hdma));
 1045              		.loc 1 197 5 discriminator 104 view .LVU223
 1046 056c 02F58062 		add	r2, r2, #1024
 1047 0570 9342     		cmp	r3, r2
 1048 0572 31D0     		beq	.L141
 197:/home/vtrnnhlinh/STM32Cube/Repository/STM32Cube_FW_F4_V1.28.0/Drivers/STM32F4xx_HAL_Driver/Src/stm32f4xx_hal_dma_ex.c ****     __HAL_DMA_CLEAR_FLAG (hdma, __HAL_DMA_GET_TE_FLAG_INDEX(hdma));
 1049              		.loc 1 197 5 discriminator 106 view .LVU224
 1050 0574 A2F56872 		sub	r2, r2, #928
 1051 0578 9342     		cmp	r3, r2
 1052 057a 2FD0     		beq	.L142
 197:/home/vtrnnhlinh/STM32Cube/Repository/STM32Cube_FW_F4_V1.28.0/Drivers/STM32F4xx_HAL_Driver/Src/stm32f4xx_hal_dma_ex.c ****     __HAL_DMA_CLEAR_FLAG (hdma, __HAL_DMA_GET_TE_FLAG_INDEX(hdma));
 1053              		.loc 1 197 5 discriminator 108 view .LVU225
 1054 057c 02F58062 		add	r2, r2, #1024
 1055 0580 9342     		cmp	r3, r2
 1056 0582 2DD0     		beq	.L143
 197:/home/vtrnnhlinh/STM32Cube/Repository/STM32Cube_FW_F4_V1.28.0/Drivers/STM32F4xx_HAL_Driver/Src/stm32f4xx_hal_dma_ex.c ****     __HAL_DMA_CLEAR_FLAG (hdma, __HAL_DMA_GET_TE_FLAG_INDEX(hdma));
 1057              		.loc 1 197 5 discriminator 110 view .LVU226
 1058 0584 A2F58962 		sub	r2, r2, #1096
 1059 0588 9342     		cmp	r3, r2
 1060 058a 2BD0     		beq	.L144
 197:/home/vtrnnhlinh/STM32Cube/Repository/STM32Cube_FW_F4_V1.28.0/Drivers/STM32F4xx_HAL_Driver/Src/stm32f4xx_hal_dma_ex.c ****     __HAL_DMA_CLEAR_FLAG (hdma, __HAL_DMA_GET_TE_FLAG_INDEX(hdma));
 1061              		.loc 1 197 5 discriminator 112 view .LVU227
 1062 058c 02F58062 		add	r2, r2, #1024
 1063 0590 9342     		cmp	r3, r2
 1064 0592 2AD0     		beq	.L145
 197:/home/vtrnnhlinh/STM32Cube/Repository/STM32Cube_FW_F4_V1.28.0/Drivers/STM32F4xx_HAL_Driver/Src/stm32f4xx_hal_dma_ex.c ****     __HAL_DMA_CLEAR_FLAG (hdma, __HAL_DMA_GET_TE_FLAG_INDEX(hdma));
 1065              		.loc 1 197 5 discriminator 114 view .LVU228
 1066 0594 A2F56872 		sub	r2, r2, #928
 1067 0598 9342     		cmp	r3, r2
 1068 059a 29D0     		beq	.L146
 197:/home/vtrnnhlinh/STM32Cube/Repository/STM32Cube_FW_F4_V1.28.0/Drivers/STM32F4xx_HAL_Driver/Src/stm32f4xx_hal_dma_ex.c ****     __HAL_DMA_CLEAR_FLAG (hdma, __HAL_DMA_GET_TE_FLAG_INDEX(hdma));
 1069              		.loc 1 197 5 discriminator 116 view .LVU229
 1070 059c 02F58062 		add	r2, r2, #1024
 1071 05a0 9342     		cmp	r3, r2
 1072 05a2 28D0     		beq	.L147
 197:/home/vtrnnhlinh/STM32Cube/Repository/STM32Cube_FW_F4_V1.28.0/Drivers/STM32F4xx_HAL_Driver/Src/stm32f4xx_hal_dma_ex.c ****     __HAL_DMA_CLEAR_FLAG (hdma, __HAL_DMA_GET_TE_FLAG_INDEX(hdma));
 1073              		.loc 1 197 5 discriminator 118 view .LVU230
 1074 05a4 A2F58962 		sub	r2, r2, #1096
ARM GAS  /tmp/cc92hle1.s 			page 29


 1075 05a8 9342     		cmp	r3, r2
 1076 05aa 27D0     		beq	.L148
 197:/home/vtrnnhlinh/STM32Cube/Repository/STM32Cube_FW_F4_V1.28.0/Drivers/STM32F4xx_HAL_Driver/Src/stm32f4xx_hal_dma_ex.c ****     __HAL_DMA_CLEAR_FLAG (hdma, __HAL_DMA_GET_TE_FLAG_INDEX(hdma));
 1077              		.loc 1 197 5 discriminator 120 view .LVU231
 1078 05ac 02F58062 		add	r2, r2, #1024
 1079 05b0 9342     		cmp	r3, r2
 1080 05b2 26D0     		beq	.L149
 197:/home/vtrnnhlinh/STM32Cube/Repository/STM32Cube_FW_F4_V1.28.0/Drivers/STM32F4xx_HAL_Driver/Src/stm32f4xx_hal_dma_ex.c ****     __HAL_DMA_CLEAR_FLAG (hdma, __HAL_DMA_GET_TE_FLAG_INDEX(hdma));
 1081              		.loc 1 197 5 discriminator 122 view .LVU232
 1082 05b4 A2F56872 		sub	r2, r2, #928
 1083 05b8 9342     		cmp	r3, r2
 1084 05ba 31D0     		beq	.L150
 197:/home/vtrnnhlinh/STM32Cube/Repository/STM32Cube_FW_F4_V1.28.0/Drivers/STM32F4xx_HAL_Driver/Src/stm32f4xx_hal_dma_ex.c ****     __HAL_DMA_CLEAR_FLAG (hdma, __HAL_DMA_GET_TE_FLAG_INDEX(hdma));
 1085              		.loc 1 197 5 discriminator 124 view .LVU233
 1086 05bc 02F58062 		add	r2, r2, #1024
 1087 05c0 9342     		cmp	r3, r2
 1088 05c2 02D0     		beq	.L319
 197:/home/vtrnnhlinh/STM32Cube/Repository/STM32Cube_FW_F4_V1.28.0/Drivers/STM32F4xx_HAL_Driver/Src/stm32f4xx_hal_dma_ex.c ****     __HAL_DMA_CLEAR_FLAG (hdma, __HAL_DMA_GET_TE_FLAG_INDEX(hdma));
 1089              		.loc 1 197 5 view .LVU234
 1090 05c4 4FF08063 		mov	r3, #67108864
 1091 05c8 03E0     		b	.L39
 1092              	.L319:
 1093 05ca 4FF48013 		mov	r3, #1048576
 1094 05ce 00E0     		b	.L39
 1095              	.L140:
 1096 05d0 1023     		movs	r3, #16
 1097              	.L39:
 197:/home/vtrnnhlinh/STM32Cube/Repository/STM32Cube_FW_F4_V1.28.0/Drivers/STM32F4xx_HAL_Driver/Src/stm32f4xx_hal_dma_ex.c ****     __HAL_DMA_CLEAR_FLAG (hdma, __HAL_DMA_GET_TE_FLAG_INDEX(hdma));
 1098              		.loc 1 197 5 discriminator 151 view .LVU235
 1099 05d2 0E4A     		ldr	r2, .L335+4
 1100 05d4 D360     		str	r3, [r2, #12]
 1101 05d6 0DE7     		b	.L35
 1102              	.L141:
 197:/home/vtrnnhlinh/STM32Cube/Repository/STM32Cube_FW_F4_V1.28.0/Drivers/STM32F4xx_HAL_Driver/Src/stm32f4xx_hal_dma_ex.c ****     __HAL_DMA_CLEAR_FLAG (hdma, __HAL_DMA_GET_TE_FLAG_INDEX(hdma));
 1103              		.loc 1 197 5 view .LVU236
 1104 05d8 1023     		movs	r3, #16
 1105 05da FAE7     		b	.L39
 1106              	.L142:
 1107 05dc 1023     		movs	r3, #16
 1108 05de F8E7     		b	.L39
 1109              	.L143:
 1110 05e0 1023     		movs	r3, #16
 1111 05e2 F6E7     		b	.L39
 1112              	.L144:
 1113 05e4 4FF48063 		mov	r3, #1024
 1114 05e8 F3E7     		b	.L39
 1115              	.L145:
 1116 05ea 4FF48063 		mov	r3, #1024
 1117 05ee F0E7     		b	.L39
 1118              	.L146:
 1119 05f0 4FF48063 		mov	r3, #1024
 1120 05f4 EDE7     		b	.L39
 1121              	.L147:
 1122 05f6 4FF48063 		mov	r3, #1024
 1123 05fa EAE7     		b	.L39
 1124              	.L148:
 1125 05fc 4FF48013 		mov	r3, #1048576
ARM GAS  /tmp/cc92hle1.s 			page 30


 1126 0600 E7E7     		b	.L39
 1127              	.L149:
 1128 0602 4FF48013 		mov	r3, #1048576
 1129 0606 E4E7     		b	.L39
 1130              	.L336:
 1131              		.align	2
 1132              	.L335:
 1133 0608 10600240 		.word	1073897488
 1134 060c 00600240 		.word	1073897472
 1135 0610 00640240 		.word	1073898496
 1136 0614 58640240 		.word	1073898584
 1137 0618 B8600240 		.word	1073897656
 1138 061c 58600240 		.word	1073897560
 1139              	.L150:
 1140 0620 4FF48013 		mov	r3, #1048576
 1141 0624 D5E7     		b	.L39
 1142              	.L38:
 197:/home/vtrnnhlinh/STM32Cube/Repository/STM32Cube_FW_F4_V1.28.0/Drivers/STM32F4xx_HAL_Driver/Src/stm32f4xx_hal_dma_ex.c ****     __HAL_DMA_CLEAR_FLAG (hdma, __HAL_DMA_GET_TE_FLAG_INDEX(hdma));
 1143              		.loc 1 197 5 discriminator 103 view .LVU237
 1144 0626 B24A     		ldr	r2, .L337
 1145 0628 9342     		cmp	r3, r2
 1146 062a 31D0     		beq	.L152
 197:/home/vtrnnhlinh/STM32Cube/Repository/STM32Cube_FW_F4_V1.28.0/Drivers/STM32F4xx_HAL_Driver/Src/stm32f4xx_hal_dma_ex.c ****     __HAL_DMA_CLEAR_FLAG (hdma, __HAL_DMA_GET_TE_FLAG_INDEX(hdma));
 1147              		.loc 1 197 5 discriminator 153 view .LVU238
 1148 062c 02F58062 		add	r2, r2, #1024
 1149 0630 9342     		cmp	r3, r2
 1150 0632 31D0     		beq	.L153
 197:/home/vtrnnhlinh/STM32Cube/Repository/STM32Cube_FW_F4_V1.28.0/Drivers/STM32F4xx_HAL_Driver/Src/stm32f4xx_hal_dma_ex.c ****     __HAL_DMA_CLEAR_FLAG (hdma, __HAL_DMA_GET_TE_FLAG_INDEX(hdma));
 1151              		.loc 1 197 5 discriminator 155 view .LVU239
 1152 0634 A2F56872 		sub	r2, r2, #928
 1153 0638 9342     		cmp	r3, r2
 1154 063a 2FD0     		beq	.L154
 197:/home/vtrnnhlinh/STM32Cube/Repository/STM32Cube_FW_F4_V1.28.0/Drivers/STM32F4xx_HAL_Driver/Src/stm32f4xx_hal_dma_ex.c ****     __HAL_DMA_CLEAR_FLAG (hdma, __HAL_DMA_GET_TE_FLAG_INDEX(hdma));
 1155              		.loc 1 197 5 discriminator 157 view .LVU240
 1156 063c 02F58062 		add	r2, r2, #1024
 1157 0640 9342     		cmp	r3, r2
 1158 0642 2DD0     		beq	.L155
 197:/home/vtrnnhlinh/STM32Cube/Repository/STM32Cube_FW_F4_V1.28.0/Drivers/STM32F4xx_HAL_Driver/Src/stm32f4xx_hal_dma_ex.c ****     __HAL_DMA_CLEAR_FLAG (hdma, __HAL_DMA_GET_TE_FLAG_INDEX(hdma));
 1159              		.loc 1 197 5 discriminator 159 view .LVU241
 1160 0644 A2F58962 		sub	r2, r2, #1096
 1161 0648 9342     		cmp	r3, r2
 1162 064a 2BD0     		beq	.L156
 197:/home/vtrnnhlinh/STM32Cube/Repository/STM32Cube_FW_F4_V1.28.0/Drivers/STM32F4xx_HAL_Driver/Src/stm32f4xx_hal_dma_ex.c ****     __HAL_DMA_CLEAR_FLAG (hdma, __HAL_DMA_GET_TE_FLAG_INDEX(hdma));
 1163              		.loc 1 197 5 discriminator 161 view .LVU242
 1164 064c 02F58062 		add	r2, r2, #1024
 1165 0650 9342     		cmp	r3, r2
 1166 0652 2AD0     		beq	.L157
 197:/home/vtrnnhlinh/STM32Cube/Repository/STM32Cube_FW_F4_V1.28.0/Drivers/STM32F4xx_HAL_Driver/Src/stm32f4xx_hal_dma_ex.c ****     __HAL_DMA_CLEAR_FLAG (hdma, __HAL_DMA_GET_TE_FLAG_INDEX(hdma));
 1167              		.loc 1 197 5 discriminator 163 view .LVU243
 1168 0654 A2F56872 		sub	r2, r2, #928
 1169 0658 9342     		cmp	r3, r2
 1170 065a 29D0     		beq	.L158
 197:/home/vtrnnhlinh/STM32Cube/Repository/STM32Cube_FW_F4_V1.28.0/Drivers/STM32F4xx_HAL_Driver/Src/stm32f4xx_hal_dma_ex.c ****     __HAL_DMA_CLEAR_FLAG (hdma, __HAL_DMA_GET_TE_FLAG_INDEX(hdma));
 1171              		.loc 1 197 5 discriminator 165 view .LVU244
 1172 065c 02F58062 		add	r2, r2, #1024
 1173 0660 9342     		cmp	r3, r2
 1174 0662 28D0     		beq	.L159
ARM GAS  /tmp/cc92hle1.s 			page 31


 197:/home/vtrnnhlinh/STM32Cube/Repository/STM32Cube_FW_F4_V1.28.0/Drivers/STM32F4xx_HAL_Driver/Src/stm32f4xx_hal_dma_ex.c ****     __HAL_DMA_CLEAR_FLAG (hdma, __HAL_DMA_GET_TE_FLAG_INDEX(hdma));
 1175              		.loc 1 197 5 discriminator 167 view .LVU245
 1176 0664 A2F58962 		sub	r2, r2, #1096
 1177 0668 9342     		cmp	r3, r2
 1178 066a 27D0     		beq	.L160
 197:/home/vtrnnhlinh/STM32Cube/Repository/STM32Cube_FW_F4_V1.28.0/Drivers/STM32F4xx_HAL_Driver/Src/stm32f4xx_hal_dma_ex.c ****     __HAL_DMA_CLEAR_FLAG (hdma, __HAL_DMA_GET_TE_FLAG_INDEX(hdma));
 1179              		.loc 1 197 5 discriminator 169 view .LVU246
 1180 066c 02F58062 		add	r2, r2, #1024
 1181 0670 9342     		cmp	r3, r2
 1182 0672 26D0     		beq	.L161
 197:/home/vtrnnhlinh/STM32Cube/Repository/STM32Cube_FW_F4_V1.28.0/Drivers/STM32F4xx_HAL_Driver/Src/stm32f4xx_hal_dma_ex.c ****     __HAL_DMA_CLEAR_FLAG (hdma, __HAL_DMA_GET_TE_FLAG_INDEX(hdma));
 1183              		.loc 1 197 5 discriminator 171 view .LVU247
 1184 0674 A2F56872 		sub	r2, r2, #928
 1185 0678 9342     		cmp	r3, r2
 1186 067a 25D0     		beq	.L162
 197:/home/vtrnnhlinh/STM32Cube/Repository/STM32Cube_FW_F4_V1.28.0/Drivers/STM32F4xx_HAL_Driver/Src/stm32f4xx_hal_dma_ex.c ****     __HAL_DMA_CLEAR_FLAG (hdma, __HAL_DMA_GET_TE_FLAG_INDEX(hdma));
 1187              		.loc 1 197 5 discriminator 173 view .LVU248
 1188 067c 02F58062 		add	r2, r2, #1024
 1189 0680 9342     		cmp	r3, r2
 1190 0682 02D0     		beq	.L320
 197:/home/vtrnnhlinh/STM32Cube/Repository/STM32Cube_FW_F4_V1.28.0/Drivers/STM32F4xx_HAL_Driver/Src/stm32f4xx_hal_dma_ex.c ****     __HAL_DMA_CLEAR_FLAG (hdma, __HAL_DMA_GET_TE_FLAG_INDEX(hdma));
 1191              		.loc 1 197 5 view .LVU249
 1192 0684 4FF08063 		mov	r3, #67108864
 1193 0688 03E0     		b	.L40
 1194              	.L320:
 1195 068a 4FF48013 		mov	r3, #1048576
 1196 068e 00E0     		b	.L40
 1197              	.L152:
 1198 0690 1023     		movs	r3, #16
 1199              	.L40:
 197:/home/vtrnnhlinh/STM32Cube/Repository/STM32Cube_FW_F4_V1.28.0/Drivers/STM32F4xx_HAL_Driver/Src/stm32f4xx_hal_dma_ex.c ****     __HAL_DMA_CLEAR_FLAG (hdma, __HAL_DMA_GET_TE_FLAG_INDEX(hdma));
 1200              		.loc 1 197 5 discriminator 200 view .LVU250
 1201 0692 984A     		ldr	r2, .L337+4
 1202 0694 9360     		str	r3, [r2, #8]
 1203 0696 ADE6     		b	.L35
 1204              	.L153:
 197:/home/vtrnnhlinh/STM32Cube/Repository/STM32Cube_FW_F4_V1.28.0/Drivers/STM32F4xx_HAL_Driver/Src/stm32f4xx_hal_dma_ex.c ****     __HAL_DMA_CLEAR_FLAG (hdma, __HAL_DMA_GET_TE_FLAG_INDEX(hdma));
 1205              		.loc 1 197 5 view .LVU251
 1206 0698 1023     		movs	r3, #16
 1207 069a FAE7     		b	.L40
 1208              	.L154:
 1209 069c 1023     		movs	r3, #16
 1210 069e F8E7     		b	.L40
 1211              	.L155:
 1212 06a0 1023     		movs	r3, #16
 1213 06a2 F6E7     		b	.L40
 1214              	.L156:
 1215 06a4 4FF48063 		mov	r3, #1024
 1216 06a8 F3E7     		b	.L40
 1217              	.L157:
 1218 06aa 4FF48063 		mov	r3, #1024
 1219 06ae F0E7     		b	.L40
 1220              	.L158:
 1221 06b0 4FF48063 		mov	r3, #1024
 1222 06b4 EDE7     		b	.L40
 1223              	.L159:
 1224 06b6 4FF48063 		mov	r3, #1024
ARM GAS  /tmp/cc92hle1.s 			page 32


 1225 06ba EAE7     		b	.L40
 1226              	.L160:
 1227 06bc 4FF48013 		mov	r3, #1048576
 1228 06c0 E7E7     		b	.L40
 1229              	.L161:
 1230 06c2 4FF48013 		mov	r3, #1048576
 1231 06c6 E4E7     		b	.L40
 1232              	.L162:
 1233 06c8 4FF48013 		mov	r3, #1048576
 1234 06cc E1E7     		b	.L40
 1235              	.L317:
 198:/home/vtrnnhlinh/STM32Cube/Repository/STM32Cube_FW_F4_V1.28.0/Drivers/STM32F4xx_HAL_Driver/Src/stm32f4xx_hal_dma_ex.c ****     __HAL_DMA_CLEAR_FLAG (hdma, __HAL_DMA_GET_DME_FLAG_INDEX(hdma));
 1236              		.loc 1 198 5 view .LVU252
 1237 06ce 4FF40022 		mov	r2, #524288
 1238 06d2 00E0     		b	.L42
 1239              	.L164:
 1240 06d4 0822     		movs	r2, #8
 1241              	.L42:
 198:/home/vtrnnhlinh/STM32Cube/Repository/STM32Cube_FW_F4_V1.28.0/Drivers/STM32F4xx_HAL_Driver/Src/stm32f4xx_hal_dma_ex.c ****     __HAL_DMA_CLEAR_FLAG (hdma, __HAL_DMA_GET_DME_FLAG_INDEX(hdma));
 1242              		.loc 1 198 5 discriminator 50 view .LVU253
 1243 06d6 884B     		ldr	r3, .L337+8
 1244 06d8 DA60     		str	r2, [r3, #12]
 1245              	.L43:
 199:/home/vtrnnhlinh/STM32Cube/Repository/STM32Cube_FW_F4_V1.28.0/Drivers/STM32F4xx_HAL_Driver/Src/stm32f4xx_hal_dma_ex.c ****     __HAL_DMA_CLEAR_FLAG (hdma, __HAL_DMA_GET_FE_FLAG_INDEX(hdma));
 1246              		.loc 1 199 5 is_stmt 1 view .LVU254
 1247 06da 2368     		ldr	r3, [r4]
 1248 06dc 874A     		ldr	r2, .L337+12
 1249 06de 9342     		cmp	r3, r2
 1250 06e0 40F2CE81 		bls	.L49
 199:/home/vtrnnhlinh/STM32Cube/Repository/STM32Cube_FW_F4_V1.28.0/Drivers/STM32F4xx_HAL_Driver/Src/stm32f4xx_hal_dma_ex.c ****     __HAL_DMA_CLEAR_FLAG (hdma, __HAL_DMA_GET_FE_FLAG_INDEX(hdma));
 1251              		.loc 1 199 5 is_stmt 0 discriminator 1 view .LVU255
 1252 06e4 A2F58962 		sub	r2, r2, #1096
 1253 06e8 9342     		cmp	r3, r2
 1254 06ea 00F06781 		beq	.L212
 199:/home/vtrnnhlinh/STM32Cube/Repository/STM32Cube_FW_F4_V1.28.0/Drivers/STM32F4xx_HAL_Driver/Src/stm32f4xx_hal_dma_ex.c ****     __HAL_DMA_CLEAR_FLAG (hdma, __HAL_DMA_GET_FE_FLAG_INDEX(hdma));
 1255              		.loc 1 199 5 discriminator 3 view .LVU256
 1256 06ee 02F58062 		add	r2, r2, #1024
 1257 06f2 9342     		cmp	r3, r2
 1258 06f4 00F0A981 		beq	.L213
 199:/home/vtrnnhlinh/STM32Cube/Repository/STM32Cube_FW_F4_V1.28.0/Drivers/STM32F4xx_HAL_Driver/Src/stm32f4xx_hal_dma_ex.c ****     __HAL_DMA_CLEAR_FLAG (hdma, __HAL_DMA_GET_FE_FLAG_INDEX(hdma));
 1259              		.loc 1 199 5 discriminator 5 view .LVU257
 1260 06f8 A2F56872 		sub	r2, r2, #928
 1261 06fc 9342     		cmp	r3, r2
 1262 06fe 00F0A681 		beq	.L214
 199:/home/vtrnnhlinh/STM32Cube/Repository/STM32Cube_FW_F4_V1.28.0/Drivers/STM32F4xx_HAL_Driver/Src/stm32f4xx_hal_dma_ex.c ****     __HAL_DMA_CLEAR_FLAG (hdma, __HAL_DMA_GET_FE_FLAG_INDEX(hdma));
 1263              		.loc 1 199 5 discriminator 7 view .LVU258
 1264 0702 02F58062 		add	r2, r2, #1024
 1265 0706 9342     		cmp	r3, r2
 1266 0708 00F0A381 		beq	.L215
 199:/home/vtrnnhlinh/STM32Cube/Repository/STM32Cube_FW_F4_V1.28.0/Drivers/STM32F4xx_HAL_Driver/Src/stm32f4xx_hal_dma_ex.c ****     __HAL_DMA_CLEAR_FLAG (hdma, __HAL_DMA_GET_FE_FLAG_INDEX(hdma));
 1267              		.loc 1 199 5 discriminator 9 view .LVU259
 1268 070c A2F58962 		sub	r2, r2, #1096
 1269 0710 9342     		cmp	r3, r2
 1270 0712 00F0A081 		beq	.L216
 199:/home/vtrnnhlinh/STM32Cube/Repository/STM32Cube_FW_F4_V1.28.0/Drivers/STM32F4xx_HAL_Driver/Src/stm32f4xx_hal_dma_ex.c ****     __HAL_DMA_CLEAR_FLAG (hdma, __HAL_DMA_GET_FE_FLAG_INDEX(hdma));
 1271              		.loc 1 199 5 discriminator 11 view .LVU260
 1272 0716 02F58062 		add	r2, r2, #1024
ARM GAS  /tmp/cc92hle1.s 			page 33


 1273 071a 9342     		cmp	r3, r2
 1274 071c 00F09E81 		beq	.L217
 199:/home/vtrnnhlinh/STM32Cube/Repository/STM32Cube_FW_F4_V1.28.0/Drivers/STM32F4xx_HAL_Driver/Src/stm32f4xx_hal_dma_ex.c ****     __HAL_DMA_CLEAR_FLAG (hdma, __HAL_DMA_GET_FE_FLAG_INDEX(hdma));
 1275              		.loc 1 199 5 discriminator 13 view .LVU261
 1276 0720 A2F56872 		sub	r2, r2, #928
 1277 0724 9342     		cmp	r3, r2
 1278 0726 00F09C81 		beq	.L218
 199:/home/vtrnnhlinh/STM32Cube/Repository/STM32Cube_FW_F4_V1.28.0/Drivers/STM32F4xx_HAL_Driver/Src/stm32f4xx_hal_dma_ex.c ****     __HAL_DMA_CLEAR_FLAG (hdma, __HAL_DMA_GET_FE_FLAG_INDEX(hdma));
 1279              		.loc 1 199 5 discriminator 15 view .LVU262
 1280 072a 02F58062 		add	r2, r2, #1024
 1281 072e 9342     		cmp	r3, r2
 1282 0730 00F09A81 		beq	.L219
 199:/home/vtrnnhlinh/STM32Cube/Repository/STM32Cube_FW_F4_V1.28.0/Drivers/STM32F4xx_HAL_Driver/Src/stm32f4xx_hal_dma_ex.c ****     __HAL_DMA_CLEAR_FLAG (hdma, __HAL_DMA_GET_FE_FLAG_INDEX(hdma));
 1283              		.loc 1 199 5 discriminator 17 view .LVU263
 1284 0734 A2F58962 		sub	r2, r2, #1096
 1285 0738 9342     		cmp	r3, r2
 1286 073a 00F09881 		beq	.L220
 199:/home/vtrnnhlinh/STM32Cube/Repository/STM32Cube_FW_F4_V1.28.0/Drivers/STM32F4xx_HAL_Driver/Src/stm32f4xx_hal_dma_ex.c ****     __HAL_DMA_CLEAR_FLAG (hdma, __HAL_DMA_GET_FE_FLAG_INDEX(hdma));
 1287              		.loc 1 199 5 discriminator 19 view .LVU264
 1288 073e 02F58062 		add	r2, r2, #1024
 1289 0742 9342     		cmp	r3, r2
 1290 0744 00F09681 		beq	.L221
 199:/home/vtrnnhlinh/STM32Cube/Repository/STM32Cube_FW_F4_V1.28.0/Drivers/STM32F4xx_HAL_Driver/Src/stm32f4xx_hal_dma_ex.c ****     __HAL_DMA_CLEAR_FLAG (hdma, __HAL_DMA_GET_FE_FLAG_INDEX(hdma));
 1291              		.loc 1 199 5 discriminator 21 view .LVU265
 1292 0748 A2F56872 		sub	r2, r2, #928
 1293 074c 9342     		cmp	r3, r2
 1294 074e 00F09481 		beq	.L222
 199:/home/vtrnnhlinh/STM32Cube/Repository/STM32Cube_FW_F4_V1.28.0/Drivers/STM32F4xx_HAL_Driver/Src/stm32f4xx_hal_dma_ex.c ****     __HAL_DMA_CLEAR_FLAG (hdma, __HAL_DMA_GET_FE_FLAG_INDEX(hdma));
 1295              		.loc 1 199 5 discriminator 23 view .LVU266
 1296 0752 02F58062 		add	r2, r2, #1024
 1297 0756 9342     		cmp	r3, r2
 1298 0758 00F02D81 		beq	.L321
 199:/home/vtrnnhlinh/STM32Cube/Repository/STM32Cube_FW_F4_V1.28.0/Drivers/STM32F4xx_HAL_Driver/Src/stm32f4xx_hal_dma_ex.c ****     __HAL_DMA_CLEAR_FLAG (hdma, __HAL_DMA_GET_FE_FLAG_INDEX(hdma));
 1299              		.loc 1 199 5 view .LVU267
 1300 075c 4FF08072 		mov	r2, #16777216
 1301 0760 2DE1     		b	.L50
 1302              	.L165:
 198:/home/vtrnnhlinh/STM32Cube/Repository/STM32Cube_FW_F4_V1.28.0/Drivers/STM32F4xx_HAL_Driver/Src/stm32f4xx_hal_dma_ex.c ****     __HAL_DMA_CLEAR_FLAG (hdma, __HAL_DMA_GET_DME_FLAG_INDEX(hdma));
 1303              		.loc 1 198 5 view .LVU268
 1304 0762 0822     		movs	r2, #8
 1305 0764 B7E7     		b	.L42
 1306              	.L166:
 1307 0766 0822     		movs	r2, #8
 1308 0768 B5E7     		b	.L42
 1309              	.L167:
 1310 076a 0822     		movs	r2, #8
 1311 076c B3E7     		b	.L42
 1312              	.L168:
 1313 076e 4FF40072 		mov	r2, #512
 1314 0772 B0E7     		b	.L42
 1315              	.L169:
 1316 0774 4FF40072 		mov	r2, #512
 1317 0778 ADE7     		b	.L42
 1318              	.L170:
 1319 077a 4FF40072 		mov	r2, #512
 1320 077e AAE7     		b	.L42
 1321              	.L171:
ARM GAS  /tmp/cc92hle1.s 			page 34


 1322 0780 4FF40072 		mov	r2, #512
 1323 0784 A7E7     		b	.L42
 1324              	.L172:
 1325 0786 4FF40022 		mov	r2, #524288
 1326 078a A4E7     		b	.L42
 1327              	.L173:
 1328 078c 4FF40022 		mov	r2, #524288
 1329 0790 A1E7     		b	.L42
 1330              	.L174:
 1331 0792 4FF40022 		mov	r2, #524288
 1332 0796 9EE7     		b	.L42
 1333              	.L41:
 198:/home/vtrnnhlinh/STM32Cube/Repository/STM32Cube_FW_F4_V1.28.0/Drivers/STM32F4xx_HAL_Driver/Src/stm32f4xx_hal_dma_ex.c ****     __HAL_DMA_CLEAR_FLAG (hdma, __HAL_DMA_GET_DME_FLAG_INDEX(hdma));
 1334              		.loc 1 198 5 discriminator 2 view .LVU269
 1335 0798 594A     		ldr	r2, .L337+16
 1336 079a 9342     		cmp	r3, r2
 1337 079c 53D9     		bls	.L44
 198:/home/vtrnnhlinh/STM32Cube/Repository/STM32Cube_FW_F4_V1.28.0/Drivers/STM32F4xx_HAL_Driver/Src/stm32f4xx_hal_dma_ex.c ****     __HAL_DMA_CLEAR_FLAG (hdma, __HAL_DMA_GET_DME_FLAG_INDEX(hdma));
 1338              		.loc 1 198 5 discriminator 51 view .LVU270
 1339 079e A83A     		subs	r2, r2, #168
 1340 07a0 9342     		cmp	r3, r2
 1341 07a2 31D0     		beq	.L176
 198:/home/vtrnnhlinh/STM32Cube/Repository/STM32Cube_FW_F4_V1.28.0/Drivers/STM32F4xx_HAL_Driver/Src/stm32f4xx_hal_dma_ex.c ****     __HAL_DMA_CLEAR_FLAG (hdma, __HAL_DMA_GET_DME_FLAG_INDEX(hdma));
 1342              		.loc 1 198 5 discriminator 53 view .LVU271
 1343 07a4 02F58062 		add	r2, r2, #1024
 1344 07a8 9342     		cmp	r3, r2
 1345 07aa 31D0     		beq	.L177
 198:/home/vtrnnhlinh/STM32Cube/Repository/STM32Cube_FW_F4_V1.28.0/Drivers/STM32F4xx_HAL_Driver/Src/stm32f4xx_hal_dma_ex.c ****     __HAL_DMA_CLEAR_FLAG (hdma, __HAL_DMA_GET_DME_FLAG_INDEX(hdma));
 1346              		.loc 1 198 5 discriminator 55 view .LVU272
 1347 07ac A2F56872 		sub	r2, r2, #928
 1348 07b0 9342     		cmp	r3, r2
 1349 07b2 2FD0     		beq	.L178
 198:/home/vtrnnhlinh/STM32Cube/Repository/STM32Cube_FW_F4_V1.28.0/Drivers/STM32F4xx_HAL_Driver/Src/stm32f4xx_hal_dma_ex.c ****     __HAL_DMA_CLEAR_FLAG (hdma, __HAL_DMA_GET_DME_FLAG_INDEX(hdma));
 1350              		.loc 1 198 5 discriminator 57 view .LVU273
 1351 07b4 02F58062 		add	r2, r2, #1024
 1352 07b8 9342     		cmp	r3, r2
 1353 07ba 2DD0     		beq	.L179
 198:/home/vtrnnhlinh/STM32Cube/Repository/STM32Cube_FW_F4_V1.28.0/Drivers/STM32F4xx_HAL_Driver/Src/stm32f4xx_hal_dma_ex.c ****     __HAL_DMA_CLEAR_FLAG (hdma, __HAL_DMA_GET_DME_FLAG_INDEX(hdma));
 1354              		.loc 1 198 5 discriminator 59 view .LVU274
 1355 07bc A2F58962 		sub	r2, r2, #1096
 1356 07c0 9342     		cmp	r3, r2
 1357 07c2 2BD0     		beq	.L180
 198:/home/vtrnnhlinh/STM32Cube/Repository/STM32Cube_FW_F4_V1.28.0/Drivers/STM32F4xx_HAL_Driver/Src/stm32f4xx_hal_dma_ex.c ****     __HAL_DMA_CLEAR_FLAG (hdma, __HAL_DMA_GET_DME_FLAG_INDEX(hdma));
 1358              		.loc 1 198 5 discriminator 61 view .LVU275
 1359 07c4 02F58062 		add	r2, r2, #1024
 1360 07c8 9342     		cmp	r3, r2
 1361 07ca 2AD0     		beq	.L181
 198:/home/vtrnnhlinh/STM32Cube/Repository/STM32Cube_FW_F4_V1.28.0/Drivers/STM32F4xx_HAL_Driver/Src/stm32f4xx_hal_dma_ex.c ****     __HAL_DMA_CLEAR_FLAG (hdma, __HAL_DMA_GET_DME_FLAG_INDEX(hdma));
 1362              		.loc 1 198 5 discriminator 63 view .LVU276
 1363 07cc A2F56872 		sub	r2, r2, #928
 1364 07d0 9342     		cmp	r3, r2
 1365 07d2 29D0     		beq	.L182
 198:/home/vtrnnhlinh/STM32Cube/Repository/STM32Cube_FW_F4_V1.28.0/Drivers/STM32F4xx_HAL_Driver/Src/stm32f4xx_hal_dma_ex.c ****     __HAL_DMA_CLEAR_FLAG (hdma, __HAL_DMA_GET_DME_FLAG_INDEX(hdma));
 1366              		.loc 1 198 5 discriminator 65 view .LVU277
 1367 07d4 02F58062 		add	r2, r2, #1024
 1368 07d8 9342     		cmp	r3, r2
 1369 07da 28D0     		beq	.L183
ARM GAS  /tmp/cc92hle1.s 			page 35


 198:/home/vtrnnhlinh/STM32Cube/Repository/STM32Cube_FW_F4_V1.28.0/Drivers/STM32F4xx_HAL_Driver/Src/stm32f4xx_hal_dma_ex.c ****     __HAL_DMA_CLEAR_FLAG (hdma, __HAL_DMA_GET_DME_FLAG_INDEX(hdma));
 1370              		.loc 1 198 5 discriminator 67 view .LVU278
 1371 07dc A2F58962 		sub	r2, r2, #1096
 1372 07e0 9342     		cmp	r3, r2
 1373 07e2 27D0     		beq	.L184
 198:/home/vtrnnhlinh/STM32Cube/Repository/STM32Cube_FW_F4_V1.28.0/Drivers/STM32F4xx_HAL_Driver/Src/stm32f4xx_hal_dma_ex.c ****     __HAL_DMA_CLEAR_FLAG (hdma, __HAL_DMA_GET_DME_FLAG_INDEX(hdma));
 1374              		.loc 1 198 5 discriminator 69 view .LVU279
 1375 07e4 02F58062 		add	r2, r2, #1024
 1376 07e8 9342     		cmp	r3, r2
 1377 07ea 26D0     		beq	.L185
 198:/home/vtrnnhlinh/STM32Cube/Repository/STM32Cube_FW_F4_V1.28.0/Drivers/STM32F4xx_HAL_Driver/Src/stm32f4xx_hal_dma_ex.c ****     __HAL_DMA_CLEAR_FLAG (hdma, __HAL_DMA_GET_DME_FLAG_INDEX(hdma));
 1378              		.loc 1 198 5 discriminator 71 view .LVU280
 1379 07ec A2F56872 		sub	r2, r2, #928
 1380 07f0 9342     		cmp	r3, r2
 1381 07f2 25D0     		beq	.L186
 198:/home/vtrnnhlinh/STM32Cube/Repository/STM32Cube_FW_F4_V1.28.0/Drivers/STM32F4xx_HAL_Driver/Src/stm32f4xx_hal_dma_ex.c ****     __HAL_DMA_CLEAR_FLAG (hdma, __HAL_DMA_GET_DME_FLAG_INDEX(hdma));
 1382              		.loc 1 198 5 discriminator 73 view .LVU281
 1383 07f4 02F58062 		add	r2, r2, #1024
 1384 07f8 9342     		cmp	r3, r2
 1385 07fa 02D0     		beq	.L322
 198:/home/vtrnnhlinh/STM32Cube/Repository/STM32Cube_FW_F4_V1.28.0/Drivers/STM32F4xx_HAL_Driver/Src/stm32f4xx_hal_dma_ex.c ****     __HAL_DMA_CLEAR_FLAG (hdma, __HAL_DMA_GET_DME_FLAG_INDEX(hdma));
 1386              		.loc 1 198 5 view .LVU282
 1387 07fc 4FF00073 		mov	r3, #33554432
 1388 0800 03E0     		b	.L45
 1389              	.L322:
 1390 0802 4FF40023 		mov	r3, #524288
 1391 0806 00E0     		b	.L45
 1392              	.L176:
 1393 0808 0823     		movs	r3, #8
 1394              	.L45:
 198:/home/vtrnnhlinh/STM32Cube/Repository/STM32Cube_FW_F4_V1.28.0/Drivers/STM32F4xx_HAL_Driver/Src/stm32f4xx_hal_dma_ex.c ****     __HAL_DMA_CLEAR_FLAG (hdma, __HAL_DMA_GET_DME_FLAG_INDEX(hdma));
 1395              		.loc 1 198 5 discriminator 100 view .LVU283
 1396 080a 3B4A     		ldr	r2, .L337+8
 1397 080c 9360     		str	r3, [r2, #8]
 1398 080e 64E7     		b	.L43
 1399              	.L177:
 198:/home/vtrnnhlinh/STM32Cube/Repository/STM32Cube_FW_F4_V1.28.0/Drivers/STM32F4xx_HAL_Driver/Src/stm32f4xx_hal_dma_ex.c ****     __HAL_DMA_CLEAR_FLAG (hdma, __HAL_DMA_GET_DME_FLAG_INDEX(hdma));
 1400              		.loc 1 198 5 view .LVU284
 1401 0810 0823     		movs	r3, #8
 1402 0812 FAE7     		b	.L45
 1403              	.L178:
 1404 0814 0823     		movs	r3, #8
 1405 0816 F8E7     		b	.L45
 1406              	.L179:
 1407 0818 0823     		movs	r3, #8
 1408 081a F6E7     		b	.L45
 1409              	.L180:
 1410 081c 4FF40073 		mov	r3, #512
 1411 0820 F3E7     		b	.L45
 1412              	.L181:
 1413 0822 4FF40073 		mov	r3, #512
 1414 0826 F0E7     		b	.L45
 1415              	.L182:
 1416 0828 4FF40073 		mov	r3, #512
 1417 082c EDE7     		b	.L45
 1418              	.L183:
 1419 082e 4FF40073 		mov	r3, #512
ARM GAS  /tmp/cc92hle1.s 			page 36


 1420 0832 EAE7     		b	.L45
 1421              	.L184:
 1422 0834 4FF40023 		mov	r3, #524288
 1423 0838 E7E7     		b	.L45
 1424              	.L185:
 1425 083a 4FF40023 		mov	r3, #524288
 1426 083e E4E7     		b	.L45
 1427              	.L186:
 1428 0840 4FF40023 		mov	r3, #524288
 1429 0844 E1E7     		b	.L45
 1430              	.L44:
 198:/home/vtrnnhlinh/STM32Cube/Repository/STM32Cube_FW_F4_V1.28.0/Drivers/STM32F4xx_HAL_Driver/Src/stm32f4xx_hal_dma_ex.c ****     __HAL_DMA_CLEAR_FLAG (hdma, __HAL_DMA_GET_DME_FLAG_INDEX(hdma));
 1431              		.loc 1 198 5 discriminator 52 view .LVU285
 1432 0846 2F4A     		ldr	r2, .L337+20
 1433 0848 9342     		cmp	r3, r2
 1434 084a 60D9     		bls	.L46
 198:/home/vtrnnhlinh/STM32Cube/Repository/STM32Cube_FW_F4_V1.28.0/Drivers/STM32F4xx_HAL_Driver/Src/stm32f4xx_hal_dma_ex.c ****     __HAL_DMA_CLEAR_FLAG (hdma, __HAL_DMA_GET_DME_FLAG_INDEX(hdma));
 1435              		.loc 1 198 5 discriminator 102 view .LVU286
 1436 084c 483A     		subs	r2, r2, #72
 1437 084e 9342     		cmp	r3, r2
 1438 0850 31D0     		beq	.L188
 198:/home/vtrnnhlinh/STM32Cube/Repository/STM32Cube_FW_F4_V1.28.0/Drivers/STM32F4xx_HAL_Driver/Src/stm32f4xx_hal_dma_ex.c ****     __HAL_DMA_CLEAR_FLAG (hdma, __HAL_DMA_GET_DME_FLAG_INDEX(hdma));
 1439              		.loc 1 198 5 discriminator 104 view .LVU287
 1440 0852 02F58062 		add	r2, r2, #1024
 1441 0856 9342     		cmp	r3, r2
 1442 0858 31D0     		beq	.L189
 198:/home/vtrnnhlinh/STM32Cube/Repository/STM32Cube_FW_F4_V1.28.0/Drivers/STM32F4xx_HAL_Driver/Src/stm32f4xx_hal_dma_ex.c ****     __HAL_DMA_CLEAR_FLAG (hdma, __HAL_DMA_GET_DME_FLAG_INDEX(hdma));
 1443              		.loc 1 198 5 discriminator 106 view .LVU288
 1444 085a A2F56872 		sub	r2, r2, #928
 1445 085e 9342     		cmp	r3, r2
 1446 0860 2FD0     		beq	.L190
 198:/home/vtrnnhlinh/STM32Cube/Repository/STM32Cube_FW_F4_V1.28.0/Drivers/STM32F4xx_HAL_Driver/Src/stm32f4xx_hal_dma_ex.c ****     __HAL_DMA_CLEAR_FLAG (hdma, __HAL_DMA_GET_DME_FLAG_INDEX(hdma));
 1447              		.loc 1 198 5 discriminator 108 view .LVU289
 1448 0862 02F58062 		add	r2, r2, #1024
 1449 0866 9342     		cmp	r3, r2
 1450 0868 2DD0     		beq	.L191
 198:/home/vtrnnhlinh/STM32Cube/Repository/STM32Cube_FW_F4_V1.28.0/Drivers/STM32F4xx_HAL_Driver/Src/stm32f4xx_hal_dma_ex.c ****     __HAL_DMA_CLEAR_FLAG (hdma, __HAL_DMA_GET_DME_FLAG_INDEX(hdma));
 1451              		.loc 1 198 5 discriminator 110 view .LVU290
 1452 086a A2F58962 		sub	r2, r2, #1096
 1453 086e 9342     		cmp	r3, r2
 1454 0870 2BD0     		beq	.L192
 198:/home/vtrnnhlinh/STM32Cube/Repository/STM32Cube_FW_F4_V1.28.0/Drivers/STM32F4xx_HAL_Driver/Src/stm32f4xx_hal_dma_ex.c ****     __HAL_DMA_CLEAR_FLAG (hdma, __HAL_DMA_GET_DME_FLAG_INDEX(hdma));
 1455              		.loc 1 198 5 discriminator 112 view .LVU291
 1456 0872 02F58062 		add	r2, r2, #1024
 1457 0876 9342     		cmp	r3, r2
 1458 0878 2AD0     		beq	.L193
 198:/home/vtrnnhlinh/STM32Cube/Repository/STM32Cube_FW_F4_V1.28.0/Drivers/STM32F4xx_HAL_Driver/Src/stm32f4xx_hal_dma_ex.c ****     __HAL_DMA_CLEAR_FLAG (hdma, __HAL_DMA_GET_DME_FLAG_INDEX(hdma));
 1459              		.loc 1 198 5 discriminator 114 view .LVU292
 1460 087a A2F56872 		sub	r2, r2, #928
 1461 087e 9342     		cmp	r3, r2
 1462 0880 29D0     		beq	.L194
 198:/home/vtrnnhlinh/STM32Cube/Repository/STM32Cube_FW_F4_V1.28.0/Drivers/STM32F4xx_HAL_Driver/Src/stm32f4xx_hal_dma_ex.c ****     __HAL_DMA_CLEAR_FLAG (hdma, __HAL_DMA_GET_DME_FLAG_INDEX(hdma));
 1463              		.loc 1 198 5 discriminator 116 view .LVU293
 1464 0882 02F58062 		add	r2, r2, #1024
 1465 0886 9342     		cmp	r3, r2
 1466 0888 28D0     		beq	.L195
 198:/home/vtrnnhlinh/STM32Cube/Repository/STM32Cube_FW_F4_V1.28.0/Drivers/STM32F4xx_HAL_Driver/Src/stm32f4xx_hal_dma_ex.c ****     __HAL_DMA_CLEAR_FLAG (hdma, __HAL_DMA_GET_DME_FLAG_INDEX(hdma));
ARM GAS  /tmp/cc92hle1.s 			page 37


 1467              		.loc 1 198 5 discriminator 118 view .LVU294
 1468 088a A2F58962 		sub	r2, r2, #1096
 1469 088e 9342     		cmp	r3, r2
 1470 0890 27D0     		beq	.L196
 198:/home/vtrnnhlinh/STM32Cube/Repository/STM32Cube_FW_F4_V1.28.0/Drivers/STM32F4xx_HAL_Driver/Src/stm32f4xx_hal_dma_ex.c ****     __HAL_DMA_CLEAR_FLAG (hdma, __HAL_DMA_GET_DME_FLAG_INDEX(hdma));
 1471              		.loc 1 198 5 discriminator 120 view .LVU295
 1472 0892 02F58062 		add	r2, r2, #1024
 1473 0896 9342     		cmp	r3, r2
 1474 0898 26D0     		beq	.L197
 198:/home/vtrnnhlinh/STM32Cube/Repository/STM32Cube_FW_F4_V1.28.0/Drivers/STM32F4xx_HAL_Driver/Src/stm32f4xx_hal_dma_ex.c ****     __HAL_DMA_CLEAR_FLAG (hdma, __HAL_DMA_GET_DME_FLAG_INDEX(hdma));
 1475              		.loc 1 198 5 discriminator 122 view .LVU296
 1476 089a A2F56872 		sub	r2, r2, #928
 1477 089e 9342     		cmp	r3, r2
 1478 08a0 32D0     		beq	.L198
 198:/home/vtrnnhlinh/STM32Cube/Repository/STM32Cube_FW_F4_V1.28.0/Drivers/STM32F4xx_HAL_Driver/Src/stm32f4xx_hal_dma_ex.c ****     __HAL_DMA_CLEAR_FLAG (hdma, __HAL_DMA_GET_DME_FLAG_INDEX(hdma));
 1479              		.loc 1 198 5 discriminator 124 view .LVU297
 1480 08a2 02F58062 		add	r2, r2, #1024
 1481 08a6 9342     		cmp	r3, r2
 1482 08a8 02D0     		beq	.L323
 198:/home/vtrnnhlinh/STM32Cube/Repository/STM32Cube_FW_F4_V1.28.0/Drivers/STM32F4xx_HAL_Driver/Src/stm32f4xx_hal_dma_ex.c ****     __HAL_DMA_CLEAR_FLAG (hdma, __HAL_DMA_GET_DME_FLAG_INDEX(hdma));
 1483              		.loc 1 198 5 view .LVU298
 1484 08aa 4FF00073 		mov	r3, #33554432
 1485 08ae 03E0     		b	.L47
 1486              	.L323:
 1487 08b0 4FF40023 		mov	r3, #524288
 1488 08b4 00E0     		b	.L47
 1489              	.L188:
 1490 08b6 0823     		movs	r3, #8
 1491              	.L47:
 198:/home/vtrnnhlinh/STM32Cube/Repository/STM32Cube_FW_F4_V1.28.0/Drivers/STM32F4xx_HAL_Driver/Src/stm32f4xx_hal_dma_ex.c ****     __HAL_DMA_CLEAR_FLAG (hdma, __HAL_DMA_GET_DME_FLAG_INDEX(hdma));
 1492              		.loc 1 198 5 discriminator 151 view .LVU299
 1493 08b8 0E4A     		ldr	r2, .L337+4
 1494 08ba D360     		str	r3, [r2, #12]
 1495 08bc 0DE7     		b	.L43
 1496              	.L189:
 198:/home/vtrnnhlinh/STM32Cube/Repository/STM32Cube_FW_F4_V1.28.0/Drivers/STM32F4xx_HAL_Driver/Src/stm32f4xx_hal_dma_ex.c ****     __HAL_DMA_CLEAR_FLAG (hdma, __HAL_DMA_GET_DME_FLAG_INDEX(hdma));
 1497              		.loc 1 198 5 view .LVU300
 1498 08be 0823     		movs	r3, #8
 1499 08c0 FAE7     		b	.L47
 1500              	.L190:
 1501 08c2 0823     		movs	r3, #8
 1502 08c4 F8E7     		b	.L47
 1503              	.L191:
 1504 08c6 0823     		movs	r3, #8
 1505 08c8 F6E7     		b	.L47
 1506              	.L192:
 1507 08ca 4FF40073 		mov	r3, #512
 1508 08ce F3E7     		b	.L47
 1509              	.L193:
 1510 08d0 4FF40073 		mov	r3, #512
 1511 08d4 F0E7     		b	.L47
 1512              	.L194:
 1513 08d6 4FF40073 		mov	r3, #512
 1514 08da EDE7     		b	.L47
 1515              	.L195:
 1516 08dc 4FF40073 		mov	r3, #512
 1517 08e0 EAE7     		b	.L47
ARM GAS  /tmp/cc92hle1.s 			page 38


 1518              	.L196:
 1519 08e2 4FF40023 		mov	r3, #524288
 1520 08e6 E7E7     		b	.L47
 1521              	.L197:
 1522 08e8 4FF40023 		mov	r3, #524288
 1523 08ec E4E7     		b	.L47
 1524              	.L338:
 1525 08ee 00BF     		.align	2
 1526              	.L337:
 1527 08f0 10600240 		.word	1073897488
 1528 08f4 00600240 		.word	1073897472
 1529 08f8 00640240 		.word	1073898496
 1530 08fc 58640240 		.word	1073898584
 1531 0900 B8600240 		.word	1073897656
 1532 0904 58600240 		.word	1073897560
 1533              	.L198:
 1534 0908 4FF40023 		mov	r3, #524288
 1535 090c D4E7     		b	.L47
 1536              	.L46:
 198:/home/vtrnnhlinh/STM32Cube/Repository/STM32Cube_FW_F4_V1.28.0/Drivers/STM32F4xx_HAL_Driver/Src/stm32f4xx_hal_dma_ex.c ****     __HAL_DMA_CLEAR_FLAG (hdma, __HAL_DMA_GET_DME_FLAG_INDEX(hdma));
 1537              		.loc 1 198 5 discriminator 103 view .LVU301
 1538 090e B24A     		ldr	r2, .L339
 1539 0910 9342     		cmp	r3, r2
 1540 0912 31D0     		beq	.L200
 198:/home/vtrnnhlinh/STM32Cube/Repository/STM32Cube_FW_F4_V1.28.0/Drivers/STM32F4xx_HAL_Driver/Src/stm32f4xx_hal_dma_ex.c ****     __HAL_DMA_CLEAR_FLAG (hdma, __HAL_DMA_GET_DME_FLAG_INDEX(hdma));
 1541              		.loc 1 198 5 discriminator 153 view .LVU302
 1542 0914 02F58062 		add	r2, r2, #1024
 1543 0918 9342     		cmp	r3, r2
 1544 091a 31D0     		beq	.L201
 198:/home/vtrnnhlinh/STM32Cube/Repository/STM32Cube_FW_F4_V1.28.0/Drivers/STM32F4xx_HAL_Driver/Src/stm32f4xx_hal_dma_ex.c ****     __HAL_DMA_CLEAR_FLAG (hdma, __HAL_DMA_GET_DME_FLAG_INDEX(hdma));
 1545              		.loc 1 198 5 discriminator 155 view .LVU303
 1546 091c A2F56872 		sub	r2, r2, #928
 1547 0920 9342     		cmp	r3, r2
 1548 0922 2FD0     		beq	.L202
 198:/home/vtrnnhlinh/STM32Cube/Repository/STM32Cube_FW_F4_V1.28.0/Drivers/STM32F4xx_HAL_Driver/Src/stm32f4xx_hal_dma_ex.c ****     __HAL_DMA_CLEAR_FLAG (hdma, __HAL_DMA_GET_DME_FLAG_INDEX(hdma));
 1549              		.loc 1 198 5 discriminator 157 view .LVU304
 1550 0924 02F58062 		add	r2, r2, #1024
 1551 0928 9342     		cmp	r3, r2
 1552 092a 2DD0     		beq	.L203
 198:/home/vtrnnhlinh/STM32Cube/Repository/STM32Cube_FW_F4_V1.28.0/Drivers/STM32F4xx_HAL_Driver/Src/stm32f4xx_hal_dma_ex.c ****     __HAL_DMA_CLEAR_FLAG (hdma, __HAL_DMA_GET_DME_FLAG_INDEX(hdma));
 1553              		.loc 1 198 5 discriminator 159 view .LVU305
 1554 092c A2F58962 		sub	r2, r2, #1096
 1555 0930 9342     		cmp	r3, r2
 1556 0932 2BD0     		beq	.L204
 198:/home/vtrnnhlinh/STM32Cube/Repository/STM32Cube_FW_F4_V1.28.0/Drivers/STM32F4xx_HAL_Driver/Src/stm32f4xx_hal_dma_ex.c ****     __HAL_DMA_CLEAR_FLAG (hdma, __HAL_DMA_GET_DME_FLAG_INDEX(hdma));
 1557              		.loc 1 198 5 discriminator 161 view .LVU306
 1558 0934 02F58062 		add	r2, r2, #1024
 1559 0938 9342     		cmp	r3, r2
 1560 093a 2AD0     		beq	.L205
 198:/home/vtrnnhlinh/STM32Cube/Repository/STM32Cube_FW_F4_V1.28.0/Drivers/STM32F4xx_HAL_Driver/Src/stm32f4xx_hal_dma_ex.c ****     __HAL_DMA_CLEAR_FLAG (hdma, __HAL_DMA_GET_DME_FLAG_INDEX(hdma));
 1561              		.loc 1 198 5 discriminator 163 view .LVU307
 1562 093c A2F56872 		sub	r2, r2, #928
 1563 0940 9342     		cmp	r3, r2
 1564 0942 29D0     		beq	.L206
 198:/home/vtrnnhlinh/STM32Cube/Repository/STM32Cube_FW_F4_V1.28.0/Drivers/STM32F4xx_HAL_Driver/Src/stm32f4xx_hal_dma_ex.c ****     __HAL_DMA_CLEAR_FLAG (hdma, __HAL_DMA_GET_DME_FLAG_INDEX(hdma));
 1565              		.loc 1 198 5 discriminator 165 view .LVU308
 1566 0944 02F58062 		add	r2, r2, #1024
ARM GAS  /tmp/cc92hle1.s 			page 39


 1567 0948 9342     		cmp	r3, r2
 1568 094a 28D0     		beq	.L207
 198:/home/vtrnnhlinh/STM32Cube/Repository/STM32Cube_FW_F4_V1.28.0/Drivers/STM32F4xx_HAL_Driver/Src/stm32f4xx_hal_dma_ex.c ****     __HAL_DMA_CLEAR_FLAG (hdma, __HAL_DMA_GET_DME_FLAG_INDEX(hdma));
 1569              		.loc 1 198 5 discriminator 167 view .LVU309
 1570 094c A2F58962 		sub	r2, r2, #1096
 1571 0950 9342     		cmp	r3, r2
 1572 0952 27D0     		beq	.L208
 198:/home/vtrnnhlinh/STM32Cube/Repository/STM32Cube_FW_F4_V1.28.0/Drivers/STM32F4xx_HAL_Driver/Src/stm32f4xx_hal_dma_ex.c ****     __HAL_DMA_CLEAR_FLAG (hdma, __HAL_DMA_GET_DME_FLAG_INDEX(hdma));
 1573              		.loc 1 198 5 discriminator 169 view .LVU310
 1574 0954 02F58062 		add	r2, r2, #1024
 1575 0958 9342     		cmp	r3, r2
 1576 095a 26D0     		beq	.L209
 198:/home/vtrnnhlinh/STM32Cube/Repository/STM32Cube_FW_F4_V1.28.0/Drivers/STM32F4xx_HAL_Driver/Src/stm32f4xx_hal_dma_ex.c ****     __HAL_DMA_CLEAR_FLAG (hdma, __HAL_DMA_GET_DME_FLAG_INDEX(hdma));
 1577              		.loc 1 198 5 discriminator 171 view .LVU311
 1578 095c A2F56872 		sub	r2, r2, #928
 1579 0960 9342     		cmp	r3, r2
 1580 0962 25D0     		beq	.L210
 198:/home/vtrnnhlinh/STM32Cube/Repository/STM32Cube_FW_F4_V1.28.0/Drivers/STM32F4xx_HAL_Driver/Src/stm32f4xx_hal_dma_ex.c ****     __HAL_DMA_CLEAR_FLAG (hdma, __HAL_DMA_GET_DME_FLAG_INDEX(hdma));
 1581              		.loc 1 198 5 discriminator 173 view .LVU312
 1582 0964 02F58062 		add	r2, r2, #1024
 1583 0968 9342     		cmp	r3, r2
 1584 096a 02D0     		beq	.L324
 198:/home/vtrnnhlinh/STM32Cube/Repository/STM32Cube_FW_F4_V1.28.0/Drivers/STM32F4xx_HAL_Driver/Src/stm32f4xx_hal_dma_ex.c ****     __HAL_DMA_CLEAR_FLAG (hdma, __HAL_DMA_GET_DME_FLAG_INDEX(hdma));
 1585              		.loc 1 198 5 view .LVU313
 1586 096c 4FF00073 		mov	r3, #33554432
 1587 0970 03E0     		b	.L48
 1588              	.L324:
 1589 0972 4FF40023 		mov	r3, #524288
 1590 0976 00E0     		b	.L48
 1591              	.L200:
 1592 0978 0823     		movs	r3, #8
 1593              	.L48:
 198:/home/vtrnnhlinh/STM32Cube/Repository/STM32Cube_FW_F4_V1.28.0/Drivers/STM32F4xx_HAL_Driver/Src/stm32f4xx_hal_dma_ex.c ****     __HAL_DMA_CLEAR_FLAG (hdma, __HAL_DMA_GET_DME_FLAG_INDEX(hdma));
 1594              		.loc 1 198 5 discriminator 200 view .LVU314
 1595 097a 984A     		ldr	r2, .L339+4
 1596 097c 9360     		str	r3, [r2, #8]
 1597 097e ACE6     		b	.L43
 1598              	.L201:
 198:/home/vtrnnhlinh/STM32Cube/Repository/STM32Cube_FW_F4_V1.28.0/Drivers/STM32F4xx_HAL_Driver/Src/stm32f4xx_hal_dma_ex.c ****     __HAL_DMA_CLEAR_FLAG (hdma, __HAL_DMA_GET_DME_FLAG_INDEX(hdma));
 1599              		.loc 1 198 5 view .LVU315
 1600 0980 0823     		movs	r3, #8
 1601 0982 FAE7     		b	.L48
 1602              	.L202:
 1603 0984 0823     		movs	r3, #8
 1604 0986 F8E7     		b	.L48
 1605              	.L203:
 1606 0988 0823     		movs	r3, #8
 1607 098a F6E7     		b	.L48
 1608              	.L204:
 1609 098c 4FF40073 		mov	r3, #512
 1610 0990 F3E7     		b	.L48
 1611              	.L205:
 1612 0992 4FF40073 		mov	r3, #512
 1613 0996 F0E7     		b	.L48
 1614              	.L206:
 1615 0998 4FF40073 		mov	r3, #512
 1616 099c EDE7     		b	.L48
ARM GAS  /tmp/cc92hle1.s 			page 40


 1617              	.L207:
 1618 099e 4FF40073 		mov	r3, #512
 1619 09a2 EAE7     		b	.L48
 1620              	.L208:
 1621 09a4 4FF40023 		mov	r3, #524288
 1622 09a8 E7E7     		b	.L48
 1623              	.L209:
 1624 09aa 4FF40023 		mov	r3, #524288
 1625 09ae E4E7     		b	.L48
 1626              	.L210:
 1627 09b0 4FF40023 		mov	r3, #524288
 1628 09b4 E1E7     		b	.L48
 1629              	.L321:
 199:/home/vtrnnhlinh/STM32Cube/Repository/STM32Cube_FW_F4_V1.28.0/Drivers/STM32F4xx_HAL_Driver/Src/stm32f4xx_hal_dma_ex.c ****     __HAL_DMA_CLEAR_FLAG (hdma, __HAL_DMA_GET_FE_FLAG_INDEX(hdma));
 1630              		.loc 1 199 5 view .LVU316
 1631 09b6 4FF48022 		mov	r2, #262144
 1632 09ba 00E0     		b	.L50
 1633              	.L212:
 1634 09bc 0422     		movs	r2, #4
 1635              	.L50:
 199:/home/vtrnnhlinh/STM32Cube/Repository/STM32Cube_FW_F4_V1.28.0/Drivers/STM32F4xx_HAL_Driver/Src/stm32f4xx_hal_dma_ex.c ****     __HAL_DMA_CLEAR_FLAG (hdma, __HAL_DMA_GET_FE_FLAG_INDEX(hdma));
 1636              		.loc 1 199 5 discriminator 50 view .LVU317
 1637 09be 884B     		ldr	r3, .L339+8
 1638 09c0 DA60     		str	r2, [r3, #12]
 1639              	.L51:
 200:/home/vtrnnhlinh/STM32Cube/Repository/STM32Cube_FW_F4_V1.28.0/Drivers/STM32F4xx_HAL_Driver/Src/stm32f4xx_hal_dma_ex.c **** 
 1640              		.loc 1 200 5 is_stmt 1 view .LVU318
 1641 09c2 2368     		ldr	r3, [r4]
 1642 09c4 874A     		ldr	r2, .L339+12
 1643 09c6 9342     		cmp	r3, r2
 1644 09c8 40F2A181 		bls	.L57
 200:/home/vtrnnhlinh/STM32Cube/Repository/STM32Cube_FW_F4_V1.28.0/Drivers/STM32F4xx_HAL_Driver/Src/stm32f4xx_hal_dma_ex.c **** 
 1645              		.loc 1 200 5 is_stmt 0 discriminator 1 view .LVU319
 1646 09cc A2F58962 		sub	r2, r2, #1096
 1647 09d0 9342     		cmp	r3, r2
 1648 09d2 00F06781 		beq	.L260
 200:/home/vtrnnhlinh/STM32Cube/Repository/STM32Cube_FW_F4_V1.28.0/Drivers/STM32F4xx_HAL_Driver/Src/stm32f4xx_hal_dma_ex.c **** 
 1649              		.loc 1 200 5 discriminator 3 view .LVU320
 1650 09d6 02F58062 		add	r2, r2, #1024
 1651 09da 9342     		cmp	r3, r2
 1652 09dc 00F08081 		beq	.L261
 200:/home/vtrnnhlinh/STM32Cube/Repository/STM32Cube_FW_F4_V1.28.0/Drivers/STM32F4xx_HAL_Driver/Src/stm32f4xx_hal_dma_ex.c **** 
 1653              		.loc 1 200 5 discriminator 5 view .LVU321
 1654 09e0 A2F56872 		sub	r2, r2, #928
 1655 09e4 9342     		cmp	r3, r2
 1656 09e6 00F07D81 		beq	.L262
 200:/home/vtrnnhlinh/STM32Cube/Repository/STM32Cube_FW_F4_V1.28.0/Drivers/STM32F4xx_HAL_Driver/Src/stm32f4xx_hal_dma_ex.c **** 
 1657              		.loc 1 200 5 discriminator 7 view .LVU322
 1658 09ea 02F58062 		add	r2, r2, #1024
 1659 09ee 9342     		cmp	r3, r2
 1660 09f0 00F07A81 		beq	.L263
 200:/home/vtrnnhlinh/STM32Cube/Repository/STM32Cube_FW_F4_V1.28.0/Drivers/STM32F4xx_HAL_Driver/Src/stm32f4xx_hal_dma_ex.c **** 
 1661              		.loc 1 200 5 discriminator 9 view .LVU323
 1662 09f4 A2F58962 		sub	r2, r2, #1096
 1663 09f8 9342     		cmp	r3, r2
 1664 09fa 00F07781 		beq	.L264
 200:/home/vtrnnhlinh/STM32Cube/Repository/STM32Cube_FW_F4_V1.28.0/Drivers/STM32F4xx_HAL_Driver/Src/stm32f4xx_hal_dma_ex.c **** 
ARM GAS  /tmp/cc92hle1.s 			page 41


 1665              		.loc 1 200 5 discriminator 11 view .LVU324
 1666 09fe 02F58062 		add	r2, r2, #1024
 1667 0a02 9342     		cmp	r3, r2
 1668 0a04 00F07481 		beq	.L265
 200:/home/vtrnnhlinh/STM32Cube/Repository/STM32Cube_FW_F4_V1.28.0/Drivers/STM32F4xx_HAL_Driver/Src/stm32f4xx_hal_dma_ex.c **** 
 1669              		.loc 1 200 5 discriminator 13 view .LVU325
 1670 0a08 A2F56872 		sub	r2, r2, #928
 1671 0a0c 9342     		cmp	r3, r2
 1672 0a0e 00F07181 		beq	.L266
 200:/home/vtrnnhlinh/STM32Cube/Repository/STM32Cube_FW_F4_V1.28.0/Drivers/STM32F4xx_HAL_Driver/Src/stm32f4xx_hal_dma_ex.c **** 
 1673              		.loc 1 200 5 discriminator 15 view .LVU326
 1674 0a12 02F58062 		add	r2, r2, #1024
 1675 0a16 9342     		cmp	r3, r2
 1676 0a18 00F06E81 		beq	.L267
 200:/home/vtrnnhlinh/STM32Cube/Repository/STM32Cube_FW_F4_V1.28.0/Drivers/STM32F4xx_HAL_Driver/Src/stm32f4xx_hal_dma_ex.c **** 
 1677              		.loc 1 200 5 discriminator 17 view .LVU327
 1678 0a1c A2F58962 		sub	r2, r2, #1096
 1679 0a20 9342     		cmp	r3, r2
 1680 0a22 00F06B81 		beq	.L268
 200:/home/vtrnnhlinh/STM32Cube/Repository/STM32Cube_FW_F4_V1.28.0/Drivers/STM32F4xx_HAL_Driver/Src/stm32f4xx_hal_dma_ex.c **** 
 1681              		.loc 1 200 5 discriminator 19 view .LVU328
 1682 0a26 02F58062 		add	r2, r2, #1024
 1683 0a2a 9342     		cmp	r3, r2
 1684 0a2c 00F06981 		beq	.L269
 200:/home/vtrnnhlinh/STM32Cube/Repository/STM32Cube_FW_F4_V1.28.0/Drivers/STM32F4xx_HAL_Driver/Src/stm32f4xx_hal_dma_ex.c **** 
 1685              		.loc 1 200 5 discriminator 21 view .LVU329
 1686 0a30 A2F56872 		sub	r2, r2, #928
 1687 0a34 9342     		cmp	r3, r2
 1688 0a36 00F06781 		beq	.L270
 200:/home/vtrnnhlinh/STM32Cube/Repository/STM32Cube_FW_F4_V1.28.0/Drivers/STM32F4xx_HAL_Driver/Src/stm32f4xx_hal_dma_ex.c **** 
 1689              		.loc 1 200 5 discriminator 23 view .LVU330
 1690 0a3a 02F58062 		add	r2, r2, #1024
 1691 0a3e 9342     		cmp	r3, r2
 1692 0a40 00F02D81 		beq	.L325
 200:/home/vtrnnhlinh/STM32Cube/Repository/STM32Cube_FW_F4_V1.28.0/Drivers/STM32F4xx_HAL_Driver/Src/stm32f4xx_hal_dma_ex.c **** 
 1693              		.loc 1 200 5 view .LVU331
 1694 0a44 4FF48002 		mov	r2, #4194304
 1695 0a48 2DE1     		b	.L58
 1696              	.L213:
 199:/home/vtrnnhlinh/STM32Cube/Repository/STM32Cube_FW_F4_V1.28.0/Drivers/STM32F4xx_HAL_Driver/Src/stm32f4xx_hal_dma_ex.c ****     __HAL_DMA_CLEAR_FLAG (hdma, __HAL_DMA_GET_FE_FLAG_INDEX(hdma));
 1697              		.loc 1 199 5 view .LVU332
 1698 0a4a 0422     		movs	r2, #4
 1699 0a4c B7E7     		b	.L50
 1700              	.L214:
 1701 0a4e 0422     		movs	r2, #4
 1702 0a50 B5E7     		b	.L50
 1703              	.L215:
 1704 0a52 0422     		movs	r2, #4
 1705 0a54 B3E7     		b	.L50
 1706              	.L216:
 1707 0a56 4FF48072 		mov	r2, #256
 1708 0a5a B0E7     		b	.L50
 1709              	.L217:
 1710 0a5c 4FF48072 		mov	r2, #256
 1711 0a60 ADE7     		b	.L50
 1712              	.L218:
 1713 0a62 4FF48072 		mov	r2, #256
ARM GAS  /tmp/cc92hle1.s 			page 42


 1714 0a66 AAE7     		b	.L50
 1715              	.L219:
 1716 0a68 4FF48072 		mov	r2, #256
 1717 0a6c A7E7     		b	.L50
 1718              	.L220:
 1719 0a6e 4FF48022 		mov	r2, #262144
 1720 0a72 A4E7     		b	.L50
 1721              	.L221:
 1722 0a74 4FF48022 		mov	r2, #262144
 1723 0a78 A1E7     		b	.L50
 1724              	.L222:
 1725 0a7a 4FF48022 		mov	r2, #262144
 1726 0a7e 9EE7     		b	.L50
 1727              	.L49:
 199:/home/vtrnnhlinh/STM32Cube/Repository/STM32Cube_FW_F4_V1.28.0/Drivers/STM32F4xx_HAL_Driver/Src/stm32f4xx_hal_dma_ex.c ****     __HAL_DMA_CLEAR_FLAG (hdma, __HAL_DMA_GET_FE_FLAG_INDEX(hdma));
 1728              		.loc 1 199 5 discriminator 2 view .LVU333
 1729 0a80 594A     		ldr	r2, .L339+16
 1730 0a82 9342     		cmp	r3, r2
 1731 0a84 53D9     		bls	.L52
 199:/home/vtrnnhlinh/STM32Cube/Repository/STM32Cube_FW_F4_V1.28.0/Drivers/STM32F4xx_HAL_Driver/Src/stm32f4xx_hal_dma_ex.c ****     __HAL_DMA_CLEAR_FLAG (hdma, __HAL_DMA_GET_FE_FLAG_INDEX(hdma));
 1732              		.loc 1 199 5 discriminator 51 view .LVU334
 1733 0a86 A83A     		subs	r2, r2, #168
 1734 0a88 9342     		cmp	r3, r2
 1735 0a8a 31D0     		beq	.L224
 199:/home/vtrnnhlinh/STM32Cube/Repository/STM32Cube_FW_F4_V1.28.0/Drivers/STM32F4xx_HAL_Driver/Src/stm32f4xx_hal_dma_ex.c ****     __HAL_DMA_CLEAR_FLAG (hdma, __HAL_DMA_GET_FE_FLAG_INDEX(hdma));
 1736              		.loc 1 199 5 discriminator 53 view .LVU335
 1737 0a8c 02F58062 		add	r2, r2, #1024
 1738 0a90 9342     		cmp	r3, r2
 1739 0a92 31D0     		beq	.L225
 199:/home/vtrnnhlinh/STM32Cube/Repository/STM32Cube_FW_F4_V1.28.0/Drivers/STM32F4xx_HAL_Driver/Src/stm32f4xx_hal_dma_ex.c ****     __HAL_DMA_CLEAR_FLAG (hdma, __HAL_DMA_GET_FE_FLAG_INDEX(hdma));
 1740              		.loc 1 199 5 discriminator 55 view .LVU336
 1741 0a94 A2F56872 		sub	r2, r2, #928
 1742 0a98 9342     		cmp	r3, r2
 1743 0a9a 2FD0     		beq	.L226
 199:/home/vtrnnhlinh/STM32Cube/Repository/STM32Cube_FW_F4_V1.28.0/Drivers/STM32F4xx_HAL_Driver/Src/stm32f4xx_hal_dma_ex.c ****     __HAL_DMA_CLEAR_FLAG (hdma, __HAL_DMA_GET_FE_FLAG_INDEX(hdma));
 1744              		.loc 1 199 5 discriminator 57 view .LVU337
 1745 0a9c 02F58062 		add	r2, r2, #1024
 1746 0aa0 9342     		cmp	r3, r2
 1747 0aa2 2DD0     		beq	.L227
 199:/home/vtrnnhlinh/STM32Cube/Repository/STM32Cube_FW_F4_V1.28.0/Drivers/STM32F4xx_HAL_Driver/Src/stm32f4xx_hal_dma_ex.c ****     __HAL_DMA_CLEAR_FLAG (hdma, __HAL_DMA_GET_FE_FLAG_INDEX(hdma));
 1748              		.loc 1 199 5 discriminator 59 view .LVU338
 1749 0aa4 A2F58962 		sub	r2, r2, #1096
 1750 0aa8 9342     		cmp	r3, r2
 1751 0aaa 2BD0     		beq	.L228
 199:/home/vtrnnhlinh/STM32Cube/Repository/STM32Cube_FW_F4_V1.28.0/Drivers/STM32F4xx_HAL_Driver/Src/stm32f4xx_hal_dma_ex.c ****     __HAL_DMA_CLEAR_FLAG (hdma, __HAL_DMA_GET_FE_FLAG_INDEX(hdma));
 1752              		.loc 1 199 5 discriminator 61 view .LVU339
 1753 0aac 02F58062 		add	r2, r2, #1024
 1754 0ab0 9342     		cmp	r3, r2
 1755 0ab2 2AD0     		beq	.L229
 199:/home/vtrnnhlinh/STM32Cube/Repository/STM32Cube_FW_F4_V1.28.0/Drivers/STM32F4xx_HAL_Driver/Src/stm32f4xx_hal_dma_ex.c ****     __HAL_DMA_CLEAR_FLAG (hdma, __HAL_DMA_GET_FE_FLAG_INDEX(hdma));
 1756              		.loc 1 199 5 discriminator 63 view .LVU340
 1757 0ab4 A2F56872 		sub	r2, r2, #928
 1758 0ab8 9342     		cmp	r3, r2
 1759 0aba 29D0     		beq	.L230
 199:/home/vtrnnhlinh/STM32Cube/Repository/STM32Cube_FW_F4_V1.28.0/Drivers/STM32F4xx_HAL_Driver/Src/stm32f4xx_hal_dma_ex.c ****     __HAL_DMA_CLEAR_FLAG (hdma, __HAL_DMA_GET_FE_FLAG_INDEX(hdma));
 1760              		.loc 1 199 5 discriminator 65 view .LVU341
 1761 0abc 02F58062 		add	r2, r2, #1024
ARM GAS  /tmp/cc92hle1.s 			page 43


 1762 0ac0 9342     		cmp	r3, r2
 1763 0ac2 28D0     		beq	.L231
 199:/home/vtrnnhlinh/STM32Cube/Repository/STM32Cube_FW_F4_V1.28.0/Drivers/STM32F4xx_HAL_Driver/Src/stm32f4xx_hal_dma_ex.c ****     __HAL_DMA_CLEAR_FLAG (hdma, __HAL_DMA_GET_FE_FLAG_INDEX(hdma));
 1764              		.loc 1 199 5 discriminator 67 view .LVU342
 1765 0ac4 A2F58962 		sub	r2, r2, #1096
 1766 0ac8 9342     		cmp	r3, r2
 1767 0aca 27D0     		beq	.L232
 199:/home/vtrnnhlinh/STM32Cube/Repository/STM32Cube_FW_F4_V1.28.0/Drivers/STM32F4xx_HAL_Driver/Src/stm32f4xx_hal_dma_ex.c ****     __HAL_DMA_CLEAR_FLAG (hdma, __HAL_DMA_GET_FE_FLAG_INDEX(hdma));
 1768              		.loc 1 199 5 discriminator 69 view .LVU343
 1769 0acc 02F58062 		add	r2, r2, #1024
 1770 0ad0 9342     		cmp	r3, r2
 1771 0ad2 26D0     		beq	.L233
 199:/home/vtrnnhlinh/STM32Cube/Repository/STM32Cube_FW_F4_V1.28.0/Drivers/STM32F4xx_HAL_Driver/Src/stm32f4xx_hal_dma_ex.c ****     __HAL_DMA_CLEAR_FLAG (hdma, __HAL_DMA_GET_FE_FLAG_INDEX(hdma));
 1772              		.loc 1 199 5 discriminator 71 view .LVU344
 1773 0ad4 A2F56872 		sub	r2, r2, #928
 1774 0ad8 9342     		cmp	r3, r2
 1775 0ada 25D0     		beq	.L234
 199:/home/vtrnnhlinh/STM32Cube/Repository/STM32Cube_FW_F4_V1.28.0/Drivers/STM32F4xx_HAL_Driver/Src/stm32f4xx_hal_dma_ex.c ****     __HAL_DMA_CLEAR_FLAG (hdma, __HAL_DMA_GET_FE_FLAG_INDEX(hdma));
 1776              		.loc 1 199 5 discriminator 73 view .LVU345
 1777 0adc 02F58062 		add	r2, r2, #1024
 1778 0ae0 9342     		cmp	r3, r2
 1779 0ae2 02D0     		beq	.L326
 199:/home/vtrnnhlinh/STM32Cube/Repository/STM32Cube_FW_F4_V1.28.0/Drivers/STM32F4xx_HAL_Driver/Src/stm32f4xx_hal_dma_ex.c ****     __HAL_DMA_CLEAR_FLAG (hdma, __HAL_DMA_GET_FE_FLAG_INDEX(hdma));
 1780              		.loc 1 199 5 view .LVU346
 1781 0ae4 4FF08073 		mov	r3, #16777216
 1782 0ae8 03E0     		b	.L53
 1783              	.L326:
 1784 0aea 4FF48023 		mov	r3, #262144
 1785 0aee 00E0     		b	.L53
 1786              	.L224:
 1787 0af0 0423     		movs	r3, #4
 1788              	.L53:
 199:/home/vtrnnhlinh/STM32Cube/Repository/STM32Cube_FW_F4_V1.28.0/Drivers/STM32F4xx_HAL_Driver/Src/stm32f4xx_hal_dma_ex.c ****     __HAL_DMA_CLEAR_FLAG (hdma, __HAL_DMA_GET_FE_FLAG_INDEX(hdma));
 1789              		.loc 1 199 5 discriminator 100 view .LVU347
 1790 0af2 3B4A     		ldr	r2, .L339+8
 1791 0af4 9360     		str	r3, [r2, #8]
 1792 0af6 64E7     		b	.L51
 1793              	.L225:
 199:/home/vtrnnhlinh/STM32Cube/Repository/STM32Cube_FW_F4_V1.28.0/Drivers/STM32F4xx_HAL_Driver/Src/stm32f4xx_hal_dma_ex.c ****     __HAL_DMA_CLEAR_FLAG (hdma, __HAL_DMA_GET_FE_FLAG_INDEX(hdma));
 1794              		.loc 1 199 5 view .LVU348
 1795 0af8 0423     		movs	r3, #4
 1796 0afa FAE7     		b	.L53
 1797              	.L226:
 1798 0afc 0423     		movs	r3, #4
 1799 0afe F8E7     		b	.L53
 1800              	.L227:
 1801 0b00 0423     		movs	r3, #4
 1802 0b02 F6E7     		b	.L53
 1803              	.L228:
 1804 0b04 4FF48073 		mov	r3, #256
 1805 0b08 F3E7     		b	.L53
 1806              	.L229:
 1807 0b0a 4FF48073 		mov	r3, #256
 1808 0b0e F0E7     		b	.L53
 1809              	.L230:
 1810 0b10 4FF48073 		mov	r3, #256
 1811 0b14 EDE7     		b	.L53
ARM GAS  /tmp/cc92hle1.s 			page 44


 1812              	.L231:
 1813 0b16 4FF48073 		mov	r3, #256
 1814 0b1a EAE7     		b	.L53
 1815              	.L232:
 1816 0b1c 4FF48023 		mov	r3, #262144
 1817 0b20 E7E7     		b	.L53
 1818              	.L233:
 1819 0b22 4FF48023 		mov	r3, #262144
 1820 0b26 E4E7     		b	.L53
 1821              	.L234:
 1822 0b28 4FF48023 		mov	r3, #262144
 1823 0b2c E1E7     		b	.L53
 1824              	.L52:
 199:/home/vtrnnhlinh/STM32Cube/Repository/STM32Cube_FW_F4_V1.28.0/Drivers/STM32F4xx_HAL_Driver/Src/stm32f4xx_hal_dma_ex.c ****     __HAL_DMA_CLEAR_FLAG (hdma, __HAL_DMA_GET_FE_FLAG_INDEX(hdma));
 1825              		.loc 1 199 5 discriminator 52 view .LVU349
 1826 0b2e 2F4A     		ldr	r2, .L339+20
 1827 0b30 9342     		cmp	r3, r2
 1828 0b32 60D9     		bls	.L54
 199:/home/vtrnnhlinh/STM32Cube/Repository/STM32Cube_FW_F4_V1.28.0/Drivers/STM32F4xx_HAL_Driver/Src/stm32f4xx_hal_dma_ex.c ****     __HAL_DMA_CLEAR_FLAG (hdma, __HAL_DMA_GET_FE_FLAG_INDEX(hdma));
 1829              		.loc 1 199 5 discriminator 102 view .LVU350
 1830 0b34 483A     		subs	r2, r2, #72
 1831 0b36 9342     		cmp	r3, r2
 1832 0b38 31D0     		beq	.L236
 199:/home/vtrnnhlinh/STM32Cube/Repository/STM32Cube_FW_F4_V1.28.0/Drivers/STM32F4xx_HAL_Driver/Src/stm32f4xx_hal_dma_ex.c ****     __HAL_DMA_CLEAR_FLAG (hdma, __HAL_DMA_GET_FE_FLAG_INDEX(hdma));
 1833              		.loc 1 199 5 discriminator 104 view .LVU351
 1834 0b3a 02F58062 		add	r2, r2, #1024
 1835 0b3e 9342     		cmp	r3, r2
 1836 0b40 31D0     		beq	.L237
 199:/home/vtrnnhlinh/STM32Cube/Repository/STM32Cube_FW_F4_V1.28.0/Drivers/STM32F4xx_HAL_Driver/Src/stm32f4xx_hal_dma_ex.c ****     __HAL_DMA_CLEAR_FLAG (hdma, __HAL_DMA_GET_FE_FLAG_INDEX(hdma));
 1837              		.loc 1 199 5 discriminator 106 view .LVU352
 1838 0b42 A2F56872 		sub	r2, r2, #928
 1839 0b46 9342     		cmp	r3, r2
 1840 0b48 2FD0     		beq	.L238
 199:/home/vtrnnhlinh/STM32Cube/Repository/STM32Cube_FW_F4_V1.28.0/Drivers/STM32F4xx_HAL_Driver/Src/stm32f4xx_hal_dma_ex.c ****     __HAL_DMA_CLEAR_FLAG (hdma, __HAL_DMA_GET_FE_FLAG_INDEX(hdma));
 1841              		.loc 1 199 5 discriminator 108 view .LVU353
 1842 0b4a 02F58062 		add	r2, r2, #1024
 1843 0b4e 9342     		cmp	r3, r2
 1844 0b50 2DD0     		beq	.L239
 199:/home/vtrnnhlinh/STM32Cube/Repository/STM32Cube_FW_F4_V1.28.0/Drivers/STM32F4xx_HAL_Driver/Src/stm32f4xx_hal_dma_ex.c ****     __HAL_DMA_CLEAR_FLAG (hdma, __HAL_DMA_GET_FE_FLAG_INDEX(hdma));
 1845              		.loc 1 199 5 discriminator 110 view .LVU354
 1846 0b52 A2F58962 		sub	r2, r2, #1096
 1847 0b56 9342     		cmp	r3, r2
 1848 0b58 2BD0     		beq	.L240
 199:/home/vtrnnhlinh/STM32Cube/Repository/STM32Cube_FW_F4_V1.28.0/Drivers/STM32F4xx_HAL_Driver/Src/stm32f4xx_hal_dma_ex.c ****     __HAL_DMA_CLEAR_FLAG (hdma, __HAL_DMA_GET_FE_FLAG_INDEX(hdma));
 1849              		.loc 1 199 5 discriminator 112 view .LVU355
 1850 0b5a 02F58062 		add	r2, r2, #1024
 1851 0b5e 9342     		cmp	r3, r2
 1852 0b60 2AD0     		beq	.L241
 199:/home/vtrnnhlinh/STM32Cube/Repository/STM32Cube_FW_F4_V1.28.0/Drivers/STM32F4xx_HAL_Driver/Src/stm32f4xx_hal_dma_ex.c ****     __HAL_DMA_CLEAR_FLAG (hdma, __HAL_DMA_GET_FE_FLAG_INDEX(hdma));
 1853              		.loc 1 199 5 discriminator 114 view .LVU356
 1854 0b62 A2F56872 		sub	r2, r2, #928
 1855 0b66 9342     		cmp	r3, r2
 1856 0b68 29D0     		beq	.L242
 199:/home/vtrnnhlinh/STM32Cube/Repository/STM32Cube_FW_F4_V1.28.0/Drivers/STM32F4xx_HAL_Driver/Src/stm32f4xx_hal_dma_ex.c ****     __HAL_DMA_CLEAR_FLAG (hdma, __HAL_DMA_GET_FE_FLAG_INDEX(hdma));
 1857              		.loc 1 199 5 discriminator 116 view .LVU357
 1858 0b6a 02F58062 		add	r2, r2, #1024
 1859 0b6e 9342     		cmp	r3, r2
ARM GAS  /tmp/cc92hle1.s 			page 45


 1860 0b70 28D0     		beq	.L243
 199:/home/vtrnnhlinh/STM32Cube/Repository/STM32Cube_FW_F4_V1.28.0/Drivers/STM32F4xx_HAL_Driver/Src/stm32f4xx_hal_dma_ex.c ****     __HAL_DMA_CLEAR_FLAG (hdma, __HAL_DMA_GET_FE_FLAG_INDEX(hdma));
 1861              		.loc 1 199 5 discriminator 118 view .LVU358
 1862 0b72 A2F58962 		sub	r2, r2, #1096
 1863 0b76 9342     		cmp	r3, r2
 1864 0b78 27D0     		beq	.L244
 199:/home/vtrnnhlinh/STM32Cube/Repository/STM32Cube_FW_F4_V1.28.0/Drivers/STM32F4xx_HAL_Driver/Src/stm32f4xx_hal_dma_ex.c ****     __HAL_DMA_CLEAR_FLAG (hdma, __HAL_DMA_GET_FE_FLAG_INDEX(hdma));
 1865              		.loc 1 199 5 discriminator 120 view .LVU359
 1866 0b7a 02F58062 		add	r2, r2, #1024
 1867 0b7e 9342     		cmp	r3, r2
 1868 0b80 26D0     		beq	.L245
 199:/home/vtrnnhlinh/STM32Cube/Repository/STM32Cube_FW_F4_V1.28.0/Drivers/STM32F4xx_HAL_Driver/Src/stm32f4xx_hal_dma_ex.c ****     __HAL_DMA_CLEAR_FLAG (hdma, __HAL_DMA_GET_FE_FLAG_INDEX(hdma));
 1869              		.loc 1 199 5 discriminator 122 view .LVU360
 1870 0b82 A2F56872 		sub	r2, r2, #928
 1871 0b86 9342     		cmp	r3, r2
 1872 0b88 32D0     		beq	.L246
 199:/home/vtrnnhlinh/STM32Cube/Repository/STM32Cube_FW_F4_V1.28.0/Drivers/STM32F4xx_HAL_Driver/Src/stm32f4xx_hal_dma_ex.c ****     __HAL_DMA_CLEAR_FLAG (hdma, __HAL_DMA_GET_FE_FLAG_INDEX(hdma));
 1873              		.loc 1 199 5 discriminator 124 view .LVU361
 1874 0b8a 02F58062 		add	r2, r2, #1024
 1875 0b8e 9342     		cmp	r3, r2
 1876 0b90 02D0     		beq	.L327
 199:/home/vtrnnhlinh/STM32Cube/Repository/STM32Cube_FW_F4_V1.28.0/Drivers/STM32F4xx_HAL_Driver/Src/stm32f4xx_hal_dma_ex.c ****     __HAL_DMA_CLEAR_FLAG (hdma, __HAL_DMA_GET_FE_FLAG_INDEX(hdma));
 1877              		.loc 1 199 5 view .LVU362
 1878 0b92 4FF08073 		mov	r3, #16777216
 1879 0b96 03E0     		b	.L55
 1880              	.L327:
 1881 0b98 4FF48023 		mov	r3, #262144
 1882 0b9c 00E0     		b	.L55
 1883              	.L236:
 1884 0b9e 0423     		movs	r3, #4
 1885              	.L55:
 199:/home/vtrnnhlinh/STM32Cube/Repository/STM32Cube_FW_F4_V1.28.0/Drivers/STM32F4xx_HAL_Driver/Src/stm32f4xx_hal_dma_ex.c ****     __HAL_DMA_CLEAR_FLAG (hdma, __HAL_DMA_GET_FE_FLAG_INDEX(hdma));
 1886              		.loc 1 199 5 discriminator 151 view .LVU363
 1887 0ba0 0E4A     		ldr	r2, .L339+4
 1888 0ba2 D360     		str	r3, [r2, #12]
 1889 0ba4 0DE7     		b	.L51
 1890              	.L237:
 199:/home/vtrnnhlinh/STM32Cube/Repository/STM32Cube_FW_F4_V1.28.0/Drivers/STM32F4xx_HAL_Driver/Src/stm32f4xx_hal_dma_ex.c ****     __HAL_DMA_CLEAR_FLAG (hdma, __HAL_DMA_GET_FE_FLAG_INDEX(hdma));
 1891              		.loc 1 199 5 view .LVU364
 1892 0ba6 0423     		movs	r3, #4
 1893 0ba8 FAE7     		b	.L55
 1894              	.L238:
 1895 0baa 0423     		movs	r3, #4
 1896 0bac F8E7     		b	.L55
 1897              	.L239:
 1898 0bae 0423     		movs	r3, #4
 1899 0bb0 F6E7     		b	.L55
 1900              	.L240:
 1901 0bb2 4FF48073 		mov	r3, #256
 1902 0bb6 F3E7     		b	.L55
 1903              	.L241:
 1904 0bb8 4FF48073 		mov	r3, #256
 1905 0bbc F0E7     		b	.L55
 1906              	.L242:
 1907 0bbe 4FF48073 		mov	r3, #256
 1908 0bc2 EDE7     		b	.L55
 1909              	.L243:
ARM GAS  /tmp/cc92hle1.s 			page 46


 1910 0bc4 4FF48073 		mov	r3, #256
 1911 0bc8 EAE7     		b	.L55
 1912              	.L244:
 1913 0bca 4FF48023 		mov	r3, #262144
 1914 0bce E7E7     		b	.L55
 1915              	.L245:
 1916 0bd0 4FF48023 		mov	r3, #262144
 1917 0bd4 E4E7     		b	.L55
 1918              	.L340:
 1919 0bd6 00BF     		.align	2
 1920              	.L339:
 1921 0bd8 10600240 		.word	1073897488
 1922 0bdc 00600240 		.word	1073897472
 1923 0be0 00640240 		.word	1073898496
 1924 0be4 58640240 		.word	1073898584
 1925 0be8 B8600240 		.word	1073897656
 1926 0bec 58600240 		.word	1073897560
 1927              	.L246:
 1928 0bf0 4FF48023 		mov	r3, #262144
 1929 0bf4 D4E7     		b	.L55
 1930              	.L54:
 199:/home/vtrnnhlinh/STM32Cube/Repository/STM32Cube_FW_F4_V1.28.0/Drivers/STM32F4xx_HAL_Driver/Src/stm32f4xx_hal_dma_ex.c ****     __HAL_DMA_CLEAR_FLAG (hdma, __HAL_DMA_GET_FE_FLAG_INDEX(hdma));
 1931              		.loc 1 199 5 discriminator 103 view .LVU365
 1932 0bf6 994A     		ldr	r2, .L341
 1933 0bf8 9342     		cmp	r3, r2
 1934 0bfa 31D0     		beq	.L248
 199:/home/vtrnnhlinh/STM32Cube/Repository/STM32Cube_FW_F4_V1.28.0/Drivers/STM32F4xx_HAL_Driver/Src/stm32f4xx_hal_dma_ex.c ****     __HAL_DMA_CLEAR_FLAG (hdma, __HAL_DMA_GET_FE_FLAG_INDEX(hdma));
 1935              		.loc 1 199 5 discriminator 153 view .LVU366
 1936 0bfc 02F58062 		add	r2, r2, #1024
 1937 0c00 9342     		cmp	r3, r2
 1938 0c02 31D0     		beq	.L249
 199:/home/vtrnnhlinh/STM32Cube/Repository/STM32Cube_FW_F4_V1.28.0/Drivers/STM32F4xx_HAL_Driver/Src/stm32f4xx_hal_dma_ex.c ****     __HAL_DMA_CLEAR_FLAG (hdma, __HAL_DMA_GET_FE_FLAG_INDEX(hdma));
 1939              		.loc 1 199 5 discriminator 155 view .LVU367
 1940 0c04 A2F56872 		sub	r2, r2, #928
 1941 0c08 9342     		cmp	r3, r2
 1942 0c0a 2FD0     		beq	.L250
 199:/home/vtrnnhlinh/STM32Cube/Repository/STM32Cube_FW_F4_V1.28.0/Drivers/STM32F4xx_HAL_Driver/Src/stm32f4xx_hal_dma_ex.c ****     __HAL_DMA_CLEAR_FLAG (hdma, __HAL_DMA_GET_FE_FLAG_INDEX(hdma));
 1943              		.loc 1 199 5 discriminator 157 view .LVU368
 1944 0c0c 02F58062 		add	r2, r2, #1024
 1945 0c10 9342     		cmp	r3, r2
 1946 0c12 2DD0     		beq	.L251
 199:/home/vtrnnhlinh/STM32Cube/Repository/STM32Cube_FW_F4_V1.28.0/Drivers/STM32F4xx_HAL_Driver/Src/stm32f4xx_hal_dma_ex.c ****     __HAL_DMA_CLEAR_FLAG (hdma, __HAL_DMA_GET_FE_FLAG_INDEX(hdma));
 1947              		.loc 1 199 5 discriminator 159 view .LVU369
 1948 0c14 A2F58962 		sub	r2, r2, #1096
 1949 0c18 9342     		cmp	r3, r2
 1950 0c1a 2BD0     		beq	.L252
 199:/home/vtrnnhlinh/STM32Cube/Repository/STM32Cube_FW_F4_V1.28.0/Drivers/STM32F4xx_HAL_Driver/Src/stm32f4xx_hal_dma_ex.c ****     __HAL_DMA_CLEAR_FLAG (hdma, __HAL_DMA_GET_FE_FLAG_INDEX(hdma));
 1951              		.loc 1 199 5 discriminator 161 view .LVU370
 1952 0c1c 02F58062 		add	r2, r2, #1024
 1953 0c20 9342     		cmp	r3, r2
 1954 0c22 2AD0     		beq	.L253
 199:/home/vtrnnhlinh/STM32Cube/Repository/STM32Cube_FW_F4_V1.28.0/Drivers/STM32F4xx_HAL_Driver/Src/stm32f4xx_hal_dma_ex.c ****     __HAL_DMA_CLEAR_FLAG (hdma, __HAL_DMA_GET_FE_FLAG_INDEX(hdma));
 1955              		.loc 1 199 5 discriminator 163 view .LVU371
 1956 0c24 A2F56872 		sub	r2, r2, #928
 1957 0c28 9342     		cmp	r3, r2
 1958 0c2a 29D0     		beq	.L254
 199:/home/vtrnnhlinh/STM32Cube/Repository/STM32Cube_FW_F4_V1.28.0/Drivers/STM32F4xx_HAL_Driver/Src/stm32f4xx_hal_dma_ex.c ****     __HAL_DMA_CLEAR_FLAG (hdma, __HAL_DMA_GET_FE_FLAG_INDEX(hdma));
ARM GAS  /tmp/cc92hle1.s 			page 47


 1959              		.loc 1 199 5 discriminator 165 view .LVU372
 1960 0c2c 02F58062 		add	r2, r2, #1024
 1961 0c30 9342     		cmp	r3, r2
 1962 0c32 28D0     		beq	.L255
 199:/home/vtrnnhlinh/STM32Cube/Repository/STM32Cube_FW_F4_V1.28.0/Drivers/STM32F4xx_HAL_Driver/Src/stm32f4xx_hal_dma_ex.c ****     __HAL_DMA_CLEAR_FLAG (hdma, __HAL_DMA_GET_FE_FLAG_INDEX(hdma));
 1963              		.loc 1 199 5 discriminator 167 view .LVU373
 1964 0c34 A2F58962 		sub	r2, r2, #1096
 1965 0c38 9342     		cmp	r3, r2
 1966 0c3a 27D0     		beq	.L256
 199:/home/vtrnnhlinh/STM32Cube/Repository/STM32Cube_FW_F4_V1.28.0/Drivers/STM32F4xx_HAL_Driver/Src/stm32f4xx_hal_dma_ex.c ****     __HAL_DMA_CLEAR_FLAG (hdma, __HAL_DMA_GET_FE_FLAG_INDEX(hdma));
 1967              		.loc 1 199 5 discriminator 169 view .LVU374
 1968 0c3c 02F58062 		add	r2, r2, #1024
 1969 0c40 9342     		cmp	r3, r2
 1970 0c42 26D0     		beq	.L257
 199:/home/vtrnnhlinh/STM32Cube/Repository/STM32Cube_FW_F4_V1.28.0/Drivers/STM32F4xx_HAL_Driver/Src/stm32f4xx_hal_dma_ex.c ****     __HAL_DMA_CLEAR_FLAG (hdma, __HAL_DMA_GET_FE_FLAG_INDEX(hdma));
 1971              		.loc 1 199 5 discriminator 171 view .LVU375
 1972 0c44 A2F56872 		sub	r2, r2, #928
 1973 0c48 9342     		cmp	r3, r2
 1974 0c4a 25D0     		beq	.L258
 199:/home/vtrnnhlinh/STM32Cube/Repository/STM32Cube_FW_F4_V1.28.0/Drivers/STM32F4xx_HAL_Driver/Src/stm32f4xx_hal_dma_ex.c ****     __HAL_DMA_CLEAR_FLAG (hdma, __HAL_DMA_GET_FE_FLAG_INDEX(hdma));
 1975              		.loc 1 199 5 discriminator 173 view .LVU376
 1976 0c4c 02F58062 		add	r2, r2, #1024
 1977 0c50 9342     		cmp	r3, r2
 1978 0c52 02D0     		beq	.L328
 199:/home/vtrnnhlinh/STM32Cube/Repository/STM32Cube_FW_F4_V1.28.0/Drivers/STM32F4xx_HAL_Driver/Src/stm32f4xx_hal_dma_ex.c ****     __HAL_DMA_CLEAR_FLAG (hdma, __HAL_DMA_GET_FE_FLAG_INDEX(hdma));
 1979              		.loc 1 199 5 view .LVU377
 1980 0c54 4FF08073 		mov	r3, #16777216
 1981 0c58 03E0     		b	.L56
 1982              	.L328:
 1983 0c5a 4FF48023 		mov	r3, #262144
 1984 0c5e 00E0     		b	.L56
 1985              	.L248:
 1986 0c60 0423     		movs	r3, #4
 1987              	.L56:
 199:/home/vtrnnhlinh/STM32Cube/Repository/STM32Cube_FW_F4_V1.28.0/Drivers/STM32F4xx_HAL_Driver/Src/stm32f4xx_hal_dma_ex.c ****     __HAL_DMA_CLEAR_FLAG (hdma, __HAL_DMA_GET_FE_FLAG_INDEX(hdma));
 1988              		.loc 1 199 5 discriminator 200 view .LVU378
 1989 0c62 7F4A     		ldr	r2, .L341+4
 1990 0c64 9360     		str	r3, [r2, #8]
 1991 0c66 ACE6     		b	.L51
 1992              	.L249:
 199:/home/vtrnnhlinh/STM32Cube/Repository/STM32Cube_FW_F4_V1.28.0/Drivers/STM32F4xx_HAL_Driver/Src/stm32f4xx_hal_dma_ex.c ****     __HAL_DMA_CLEAR_FLAG (hdma, __HAL_DMA_GET_FE_FLAG_INDEX(hdma));
 1993              		.loc 1 199 5 view .LVU379
 1994 0c68 0423     		movs	r3, #4
 1995 0c6a FAE7     		b	.L56
 1996              	.L250:
 1997 0c6c 0423     		movs	r3, #4
 1998 0c6e F8E7     		b	.L56
 1999              	.L251:
 2000 0c70 0423     		movs	r3, #4
 2001 0c72 F6E7     		b	.L56
 2002              	.L252:
 2003 0c74 4FF48073 		mov	r3, #256
 2004 0c78 F3E7     		b	.L56
 2005              	.L253:
 2006 0c7a 4FF48073 		mov	r3, #256
 2007 0c7e F0E7     		b	.L56
 2008              	.L254:
ARM GAS  /tmp/cc92hle1.s 			page 48


 2009 0c80 4FF48073 		mov	r3, #256
 2010 0c84 EDE7     		b	.L56
 2011              	.L255:
 2012 0c86 4FF48073 		mov	r3, #256
 2013 0c8a EAE7     		b	.L56
 2014              	.L256:
 2015 0c8c 4FF48023 		mov	r3, #262144
 2016 0c90 E7E7     		b	.L56
 2017              	.L257:
 2018 0c92 4FF48023 		mov	r3, #262144
 2019 0c96 E4E7     		b	.L56
 2020              	.L258:
 2021 0c98 4FF48023 		mov	r3, #262144
 2022 0c9c E1E7     		b	.L56
 2023              	.L325:
 200:/home/vtrnnhlinh/STM32Cube/Repository/STM32Cube_FW_F4_V1.28.0/Drivers/STM32F4xx_HAL_Driver/Src/stm32f4xx_hal_dma_ex.c **** 
 2024              		.loc 1 200 5 view .LVU380
 2025 0c9e 4FF48032 		mov	r2, #65536
 2026 0ca2 00E0     		b	.L58
 2027              	.L260:
 2028 0ca4 0122     		movs	r2, #1
 2029              	.L58:
 200:/home/vtrnnhlinh/STM32Cube/Repository/STM32Cube_FW_F4_V1.28.0/Drivers/STM32F4xx_HAL_Driver/Src/stm32f4xx_hal_dma_ex.c **** 
 2030              		.loc 1 200 5 discriminator 50 view .LVU381
 2031 0ca6 6F4B     		ldr	r3, .L341+8
 2032 0ca8 DA60     		str	r2, [r3, #12]
 2033              	.L59:
 203:/home/vtrnnhlinh/STM32Cube/Repository/STM32Cube_FW_F4_V1.28.0/Drivers/STM32F4xx_HAL_Driver/Src/stm32f4xx_hal_dma_ex.c ****     hdma->Instance->FCR |= DMA_IT_FE;
 2034              		.loc 1 203 5 is_stmt 1 view .LVU382
 203:/home/vtrnnhlinh/STM32Cube/Repository/STM32Cube_FW_F4_V1.28.0/Drivers/STM32F4xx_HAL_Driver/Src/stm32f4xx_hal_dma_ex.c ****     hdma->Instance->FCR |= DMA_IT_FE;
 2035              		.loc 1 203 9 is_stmt 0 view .LVU383
 2036 0caa 2268     		ldr	r2, [r4]
 203:/home/vtrnnhlinh/STM32Cube/Repository/STM32Cube_FW_F4_V1.28.0/Drivers/STM32F4xx_HAL_Driver/Src/stm32f4xx_hal_dma_ex.c ****     hdma->Instance->FCR |= DMA_IT_FE;
 2037              		.loc 1 203 25 view .LVU384
 2038 0cac 1368     		ldr	r3, [r2]
 2039 0cae 43F01603 		orr	r3, r3, #22
 2040 0cb2 1360     		str	r3, [r2]
 204:/home/vtrnnhlinh/STM32Cube/Repository/STM32Cube_FW_F4_V1.28.0/Drivers/STM32F4xx_HAL_Driver/Src/stm32f4xx_hal_dma_ex.c ****     
 2041              		.loc 1 204 5 is_stmt 1 view .LVU385
 204:/home/vtrnnhlinh/STM32Cube/Repository/STM32Cube_FW_F4_V1.28.0/Drivers/STM32F4xx_HAL_Driver/Src/stm32f4xx_hal_dma_ex.c ****     
 2042              		.loc 1 204 9 is_stmt 0 view .LVU386
 2043 0cb4 2268     		ldr	r2, [r4]
 204:/home/vtrnnhlinh/STM32Cube/Repository/STM32Cube_FW_F4_V1.28.0/Drivers/STM32F4xx_HAL_Driver/Src/stm32f4xx_hal_dma_ex.c ****     
 2044              		.loc 1 204 25 view .LVU387
 2045 0cb6 5369     		ldr	r3, [r2, #20]
 2046 0cb8 43F08003 		orr	r3, r3, #128
 2047 0cbc 5361     		str	r3, [r2, #20]
 206:/home/vtrnnhlinh/STM32Cube/Repository/STM32Cube_FW_F4_V1.28.0/Drivers/STM32F4xx_HAL_Driver/Src/stm32f4xx_hal_dma_ex.c ****     {
 2048              		.loc 1 206 5 is_stmt 1 view .LVU388
 206:/home/vtrnnhlinh/STM32Cube/Repository/STM32Cube_FW_F4_V1.28.0/Drivers/STM32F4xx_HAL_Driver/Src/stm32f4xx_hal_dma_ex.c ****     {
 2049              		.loc 1 206 13 is_stmt 0 view .LVU389
 2050 0cbe 236C     		ldr	r3, [r4, #64]
 206:/home/vtrnnhlinh/STM32Cube/Repository/STM32Cube_FW_F4_V1.28.0/Drivers/STM32F4xx_HAL_Driver/Src/stm32f4xx_hal_dma_ex.c ****     {
 2051              		.loc 1 206 7 view .LVU390
 2052 0cc0 002B     		cmp	r3, #0
 2053 0cc2 00F02581 		beq	.L329
 2054              	.L65:
ARM GAS  /tmp/cc92hle1.s 			page 49


 208:/home/vtrnnhlinh/STM32Cube/Repository/STM32Cube_FW_F4_V1.28.0/Drivers/STM32F4xx_HAL_Driver/Src/stm32f4xx_hal_dma_ex.c ****     }
 2055              		.loc 1 208 7 is_stmt 1 view .LVU391
 208:/home/vtrnnhlinh/STM32Cube/Repository/STM32Cube_FW_F4_V1.28.0/Drivers/STM32F4xx_HAL_Driver/Src/stm32f4xx_hal_dma_ex.c ****     }
 2056              		.loc 1 208 11 is_stmt 0 view .LVU392
 2057 0cc6 2268     		ldr	r2, [r4]
 208:/home/vtrnnhlinh/STM32Cube/Repository/STM32Cube_FW_F4_V1.28.0/Drivers/STM32F4xx_HAL_Driver/Src/stm32f4xx_hal_dma_ex.c ****     }
 2058              		.loc 1 208 27 view .LVU393
 2059 0cc8 1368     		ldr	r3, [r2]
 2060 0cca 43F00803 		orr	r3, r3, #8
 2061 0cce 1360     		str	r3, [r2]
 2062              	.L66:
 212:/home/vtrnnhlinh/STM32Cube/Repository/STM32Cube_FW_F4_V1.28.0/Drivers/STM32F4xx_HAL_Driver/Src/stm32f4xx_hal_dma_ex.c ****   }
 2063              		.loc 1 212 5 is_stmt 1 view .LVU394
 2064 0cd0 2268     		ldr	r2, [r4]
 2065 0cd2 1368     		ldr	r3, [r2]
 2066 0cd4 43F00103 		orr	r3, r3, #1
 2067 0cd8 1360     		str	r3, [r2]
 156:/home/vtrnnhlinh/STM32Cube/Repository/STM32Cube_FW_F4_V1.28.0/Drivers/STM32F4xx_HAL_Driver/Src/stm32f4xx_hal_dma_ex.c ****   
 2068              		.loc 1 156 21 is_stmt 0 view .LVU395
 2069 0cda 0020     		movs	r0, #0
 2070 0cdc FFF7C4B9 		b	.L21
 2071              	.L261:
 200:/home/vtrnnhlinh/STM32Cube/Repository/STM32Cube_FW_F4_V1.28.0/Drivers/STM32F4xx_HAL_Driver/Src/stm32f4xx_hal_dma_ex.c **** 
 2072              		.loc 1 200 5 view .LVU396
 2073 0ce0 0122     		movs	r2, #1
 2074 0ce2 E0E7     		b	.L58
 2075              	.L262:
 2076 0ce4 0122     		movs	r2, #1
 2077 0ce6 DEE7     		b	.L58
 2078              	.L263:
 2079 0ce8 0122     		movs	r2, #1
 2080 0cea DCE7     		b	.L58
 2081              	.L264:
 2082 0cec 4022     		movs	r2, #64
 2083 0cee DAE7     		b	.L58
 2084              	.L265:
 2085 0cf0 4022     		movs	r2, #64
 2086 0cf2 D8E7     		b	.L58
 2087              	.L266:
 2088 0cf4 4022     		movs	r2, #64
 2089 0cf6 D6E7     		b	.L58
 2090              	.L267:
 2091 0cf8 4022     		movs	r2, #64
 2092 0cfa D4E7     		b	.L58
 2093              	.L268:
 2094 0cfc 4FF48032 		mov	r2, #65536
 2095 0d00 D1E7     		b	.L58
 2096              	.L269:
 2097 0d02 4FF48032 		mov	r2, #65536
 2098 0d06 CEE7     		b	.L58
 2099              	.L270:
 2100 0d08 4FF48032 		mov	r2, #65536
 2101 0d0c CBE7     		b	.L58
 2102              	.L57:
 200:/home/vtrnnhlinh/STM32Cube/Repository/STM32Cube_FW_F4_V1.28.0/Drivers/STM32F4xx_HAL_Driver/Src/stm32f4xx_hal_dma_ex.c **** 
 2103              		.loc 1 200 5 discriminator 2 view .LVU397
 2104 0d0e 564A     		ldr	r2, .L341+12
ARM GAS  /tmp/cc92hle1.s 			page 50


 2105 0d10 9342     		cmp	r3, r2
 2106 0d12 4FD9     		bls	.L60
 200:/home/vtrnnhlinh/STM32Cube/Repository/STM32Cube_FW_F4_V1.28.0/Drivers/STM32F4xx_HAL_Driver/Src/stm32f4xx_hal_dma_ex.c **** 
 2107              		.loc 1 200 5 discriminator 51 view .LVU398
 2108 0d14 A83A     		subs	r2, r2, #168
 2109 0d16 9342     		cmp	r3, r2
 2110 0d18 31D0     		beq	.L272
 200:/home/vtrnnhlinh/STM32Cube/Repository/STM32Cube_FW_F4_V1.28.0/Drivers/STM32F4xx_HAL_Driver/Src/stm32f4xx_hal_dma_ex.c **** 
 2111              		.loc 1 200 5 discriminator 53 view .LVU399
 2112 0d1a 02F58062 		add	r2, r2, #1024
 2113 0d1e 9342     		cmp	r3, r2
 2114 0d20 31D0     		beq	.L273
 200:/home/vtrnnhlinh/STM32Cube/Repository/STM32Cube_FW_F4_V1.28.0/Drivers/STM32F4xx_HAL_Driver/Src/stm32f4xx_hal_dma_ex.c **** 
 2115              		.loc 1 200 5 discriminator 55 view .LVU400
 2116 0d22 A2F56872 		sub	r2, r2, #928
 2117 0d26 9342     		cmp	r3, r2
 2118 0d28 2FD0     		beq	.L274
 200:/home/vtrnnhlinh/STM32Cube/Repository/STM32Cube_FW_F4_V1.28.0/Drivers/STM32F4xx_HAL_Driver/Src/stm32f4xx_hal_dma_ex.c **** 
 2119              		.loc 1 200 5 discriminator 57 view .LVU401
 2120 0d2a 02F58062 		add	r2, r2, #1024
 2121 0d2e 9342     		cmp	r3, r2
 2122 0d30 2DD0     		beq	.L275
 200:/home/vtrnnhlinh/STM32Cube/Repository/STM32Cube_FW_F4_V1.28.0/Drivers/STM32F4xx_HAL_Driver/Src/stm32f4xx_hal_dma_ex.c **** 
 2123              		.loc 1 200 5 discriminator 59 view .LVU402
 2124 0d32 A2F58962 		sub	r2, r2, #1096
 2125 0d36 9342     		cmp	r3, r2
 2126 0d38 2BD0     		beq	.L276
 200:/home/vtrnnhlinh/STM32Cube/Repository/STM32Cube_FW_F4_V1.28.0/Drivers/STM32F4xx_HAL_Driver/Src/stm32f4xx_hal_dma_ex.c **** 
 2127              		.loc 1 200 5 discriminator 61 view .LVU403
 2128 0d3a 02F58062 		add	r2, r2, #1024
 2129 0d3e 9342     		cmp	r3, r2
 2130 0d40 29D0     		beq	.L277
 200:/home/vtrnnhlinh/STM32Cube/Repository/STM32Cube_FW_F4_V1.28.0/Drivers/STM32F4xx_HAL_Driver/Src/stm32f4xx_hal_dma_ex.c **** 
 2131              		.loc 1 200 5 discriminator 63 view .LVU404
 2132 0d42 A2F56872 		sub	r2, r2, #928
 2133 0d46 9342     		cmp	r3, r2
 2134 0d48 27D0     		beq	.L278
 200:/home/vtrnnhlinh/STM32Cube/Repository/STM32Cube_FW_F4_V1.28.0/Drivers/STM32F4xx_HAL_Driver/Src/stm32f4xx_hal_dma_ex.c **** 
 2135              		.loc 1 200 5 discriminator 65 view .LVU405
 2136 0d4a 02F58062 		add	r2, r2, #1024
 2137 0d4e 9342     		cmp	r3, r2
 2138 0d50 25D0     		beq	.L279
 200:/home/vtrnnhlinh/STM32Cube/Repository/STM32Cube_FW_F4_V1.28.0/Drivers/STM32F4xx_HAL_Driver/Src/stm32f4xx_hal_dma_ex.c **** 
 2139              		.loc 1 200 5 discriminator 67 view .LVU406
 2140 0d52 A2F58962 		sub	r2, r2, #1096
 2141 0d56 9342     		cmp	r3, r2
 2142 0d58 23D0     		beq	.L280
 200:/home/vtrnnhlinh/STM32Cube/Repository/STM32Cube_FW_F4_V1.28.0/Drivers/STM32F4xx_HAL_Driver/Src/stm32f4xx_hal_dma_ex.c **** 
 2143              		.loc 1 200 5 discriminator 69 view .LVU407
 2144 0d5a 02F58062 		add	r2, r2, #1024
 2145 0d5e 9342     		cmp	r3, r2
 2146 0d60 22D0     		beq	.L281
 200:/home/vtrnnhlinh/STM32Cube/Repository/STM32Cube_FW_F4_V1.28.0/Drivers/STM32F4xx_HAL_Driver/Src/stm32f4xx_hal_dma_ex.c **** 
 2147              		.loc 1 200 5 discriminator 71 view .LVU408
 2148 0d62 A2F56872 		sub	r2, r2, #928
 2149 0d66 9342     		cmp	r3, r2
 2150 0d68 21D0     		beq	.L282
ARM GAS  /tmp/cc92hle1.s 			page 51


 200:/home/vtrnnhlinh/STM32Cube/Repository/STM32Cube_FW_F4_V1.28.0/Drivers/STM32F4xx_HAL_Driver/Src/stm32f4xx_hal_dma_ex.c **** 
 2151              		.loc 1 200 5 discriminator 73 view .LVU409
 2152 0d6a 02F58062 		add	r2, r2, #1024
 2153 0d6e 9342     		cmp	r3, r2
 2154 0d70 02D0     		beq	.L330
 200:/home/vtrnnhlinh/STM32Cube/Repository/STM32Cube_FW_F4_V1.28.0/Drivers/STM32F4xx_HAL_Driver/Src/stm32f4xx_hal_dma_ex.c **** 
 2155              		.loc 1 200 5 view .LVU410
 2156 0d72 4FF48003 		mov	r3, #4194304
 2157 0d76 03E0     		b	.L61
 2158              	.L330:
 2159 0d78 4FF48033 		mov	r3, #65536
 2160 0d7c 00E0     		b	.L61
 2161              	.L272:
 2162 0d7e 0123     		movs	r3, #1
 2163              	.L61:
 200:/home/vtrnnhlinh/STM32Cube/Repository/STM32Cube_FW_F4_V1.28.0/Drivers/STM32F4xx_HAL_Driver/Src/stm32f4xx_hal_dma_ex.c **** 
 2164              		.loc 1 200 5 discriminator 100 view .LVU411
 2165 0d80 384A     		ldr	r2, .L341+8
 2166 0d82 9360     		str	r3, [r2, #8]
 2167 0d84 91E7     		b	.L59
 2168              	.L273:
 200:/home/vtrnnhlinh/STM32Cube/Repository/STM32Cube_FW_F4_V1.28.0/Drivers/STM32F4xx_HAL_Driver/Src/stm32f4xx_hal_dma_ex.c **** 
 2169              		.loc 1 200 5 view .LVU412
 2170 0d86 0123     		movs	r3, #1
 2171 0d88 FAE7     		b	.L61
 2172              	.L274:
 2173 0d8a 0123     		movs	r3, #1
 2174 0d8c F8E7     		b	.L61
 2175              	.L275:
 2176 0d8e 0123     		movs	r3, #1
 2177 0d90 F6E7     		b	.L61
 2178              	.L276:
 2179 0d92 4023     		movs	r3, #64
 2180 0d94 F4E7     		b	.L61
 2181              	.L277:
 2182 0d96 4023     		movs	r3, #64
 2183 0d98 F2E7     		b	.L61
 2184              	.L278:
 2185 0d9a 4023     		movs	r3, #64
 2186 0d9c F0E7     		b	.L61
 2187              	.L279:
 2188 0d9e 4023     		movs	r3, #64
 2189 0da0 EEE7     		b	.L61
 2190              	.L280:
 2191 0da2 4FF48033 		mov	r3, #65536
 2192 0da6 EBE7     		b	.L61
 2193              	.L281:
 2194 0da8 4FF48033 		mov	r3, #65536
 2195 0dac E8E7     		b	.L61
 2196              	.L282:
 2197 0dae 4FF48033 		mov	r3, #65536
 2198 0db2 E5E7     		b	.L61
 2199              	.L60:
 200:/home/vtrnnhlinh/STM32Cube/Repository/STM32Cube_FW_F4_V1.28.0/Drivers/STM32F4xx_HAL_Driver/Src/stm32f4xx_hal_dma_ex.c **** 
 2200              		.loc 1 200 5 discriminator 52 view .LVU413
 2201 0db4 2D4A     		ldr	r2, .L341+16
 2202 0db6 9342     		cmp	r3, r2
ARM GAS  /tmp/cc92hle1.s 			page 52


 2203 0db8 5AD9     		bls	.L62
 200:/home/vtrnnhlinh/STM32Cube/Repository/STM32Cube_FW_F4_V1.28.0/Drivers/STM32F4xx_HAL_Driver/Src/stm32f4xx_hal_dma_ex.c **** 
 2204              		.loc 1 200 5 discriminator 102 view .LVU414
 2205 0dba 483A     		subs	r2, r2, #72
 2206 0dbc 9342     		cmp	r3, r2
 2207 0dbe 31D0     		beq	.L284
 200:/home/vtrnnhlinh/STM32Cube/Repository/STM32Cube_FW_F4_V1.28.0/Drivers/STM32F4xx_HAL_Driver/Src/stm32f4xx_hal_dma_ex.c **** 
 2208              		.loc 1 200 5 discriminator 104 view .LVU415
 2209 0dc0 02F58062 		add	r2, r2, #1024
 2210 0dc4 9342     		cmp	r3, r2
 2211 0dc6 31D0     		beq	.L285
 200:/home/vtrnnhlinh/STM32Cube/Repository/STM32Cube_FW_F4_V1.28.0/Drivers/STM32F4xx_HAL_Driver/Src/stm32f4xx_hal_dma_ex.c **** 
 2212              		.loc 1 200 5 discriminator 106 view .LVU416
 2213 0dc8 A2F56872 		sub	r2, r2, #928
 2214 0dcc 9342     		cmp	r3, r2
 2215 0dce 2FD0     		beq	.L286
 200:/home/vtrnnhlinh/STM32Cube/Repository/STM32Cube_FW_F4_V1.28.0/Drivers/STM32F4xx_HAL_Driver/Src/stm32f4xx_hal_dma_ex.c **** 
 2216              		.loc 1 200 5 discriminator 108 view .LVU417
 2217 0dd0 02F58062 		add	r2, r2, #1024
 2218 0dd4 9342     		cmp	r3, r2
 2219 0dd6 2DD0     		beq	.L287
 200:/home/vtrnnhlinh/STM32Cube/Repository/STM32Cube_FW_F4_V1.28.0/Drivers/STM32F4xx_HAL_Driver/Src/stm32f4xx_hal_dma_ex.c **** 
 2220              		.loc 1 200 5 discriminator 110 view .LVU418
 2221 0dd8 A2F58962 		sub	r2, r2, #1096
 2222 0ddc 9342     		cmp	r3, r2
 2223 0dde 2BD0     		beq	.L288
 200:/home/vtrnnhlinh/STM32Cube/Repository/STM32Cube_FW_F4_V1.28.0/Drivers/STM32F4xx_HAL_Driver/Src/stm32f4xx_hal_dma_ex.c **** 
 2224              		.loc 1 200 5 discriminator 112 view .LVU419
 2225 0de0 02F58062 		add	r2, r2, #1024
 2226 0de4 9342     		cmp	r3, r2
 2227 0de6 29D0     		beq	.L289
 200:/home/vtrnnhlinh/STM32Cube/Repository/STM32Cube_FW_F4_V1.28.0/Drivers/STM32F4xx_HAL_Driver/Src/stm32f4xx_hal_dma_ex.c **** 
 2228              		.loc 1 200 5 discriminator 114 view .LVU420
 2229 0de8 A2F56872 		sub	r2, r2, #928
 2230 0dec 9342     		cmp	r3, r2
 2231 0dee 27D0     		beq	.L290
 200:/home/vtrnnhlinh/STM32Cube/Repository/STM32Cube_FW_F4_V1.28.0/Drivers/STM32F4xx_HAL_Driver/Src/stm32f4xx_hal_dma_ex.c **** 
 2232              		.loc 1 200 5 discriminator 116 view .LVU421
 2233 0df0 02F58062 		add	r2, r2, #1024
 2234 0df4 9342     		cmp	r3, r2
 2235 0df6 25D0     		beq	.L291
 200:/home/vtrnnhlinh/STM32Cube/Repository/STM32Cube_FW_F4_V1.28.0/Drivers/STM32F4xx_HAL_Driver/Src/stm32f4xx_hal_dma_ex.c **** 
 2236              		.loc 1 200 5 discriminator 118 view .LVU422
 2237 0df8 A2F58962 		sub	r2, r2, #1096
 2238 0dfc 9342     		cmp	r3, r2
 2239 0dfe 23D0     		beq	.L292
 200:/home/vtrnnhlinh/STM32Cube/Repository/STM32Cube_FW_F4_V1.28.0/Drivers/STM32F4xx_HAL_Driver/Src/stm32f4xx_hal_dma_ex.c **** 
 2240              		.loc 1 200 5 discriminator 120 view .LVU423
 2241 0e00 02F58062 		add	r2, r2, #1024
 2242 0e04 9342     		cmp	r3, r2
 2243 0e06 22D0     		beq	.L293
 200:/home/vtrnnhlinh/STM32Cube/Repository/STM32Cube_FW_F4_V1.28.0/Drivers/STM32F4xx_HAL_Driver/Src/stm32f4xx_hal_dma_ex.c **** 
 2244              		.loc 1 200 5 discriminator 122 view .LVU424
 2245 0e08 A2F56872 		sub	r2, r2, #928
 2246 0e0c 9342     		cmp	r3, r2
 2247 0e0e 21D0     		beq	.L294
 200:/home/vtrnnhlinh/STM32Cube/Repository/STM32Cube_FW_F4_V1.28.0/Drivers/STM32F4xx_HAL_Driver/Src/stm32f4xx_hal_dma_ex.c **** 
ARM GAS  /tmp/cc92hle1.s 			page 53


 2248              		.loc 1 200 5 discriminator 124 view .LVU425
 2249 0e10 02F58062 		add	r2, r2, #1024
 2250 0e14 9342     		cmp	r3, r2
 2251 0e16 02D0     		beq	.L331
 200:/home/vtrnnhlinh/STM32Cube/Repository/STM32Cube_FW_F4_V1.28.0/Drivers/STM32F4xx_HAL_Driver/Src/stm32f4xx_hal_dma_ex.c **** 
 2252              		.loc 1 200 5 view .LVU426
 2253 0e18 4FF48003 		mov	r3, #4194304
 2254 0e1c 03E0     		b	.L63
 2255              	.L331:
 2256 0e1e 4FF48033 		mov	r3, #65536
 2257 0e22 00E0     		b	.L63
 2258              	.L284:
 2259 0e24 0123     		movs	r3, #1
 2260              	.L63:
 200:/home/vtrnnhlinh/STM32Cube/Repository/STM32Cube_FW_F4_V1.28.0/Drivers/STM32F4xx_HAL_Driver/Src/stm32f4xx_hal_dma_ex.c **** 
 2261              		.loc 1 200 5 discriminator 151 view .LVU427
 2262 0e26 0E4A     		ldr	r2, .L341+4
 2263 0e28 D360     		str	r3, [r2, #12]
 2264 0e2a 3EE7     		b	.L59
 2265              	.L285:
 200:/home/vtrnnhlinh/STM32Cube/Repository/STM32Cube_FW_F4_V1.28.0/Drivers/STM32F4xx_HAL_Driver/Src/stm32f4xx_hal_dma_ex.c **** 
 2266              		.loc 1 200 5 view .LVU428
 2267 0e2c 0123     		movs	r3, #1
 2268 0e2e FAE7     		b	.L63
 2269              	.L286:
 2270 0e30 0123     		movs	r3, #1
 2271 0e32 F8E7     		b	.L63
 2272              	.L287:
 2273 0e34 0123     		movs	r3, #1
 2274 0e36 F6E7     		b	.L63
 2275              	.L288:
 2276 0e38 4023     		movs	r3, #64
 2277 0e3a F4E7     		b	.L63
 2278              	.L289:
 2279 0e3c 4023     		movs	r3, #64
 2280 0e3e F2E7     		b	.L63
 2281              	.L290:
 2282 0e40 4023     		movs	r3, #64
 2283 0e42 F0E7     		b	.L63
 2284              	.L291:
 2285 0e44 4023     		movs	r3, #64
 2286 0e46 EEE7     		b	.L63
 2287              	.L292:
 2288 0e48 4FF48033 		mov	r3, #65536
 2289 0e4c EBE7     		b	.L63
 2290              	.L293:
 2291 0e4e 4FF48033 		mov	r3, #65536
 2292 0e52 E8E7     		b	.L63
 2293              	.L294:
 2294 0e54 4FF48033 		mov	r3, #65536
 2295 0e58 E5E7     		b	.L63
 2296              	.L342:
 2297 0e5a 00BF     		.align	2
 2298              	.L341:
 2299 0e5c 10600240 		.word	1073897488
 2300 0e60 00600240 		.word	1073897472
 2301 0e64 00640240 		.word	1073898496
ARM GAS  /tmp/cc92hle1.s 			page 54


 2302 0e68 B8600240 		.word	1073897656
 2303 0e6c 58600240 		.word	1073897560
 2304              	.L62:
 200:/home/vtrnnhlinh/STM32Cube/Repository/STM32Cube_FW_F4_V1.28.0/Drivers/STM32F4xx_HAL_Driver/Src/stm32f4xx_hal_dma_ex.c **** 
 2305              		.loc 1 200 5 discriminator 103 view .LVU429
 2306 0e70 2B4A     		ldr	r2, .L343
 2307 0e72 9342     		cmp	r3, r2
 2308 0e74 31D0     		beq	.L296
 200:/home/vtrnnhlinh/STM32Cube/Repository/STM32Cube_FW_F4_V1.28.0/Drivers/STM32F4xx_HAL_Driver/Src/stm32f4xx_hal_dma_ex.c **** 
 2309              		.loc 1 200 5 discriminator 153 view .LVU430
 2310 0e76 02F58062 		add	r2, r2, #1024
 2311 0e7a 9342     		cmp	r3, r2
 2312 0e7c 31D0     		beq	.L297
 200:/home/vtrnnhlinh/STM32Cube/Repository/STM32Cube_FW_F4_V1.28.0/Drivers/STM32F4xx_HAL_Driver/Src/stm32f4xx_hal_dma_ex.c **** 
 2313              		.loc 1 200 5 discriminator 155 view .LVU431
 2314 0e7e A2F56872 		sub	r2, r2, #928
 2315 0e82 9342     		cmp	r3, r2
 2316 0e84 2FD0     		beq	.L298
 200:/home/vtrnnhlinh/STM32Cube/Repository/STM32Cube_FW_F4_V1.28.0/Drivers/STM32F4xx_HAL_Driver/Src/stm32f4xx_hal_dma_ex.c **** 
 2317              		.loc 1 200 5 discriminator 157 view .LVU432
 2318 0e86 02F58062 		add	r2, r2, #1024
 2319 0e8a 9342     		cmp	r3, r2
 2320 0e8c 2DD0     		beq	.L299
 200:/home/vtrnnhlinh/STM32Cube/Repository/STM32Cube_FW_F4_V1.28.0/Drivers/STM32F4xx_HAL_Driver/Src/stm32f4xx_hal_dma_ex.c **** 
 2321              		.loc 1 200 5 discriminator 159 view .LVU433
 2322 0e8e A2F58962 		sub	r2, r2, #1096
 2323 0e92 9342     		cmp	r3, r2
 2324 0e94 2BD0     		beq	.L300
 200:/home/vtrnnhlinh/STM32Cube/Repository/STM32Cube_FW_F4_V1.28.0/Drivers/STM32F4xx_HAL_Driver/Src/stm32f4xx_hal_dma_ex.c **** 
 2325              		.loc 1 200 5 discriminator 161 view .LVU434
 2326 0e96 02F58062 		add	r2, r2, #1024
 2327 0e9a 9342     		cmp	r3, r2
 2328 0e9c 29D0     		beq	.L301
 200:/home/vtrnnhlinh/STM32Cube/Repository/STM32Cube_FW_F4_V1.28.0/Drivers/STM32F4xx_HAL_Driver/Src/stm32f4xx_hal_dma_ex.c **** 
 2329              		.loc 1 200 5 discriminator 163 view .LVU435
 2330 0e9e A2F56872 		sub	r2, r2, #928
 2331 0ea2 9342     		cmp	r3, r2
 2332 0ea4 27D0     		beq	.L302
 200:/home/vtrnnhlinh/STM32Cube/Repository/STM32Cube_FW_F4_V1.28.0/Drivers/STM32F4xx_HAL_Driver/Src/stm32f4xx_hal_dma_ex.c **** 
 2333              		.loc 1 200 5 discriminator 165 view .LVU436
 2334 0ea6 02F58062 		add	r2, r2, #1024
 2335 0eaa 9342     		cmp	r3, r2
 2336 0eac 25D0     		beq	.L303
 200:/home/vtrnnhlinh/STM32Cube/Repository/STM32Cube_FW_F4_V1.28.0/Drivers/STM32F4xx_HAL_Driver/Src/stm32f4xx_hal_dma_ex.c **** 
 2337              		.loc 1 200 5 discriminator 167 view .LVU437
 2338 0eae A2F58962 		sub	r2, r2, #1096
 2339 0eb2 9342     		cmp	r3, r2
 2340 0eb4 23D0     		beq	.L304
 200:/home/vtrnnhlinh/STM32Cube/Repository/STM32Cube_FW_F4_V1.28.0/Drivers/STM32F4xx_HAL_Driver/Src/stm32f4xx_hal_dma_ex.c **** 
 2341              		.loc 1 200 5 discriminator 169 view .LVU438
 2342 0eb6 02F58062 		add	r2, r2, #1024
 2343 0eba 9342     		cmp	r3, r2
 2344 0ebc 22D0     		beq	.L305
 200:/home/vtrnnhlinh/STM32Cube/Repository/STM32Cube_FW_F4_V1.28.0/Drivers/STM32F4xx_HAL_Driver/Src/stm32f4xx_hal_dma_ex.c **** 
 2345              		.loc 1 200 5 discriminator 171 view .LVU439
 2346 0ebe A2F56872 		sub	r2, r2, #928
 2347 0ec2 9342     		cmp	r3, r2
ARM GAS  /tmp/cc92hle1.s 			page 55


 2348 0ec4 21D0     		beq	.L306
 200:/home/vtrnnhlinh/STM32Cube/Repository/STM32Cube_FW_F4_V1.28.0/Drivers/STM32F4xx_HAL_Driver/Src/stm32f4xx_hal_dma_ex.c **** 
 2349              		.loc 1 200 5 discriminator 173 view .LVU440
 2350 0ec6 02F58062 		add	r2, r2, #1024
 2351 0eca 9342     		cmp	r3, r2
 2352 0ecc 02D0     		beq	.L332
 200:/home/vtrnnhlinh/STM32Cube/Repository/STM32Cube_FW_F4_V1.28.0/Drivers/STM32F4xx_HAL_Driver/Src/stm32f4xx_hal_dma_ex.c **** 
 2353              		.loc 1 200 5 view .LVU441
 2354 0ece 4FF48003 		mov	r3, #4194304
 2355 0ed2 03E0     		b	.L64
 2356              	.L332:
 2357 0ed4 4FF48033 		mov	r3, #65536
 2358 0ed8 00E0     		b	.L64
 2359              	.L296:
 2360 0eda 0123     		movs	r3, #1
 2361              	.L64:
 200:/home/vtrnnhlinh/STM32Cube/Repository/STM32Cube_FW_F4_V1.28.0/Drivers/STM32F4xx_HAL_Driver/Src/stm32f4xx_hal_dma_ex.c **** 
 2362              		.loc 1 200 5 discriminator 200 view .LVU442
 2363 0edc 114A     		ldr	r2, .L343+4
 2364 0ede 9360     		str	r3, [r2, #8]
 2365 0ee0 E3E6     		b	.L59
 2366              	.L297:
 200:/home/vtrnnhlinh/STM32Cube/Repository/STM32Cube_FW_F4_V1.28.0/Drivers/STM32F4xx_HAL_Driver/Src/stm32f4xx_hal_dma_ex.c **** 
 2367              		.loc 1 200 5 view .LVU443
 2368 0ee2 0123     		movs	r3, #1
 2369 0ee4 FAE7     		b	.L64
 2370              	.L298:
 2371 0ee6 0123     		movs	r3, #1
 2372 0ee8 F8E7     		b	.L64
 2373              	.L299:
 2374 0eea 0123     		movs	r3, #1
 2375 0eec F6E7     		b	.L64
 2376              	.L300:
 2377 0eee 4023     		movs	r3, #64
 2378 0ef0 F4E7     		b	.L64
 2379              	.L301:
 2380 0ef2 4023     		movs	r3, #64
 2381 0ef4 F2E7     		b	.L64
 2382              	.L302:
 2383 0ef6 4023     		movs	r3, #64
 2384 0ef8 F0E7     		b	.L64
 2385              	.L303:
 2386 0efa 4023     		movs	r3, #64
 2387 0efc EEE7     		b	.L64
 2388              	.L304:
 2389 0efe 4FF48033 		mov	r3, #65536
 2390 0f02 EBE7     		b	.L64
 2391              	.L305:
 2392 0f04 4FF48033 		mov	r3, #65536
 2393 0f08 E8E7     		b	.L64
 2394              	.L306:
 2395 0f0a 4FF48033 		mov	r3, #65536
 2396 0f0e E5E7     		b	.L64
 2397              	.L329:
 206:/home/vtrnnhlinh/STM32Cube/Repository/STM32Cube_FW_F4_V1.28.0/Drivers/STM32F4xx_HAL_Driver/Src/stm32f4xx_hal_dma_ex.c ****     {
 2398              		.loc 1 206 53 discriminator 1 view .LVU444
 2399 0f10 A36C     		ldr	r3, [r4, #72]
ARM GAS  /tmp/cc92hle1.s 			page 56


 206:/home/vtrnnhlinh/STM32Cube/Repository/STM32Cube_FW_F4_V1.28.0/Drivers/STM32F4xx_HAL_Driver/Src/stm32f4xx_hal_dma_ex.c ****     {
 2400              		.loc 1 206 45 discriminator 1 view .LVU445
 2401 0f12 002B     		cmp	r3, #0
 2402 0f14 7FF4D7AE 		bne	.L65
 2403 0f18 DAE6     		b	.L66
 2404              	.LVL39:
 2405              	.L67:
 176:/home/vtrnnhlinh/STM32Cube/Repository/STM32Cube_FW_F4_V1.28.0/Drivers/STM32F4xx_HAL_Driver/Src/stm32f4xx_hal_dma_ex.c ****   
 2406              		.loc 1 176 3 view .LVU446
 2407 0f1a 0220     		movs	r0, #2
 2408 0f1c FFF7A4B8 		b	.L21
 2409              	.L344:
 2410              		.align	2
 2411              	.L343:
 2412 0f20 10600240 		.word	1073897488
 2413 0f24 00600240 		.word	1073897472
 2414              		.cfi_endproc
 2415              	.LFE135:
 2417              		.section	.text.HAL_DMAEx_ChangeMemory,"ax",%progbits
 2418              		.align	1
 2419              		.global	HAL_DMAEx_ChangeMemory
 2420              		.syntax unified
 2421              		.thumb
 2422              		.thumb_func
 2423              		.fpu fpv4-sp-d16
 2425              	HAL_DMAEx_ChangeMemory:
 2426              	.LVL40:
 2427              	.LFB136:
 240:/home/vtrnnhlinh/STM32Cube/Repository/STM32Cube_FW_F4_V1.28.0/Drivers/STM32F4xx_HAL_Driver/Src/stm32f4xx_hal_dma_ex.c ****   if(memory == MEMORY0)
 2428              		.loc 1 240 1 is_stmt 1 view -0
 2429              		.cfi_startproc
 2430              		@ args = 0, pretend = 0, frame = 0
 2431              		@ frame_needed = 0, uses_anonymous_args = 0
 2432              		@ link register save eliminated.
 241:/home/vtrnnhlinh/STM32Cube/Repository/STM32Cube_FW_F4_V1.28.0/Drivers/STM32F4xx_HAL_Driver/Src/stm32f4xx_hal_dma_ex.c ****   {
 2433              		.loc 1 241 3 view .LVU448
 241:/home/vtrnnhlinh/STM32Cube/Repository/STM32Cube_FW_F4_V1.28.0/Drivers/STM32F4xx_HAL_Driver/Src/stm32f4xx_hal_dma_ex.c ****   {
 2434              		.loc 1 241 5 is_stmt 0 view .LVU449
 2435 0000 1AB9     		cbnz	r2, .L346
 244:/home/vtrnnhlinh/STM32Cube/Repository/STM32Cube_FW_F4_V1.28.0/Drivers/STM32F4xx_HAL_Driver/Src/stm32f4xx_hal_dma_ex.c ****   }
 2436              		.loc 1 244 5 is_stmt 1 view .LVU450
 244:/home/vtrnnhlinh/STM32Cube/Repository/STM32Cube_FW_F4_V1.28.0/Drivers/STM32F4xx_HAL_Driver/Src/stm32f4xx_hal_dma_ex.c ****   }
 2437              		.loc 1 244 9 is_stmt 0 view .LVU451
 2438 0002 0368     		ldr	r3, [r0]
 244:/home/vtrnnhlinh/STM32Cube/Repository/STM32Cube_FW_F4_V1.28.0/Drivers/STM32F4xx_HAL_Driver/Src/stm32f4xx_hal_dma_ex.c ****   }
 2439              		.loc 1 244 26 view .LVU452
 2440 0004 D960     		str	r1, [r3, #12]
 2441              	.L347:
 252:/home/vtrnnhlinh/STM32Cube/Repository/STM32Cube_FW_F4_V1.28.0/Drivers/STM32F4xx_HAL_Driver/Src/stm32f4xx_hal_dma_ex.c **** }
 2442              		.loc 1 252 3 is_stmt 1 view .LVU453
 253:/home/vtrnnhlinh/STM32Cube/Repository/STM32Cube_FW_F4_V1.28.0/Drivers/STM32F4xx_HAL_Driver/Src/stm32f4xx_hal_dma_ex.c **** 
 2443              		.loc 1 253 1 is_stmt 0 view .LVU454
 2444 0006 0020     		movs	r0, #0
 2445              	.LVL41:
 253:/home/vtrnnhlinh/STM32Cube/Repository/STM32Cube_FW_F4_V1.28.0/Drivers/STM32F4xx_HAL_Driver/Src/stm32f4xx_hal_dma_ex.c **** 
 2446              		.loc 1 253 1 view .LVU455
 2447 0008 7047     		bx	lr
ARM GAS  /tmp/cc92hle1.s 			page 57


 2448              	.LVL42:
 2449              	.L346:
 249:/home/vtrnnhlinh/STM32Cube/Repository/STM32Cube_FW_F4_V1.28.0/Drivers/STM32F4xx_HAL_Driver/Src/stm32f4xx_hal_dma_ex.c ****   }
 2450              		.loc 1 249 5 is_stmt 1 view .LVU456
 249:/home/vtrnnhlinh/STM32Cube/Repository/STM32Cube_FW_F4_V1.28.0/Drivers/STM32F4xx_HAL_Driver/Src/stm32f4xx_hal_dma_ex.c ****   }
 2451              		.loc 1 249 9 is_stmt 0 view .LVU457
 2452 000a 0368     		ldr	r3, [r0]
 249:/home/vtrnnhlinh/STM32Cube/Repository/STM32Cube_FW_F4_V1.28.0/Drivers/STM32F4xx_HAL_Driver/Src/stm32f4xx_hal_dma_ex.c ****   }
 2453              		.loc 1 249 26 view .LVU458
 2454 000c 1961     		str	r1, [r3, #16]
 2455 000e FAE7     		b	.L347
 2456              		.cfi_endproc
 2457              	.LFE136:
 2459              		.text
 2460              	.Letext0:
 2461              		.file 2 "/usr/lib/gcc/arm-none-eabi/10.3.1/include/stdint.h"
 2462              		.file 3 "/home/vtrnnhlinh/STM32Cube/Repository/STM32Cube_FW_F4_V1.28.0/Drivers/CMSIS/Device/ST/STM
 2463              		.file 4 "/home/vtrnnhlinh/STM32Cube/Repository/STM32Cube_FW_F4_V1.28.0/Drivers/STM32F4xx_HAL_Drive
 2464              		.file 5 "/home/vtrnnhlinh/STM32Cube/Repository/STM32Cube_FW_F4_V1.28.0/Drivers/STM32F4xx_HAL_Drive
 2465              		.file 6 "/home/vtrnnhlinh/STM32Cube/Repository/STM32Cube_FW_F4_V1.28.0/Drivers/STM32F4xx_HAL_Drive
 2466              		.file 7 "Core/Inc/stm32f4xx_hal_conf.h"
ARM GAS  /tmp/cc92hle1.s 			page 58

