ARM GAS  /tmp/ccrTh7WC.s 			page 1


   1              		.cpu cortex-m4
   2              		.eabi_attribute 27, 1
   3              		.eabi_attribute 28, 1
   4              		.eabi_attribute 20, 1
   5              		.eabi_attribute 21, 1
   6              		.eabi_attribute 23, 3
   7              		.eabi_attribute 24, 1
   8              		.eabi_attribute 25, 1
   9              		.eabi_attribute 26, 1
  10              		.eabi_attribute 30, 1
  11              		.eabi_attribute 34, 1
  12              		.eabi_attribute 18, 4
  13              		.file	"stm32f4xx_hal_exti.c"
  14              		.text
  15              	.Ltext0:
  16              		.cfi_sections	.debug_frame
  17              		.section	.rodata.HAL_EXTI_SetConfigLine.str1.4,"aMS",%progbits,1
  18              		.align	2
  19              	.LC0:
  20 0000 2F686F6D 		.ascii	"/home/vtrnnhlinh/STM32Cube/Repository/STM32Cube_FW_"
  20      652F7674 
  20      726E6E68 
  20      6C696E68 
  20      2F53544D 
  21 0033 46345F56 		.ascii	"F4_V1.28.0/Drivers/STM32F4xx_HAL_Driver/Src/stm32f4"
  21      312E3238 
  21      2E302F44 
  21      72697665 
  21      72732F53 
  22 0066 78785F68 		.ascii	"xx_hal_exti.c\000"
  22      616C5F65 
  22      7874692E 
  22      6300
  23              		.section	.text.HAL_EXTI_SetConfigLine,"ax",%progbits
  24              		.align	1
  25              		.global	HAL_EXTI_SetConfigLine
  26              		.arch armv7e-m
  27              		.syntax unified
  28              		.thumb
  29              		.thumb_func
  30              		.fpu fpv4-sp-d16
  32              	HAL_EXTI_SetConfigLine:
  33              	.LVL0:
  34              	.LFB134:
  35              		.file 1 "/home/vtrnnhlinh/STM32Cube/Repository/STM32Cube_FW_F4_V1.28.0/Drivers/STM32F4xx_HAL_Drive
   1:/home/vtrnnhlinh/STM32Cube/Repository/STM32Cube_FW_F4_V1.28.0/Drivers/STM32F4xx_HAL_Driver/Src/stm32f4xx_hal_exti.c **** /**
   2:/home/vtrnnhlinh/STM32Cube/Repository/STM32Cube_FW_F4_V1.28.0/Drivers/STM32F4xx_HAL_Driver/Src/stm32f4xx_hal_exti.c ****   ******************************************************************************
   3:/home/vtrnnhlinh/STM32Cube/Repository/STM32Cube_FW_F4_V1.28.0/Drivers/STM32F4xx_HAL_Driver/Src/stm32f4xx_hal_exti.c ****   * @file    stm32f4xx_hal_exti.c
   4:/home/vtrnnhlinh/STM32Cube/Repository/STM32Cube_FW_F4_V1.28.0/Drivers/STM32F4xx_HAL_Driver/Src/stm32f4xx_hal_exti.c ****   * @author  MCD Application Team
   5:/home/vtrnnhlinh/STM32Cube/Repository/STM32Cube_FW_F4_V1.28.0/Drivers/STM32F4xx_HAL_Driver/Src/stm32f4xx_hal_exti.c ****   * @brief   EXTI HAL module driver.
   6:/home/vtrnnhlinh/STM32Cube/Repository/STM32Cube_FW_F4_V1.28.0/Drivers/STM32F4xx_HAL_Driver/Src/stm32f4xx_hal_exti.c ****   *          This file provides firmware functions to manage the following
   7:/home/vtrnnhlinh/STM32Cube/Repository/STM32Cube_FW_F4_V1.28.0/Drivers/STM32F4xx_HAL_Driver/Src/stm32f4xx_hal_exti.c ****   *          functionalities of the Extended Interrupts and events controller (EXTI) peripheral:
   8:/home/vtrnnhlinh/STM32Cube/Repository/STM32Cube_FW_F4_V1.28.0/Drivers/STM32F4xx_HAL_Driver/Src/stm32f4xx_hal_exti.c ****   *           + Initialization and de-initialization functions
   9:/home/vtrnnhlinh/STM32Cube/Repository/STM32Cube_FW_F4_V1.28.0/Drivers/STM32F4xx_HAL_Driver/Src/stm32f4xx_hal_exti.c ****   *           + IO operation functions
  10:/home/vtrnnhlinh/STM32Cube/Repository/STM32Cube_FW_F4_V1.28.0/Drivers/STM32F4xx_HAL_Driver/Src/stm32f4xx_hal_exti.c ****   *
  11:/home/vtrnnhlinh/STM32Cube/Repository/STM32Cube_FW_F4_V1.28.0/Drivers/STM32F4xx_HAL_Driver/Src/stm32f4xx_hal_exti.c ****   ******************************************************************************
  12:/home/vtrnnhlinh/STM32Cube/Repository/STM32Cube_FW_F4_V1.28.0/Drivers/STM32F4xx_HAL_Driver/Src/stm32f4xx_hal_exti.c ****   * @attention
ARM GAS  /tmp/ccrTh7WC.s 			page 2


  13:/home/vtrnnhlinh/STM32Cube/Repository/STM32Cube_FW_F4_V1.28.0/Drivers/STM32F4xx_HAL_Driver/Src/stm32f4xx_hal_exti.c ****   *
  14:/home/vtrnnhlinh/STM32Cube/Repository/STM32Cube_FW_F4_V1.28.0/Drivers/STM32F4xx_HAL_Driver/Src/stm32f4xx_hal_exti.c ****   * Copyright (c) 2018 STMicroelectronics.
  15:/home/vtrnnhlinh/STM32Cube/Repository/STM32Cube_FW_F4_V1.28.0/Drivers/STM32F4xx_HAL_Driver/Src/stm32f4xx_hal_exti.c ****   * All rights reserved.
  16:/home/vtrnnhlinh/STM32Cube/Repository/STM32Cube_FW_F4_V1.28.0/Drivers/STM32F4xx_HAL_Driver/Src/stm32f4xx_hal_exti.c ****   *
  17:/home/vtrnnhlinh/STM32Cube/Repository/STM32Cube_FW_F4_V1.28.0/Drivers/STM32F4xx_HAL_Driver/Src/stm32f4xx_hal_exti.c ****   * This software is licensed under terms that can be found in the LICENSE file
  18:/home/vtrnnhlinh/STM32Cube/Repository/STM32Cube_FW_F4_V1.28.0/Drivers/STM32F4xx_HAL_Driver/Src/stm32f4xx_hal_exti.c ****   * in the root directory of this software component.
  19:/home/vtrnnhlinh/STM32Cube/Repository/STM32Cube_FW_F4_V1.28.0/Drivers/STM32F4xx_HAL_Driver/Src/stm32f4xx_hal_exti.c ****   * If no LICENSE file comes with this software, it is provided AS-IS.
  20:/home/vtrnnhlinh/STM32Cube/Repository/STM32Cube_FW_F4_V1.28.0/Drivers/STM32F4xx_HAL_Driver/Src/stm32f4xx_hal_exti.c ****   *
  21:/home/vtrnnhlinh/STM32Cube/Repository/STM32Cube_FW_F4_V1.28.0/Drivers/STM32F4xx_HAL_Driver/Src/stm32f4xx_hal_exti.c ****   ******************************************************************************
  22:/home/vtrnnhlinh/STM32Cube/Repository/STM32Cube_FW_F4_V1.28.0/Drivers/STM32F4xx_HAL_Driver/Src/stm32f4xx_hal_exti.c ****   @verbatim
  23:/home/vtrnnhlinh/STM32Cube/Repository/STM32Cube_FW_F4_V1.28.0/Drivers/STM32F4xx_HAL_Driver/Src/stm32f4xx_hal_exti.c ****   ==============================================================================
  24:/home/vtrnnhlinh/STM32Cube/Repository/STM32Cube_FW_F4_V1.28.0/Drivers/STM32F4xx_HAL_Driver/Src/stm32f4xx_hal_exti.c ****                     ##### EXTI Peripheral features #####
  25:/home/vtrnnhlinh/STM32Cube/Repository/STM32Cube_FW_F4_V1.28.0/Drivers/STM32F4xx_HAL_Driver/Src/stm32f4xx_hal_exti.c ****   ==============================================================================
  26:/home/vtrnnhlinh/STM32Cube/Repository/STM32Cube_FW_F4_V1.28.0/Drivers/STM32F4xx_HAL_Driver/Src/stm32f4xx_hal_exti.c ****   [..]
  27:/home/vtrnnhlinh/STM32Cube/Repository/STM32Cube_FW_F4_V1.28.0/Drivers/STM32F4xx_HAL_Driver/Src/stm32f4xx_hal_exti.c ****     (+) Each Exti line can be configured within this driver.
  28:/home/vtrnnhlinh/STM32Cube/Repository/STM32Cube_FW_F4_V1.28.0/Drivers/STM32F4xx_HAL_Driver/Src/stm32f4xx_hal_exti.c **** 
  29:/home/vtrnnhlinh/STM32Cube/Repository/STM32Cube_FW_F4_V1.28.0/Drivers/STM32F4xx_HAL_Driver/Src/stm32f4xx_hal_exti.c ****     (+) Exti line can be configured in 3 different modes
  30:/home/vtrnnhlinh/STM32Cube/Repository/STM32Cube_FW_F4_V1.28.0/Drivers/STM32F4xx_HAL_Driver/Src/stm32f4xx_hal_exti.c ****         (++) Interrupt
  31:/home/vtrnnhlinh/STM32Cube/Repository/STM32Cube_FW_F4_V1.28.0/Drivers/STM32F4xx_HAL_Driver/Src/stm32f4xx_hal_exti.c ****         (++) Event
  32:/home/vtrnnhlinh/STM32Cube/Repository/STM32Cube_FW_F4_V1.28.0/Drivers/STM32F4xx_HAL_Driver/Src/stm32f4xx_hal_exti.c ****         (++) Both of them
  33:/home/vtrnnhlinh/STM32Cube/Repository/STM32Cube_FW_F4_V1.28.0/Drivers/STM32F4xx_HAL_Driver/Src/stm32f4xx_hal_exti.c **** 
  34:/home/vtrnnhlinh/STM32Cube/Repository/STM32Cube_FW_F4_V1.28.0/Drivers/STM32F4xx_HAL_Driver/Src/stm32f4xx_hal_exti.c ****     (+) Configurable Exti lines can be configured with 3 different triggers
  35:/home/vtrnnhlinh/STM32Cube/Repository/STM32Cube_FW_F4_V1.28.0/Drivers/STM32F4xx_HAL_Driver/Src/stm32f4xx_hal_exti.c ****         (++) Rising
  36:/home/vtrnnhlinh/STM32Cube/Repository/STM32Cube_FW_F4_V1.28.0/Drivers/STM32F4xx_HAL_Driver/Src/stm32f4xx_hal_exti.c ****         (++) Falling
  37:/home/vtrnnhlinh/STM32Cube/Repository/STM32Cube_FW_F4_V1.28.0/Drivers/STM32F4xx_HAL_Driver/Src/stm32f4xx_hal_exti.c ****         (++) Both of them
  38:/home/vtrnnhlinh/STM32Cube/Repository/STM32Cube_FW_F4_V1.28.0/Drivers/STM32F4xx_HAL_Driver/Src/stm32f4xx_hal_exti.c **** 
  39:/home/vtrnnhlinh/STM32Cube/Repository/STM32Cube_FW_F4_V1.28.0/Drivers/STM32F4xx_HAL_Driver/Src/stm32f4xx_hal_exti.c ****     (+) When set in interrupt mode, configurable Exti lines have two different
  40:/home/vtrnnhlinh/STM32Cube/Repository/STM32Cube_FW_F4_V1.28.0/Drivers/STM32F4xx_HAL_Driver/Src/stm32f4xx_hal_exti.c ****         interrupts pending registers which allow to distinguish which transition
  41:/home/vtrnnhlinh/STM32Cube/Repository/STM32Cube_FW_F4_V1.28.0/Drivers/STM32F4xx_HAL_Driver/Src/stm32f4xx_hal_exti.c ****         occurs:
  42:/home/vtrnnhlinh/STM32Cube/Repository/STM32Cube_FW_F4_V1.28.0/Drivers/STM32F4xx_HAL_Driver/Src/stm32f4xx_hal_exti.c ****         (++) Rising edge pending interrupt
  43:/home/vtrnnhlinh/STM32Cube/Repository/STM32Cube_FW_F4_V1.28.0/Drivers/STM32F4xx_HAL_Driver/Src/stm32f4xx_hal_exti.c ****         (++) Falling
  44:/home/vtrnnhlinh/STM32Cube/Repository/STM32Cube_FW_F4_V1.28.0/Drivers/STM32F4xx_HAL_Driver/Src/stm32f4xx_hal_exti.c **** 
  45:/home/vtrnnhlinh/STM32Cube/Repository/STM32Cube_FW_F4_V1.28.0/Drivers/STM32F4xx_HAL_Driver/Src/stm32f4xx_hal_exti.c ****     (+) Exti lines 0 to 15 are linked to gpio pin number 0 to 15. Gpio port can
  46:/home/vtrnnhlinh/STM32Cube/Repository/STM32Cube_FW_F4_V1.28.0/Drivers/STM32F4xx_HAL_Driver/Src/stm32f4xx_hal_exti.c ****         be selected through multiplexer.
  47:/home/vtrnnhlinh/STM32Cube/Repository/STM32Cube_FW_F4_V1.28.0/Drivers/STM32F4xx_HAL_Driver/Src/stm32f4xx_hal_exti.c **** 
  48:/home/vtrnnhlinh/STM32Cube/Repository/STM32Cube_FW_F4_V1.28.0/Drivers/STM32F4xx_HAL_Driver/Src/stm32f4xx_hal_exti.c ****                      ##### How to use this driver #####
  49:/home/vtrnnhlinh/STM32Cube/Repository/STM32Cube_FW_F4_V1.28.0/Drivers/STM32F4xx_HAL_Driver/Src/stm32f4xx_hal_exti.c ****   ==============================================================================
  50:/home/vtrnnhlinh/STM32Cube/Repository/STM32Cube_FW_F4_V1.28.0/Drivers/STM32F4xx_HAL_Driver/Src/stm32f4xx_hal_exti.c ****   [..]
  51:/home/vtrnnhlinh/STM32Cube/Repository/STM32Cube_FW_F4_V1.28.0/Drivers/STM32F4xx_HAL_Driver/Src/stm32f4xx_hal_exti.c **** 
  52:/home/vtrnnhlinh/STM32Cube/Repository/STM32Cube_FW_F4_V1.28.0/Drivers/STM32F4xx_HAL_Driver/Src/stm32f4xx_hal_exti.c ****     (#) Configure the EXTI line using HAL_EXTI_SetConfigLine().
  53:/home/vtrnnhlinh/STM32Cube/Repository/STM32Cube_FW_F4_V1.28.0/Drivers/STM32F4xx_HAL_Driver/Src/stm32f4xx_hal_exti.c ****         (++) Choose the interrupt line number by setting "Line" member from
  54:/home/vtrnnhlinh/STM32Cube/Repository/STM32Cube_FW_F4_V1.28.0/Drivers/STM32F4xx_HAL_Driver/Src/stm32f4xx_hal_exti.c ****              EXTI_ConfigTypeDef structure.
  55:/home/vtrnnhlinh/STM32Cube/Repository/STM32Cube_FW_F4_V1.28.0/Drivers/STM32F4xx_HAL_Driver/Src/stm32f4xx_hal_exti.c ****         (++) Configure the interrupt and/or event mode using "Mode" member from
  56:/home/vtrnnhlinh/STM32Cube/Repository/STM32Cube_FW_F4_V1.28.0/Drivers/STM32F4xx_HAL_Driver/Src/stm32f4xx_hal_exti.c ****              EXTI_ConfigTypeDef structure.
  57:/home/vtrnnhlinh/STM32Cube/Repository/STM32Cube_FW_F4_V1.28.0/Drivers/STM32F4xx_HAL_Driver/Src/stm32f4xx_hal_exti.c ****         (++) For configurable lines, configure rising and/or falling trigger
  58:/home/vtrnnhlinh/STM32Cube/Repository/STM32Cube_FW_F4_V1.28.0/Drivers/STM32F4xx_HAL_Driver/Src/stm32f4xx_hal_exti.c ****              "Trigger" member from EXTI_ConfigTypeDef structure.
  59:/home/vtrnnhlinh/STM32Cube/Repository/STM32Cube_FW_F4_V1.28.0/Drivers/STM32F4xx_HAL_Driver/Src/stm32f4xx_hal_exti.c ****         (++) For Exti lines linked to gpio, choose gpio port using "GPIOSel"
  60:/home/vtrnnhlinh/STM32Cube/Repository/STM32Cube_FW_F4_V1.28.0/Drivers/STM32F4xx_HAL_Driver/Src/stm32f4xx_hal_exti.c ****              member from GPIO_InitTypeDef structure.
  61:/home/vtrnnhlinh/STM32Cube/Repository/STM32Cube_FW_F4_V1.28.0/Drivers/STM32F4xx_HAL_Driver/Src/stm32f4xx_hal_exti.c **** 
  62:/home/vtrnnhlinh/STM32Cube/Repository/STM32Cube_FW_F4_V1.28.0/Drivers/STM32F4xx_HAL_Driver/Src/stm32f4xx_hal_exti.c ****     (#) Get current Exti configuration of a dedicated line using
  63:/home/vtrnnhlinh/STM32Cube/Repository/STM32Cube_FW_F4_V1.28.0/Drivers/STM32F4xx_HAL_Driver/Src/stm32f4xx_hal_exti.c ****         HAL_EXTI_GetConfigLine().
  64:/home/vtrnnhlinh/STM32Cube/Repository/STM32Cube_FW_F4_V1.28.0/Drivers/STM32F4xx_HAL_Driver/Src/stm32f4xx_hal_exti.c ****         (++) Provide exiting handle as parameter.
  65:/home/vtrnnhlinh/STM32Cube/Repository/STM32Cube_FW_F4_V1.28.0/Drivers/STM32F4xx_HAL_Driver/Src/stm32f4xx_hal_exti.c ****         (++) Provide pointer on EXTI_ConfigTypeDef structure as second parameter.
  66:/home/vtrnnhlinh/STM32Cube/Repository/STM32Cube_FW_F4_V1.28.0/Drivers/STM32F4xx_HAL_Driver/Src/stm32f4xx_hal_exti.c **** 
  67:/home/vtrnnhlinh/STM32Cube/Repository/STM32Cube_FW_F4_V1.28.0/Drivers/STM32F4xx_HAL_Driver/Src/stm32f4xx_hal_exti.c ****     (#) Clear Exti configuration of a dedicated line using HAL_EXTI_ClearConfigLine().
  68:/home/vtrnnhlinh/STM32Cube/Repository/STM32Cube_FW_F4_V1.28.0/Drivers/STM32F4xx_HAL_Driver/Src/stm32f4xx_hal_exti.c ****         (++) Provide exiting handle as parameter.
  69:/home/vtrnnhlinh/STM32Cube/Repository/STM32Cube_FW_F4_V1.28.0/Drivers/STM32F4xx_HAL_Driver/Src/stm32f4xx_hal_exti.c **** 
ARM GAS  /tmp/ccrTh7WC.s 			page 3


  70:/home/vtrnnhlinh/STM32Cube/Repository/STM32Cube_FW_F4_V1.28.0/Drivers/STM32F4xx_HAL_Driver/Src/stm32f4xx_hal_exti.c ****     (#) Register callback to treat Exti interrupts using HAL_EXTI_RegisterCallback().
  71:/home/vtrnnhlinh/STM32Cube/Repository/STM32Cube_FW_F4_V1.28.0/Drivers/STM32F4xx_HAL_Driver/Src/stm32f4xx_hal_exti.c ****         (++) Provide exiting handle as first parameter.
  72:/home/vtrnnhlinh/STM32Cube/Repository/STM32Cube_FW_F4_V1.28.0/Drivers/STM32F4xx_HAL_Driver/Src/stm32f4xx_hal_exti.c ****         (++) Provide which callback will be registered using one value from
  73:/home/vtrnnhlinh/STM32Cube/Repository/STM32Cube_FW_F4_V1.28.0/Drivers/STM32F4xx_HAL_Driver/Src/stm32f4xx_hal_exti.c ****              EXTI_CallbackIDTypeDef.
  74:/home/vtrnnhlinh/STM32Cube/Repository/STM32Cube_FW_F4_V1.28.0/Drivers/STM32F4xx_HAL_Driver/Src/stm32f4xx_hal_exti.c ****         (++) Provide callback function pointer.
  75:/home/vtrnnhlinh/STM32Cube/Repository/STM32Cube_FW_F4_V1.28.0/Drivers/STM32F4xx_HAL_Driver/Src/stm32f4xx_hal_exti.c **** 
  76:/home/vtrnnhlinh/STM32Cube/Repository/STM32Cube_FW_F4_V1.28.0/Drivers/STM32F4xx_HAL_Driver/Src/stm32f4xx_hal_exti.c ****     (#) Get interrupt pending bit using HAL_EXTI_GetPending().
  77:/home/vtrnnhlinh/STM32Cube/Repository/STM32Cube_FW_F4_V1.28.0/Drivers/STM32F4xx_HAL_Driver/Src/stm32f4xx_hal_exti.c **** 
  78:/home/vtrnnhlinh/STM32Cube/Repository/STM32Cube_FW_F4_V1.28.0/Drivers/STM32F4xx_HAL_Driver/Src/stm32f4xx_hal_exti.c ****     (#) Clear interrupt pending bit using HAL_EXTI_ClearPending().
  79:/home/vtrnnhlinh/STM32Cube/Repository/STM32Cube_FW_F4_V1.28.0/Drivers/STM32F4xx_HAL_Driver/Src/stm32f4xx_hal_exti.c **** 
  80:/home/vtrnnhlinh/STM32Cube/Repository/STM32Cube_FW_F4_V1.28.0/Drivers/STM32F4xx_HAL_Driver/Src/stm32f4xx_hal_exti.c ****     (#) Generate software interrupt using HAL_EXTI_GenerateSWI().
  81:/home/vtrnnhlinh/STM32Cube/Repository/STM32Cube_FW_F4_V1.28.0/Drivers/STM32F4xx_HAL_Driver/Src/stm32f4xx_hal_exti.c **** 
  82:/home/vtrnnhlinh/STM32Cube/Repository/STM32Cube_FW_F4_V1.28.0/Drivers/STM32F4xx_HAL_Driver/Src/stm32f4xx_hal_exti.c ****   @endverbatim
  83:/home/vtrnnhlinh/STM32Cube/Repository/STM32Cube_FW_F4_V1.28.0/Drivers/STM32F4xx_HAL_Driver/Src/stm32f4xx_hal_exti.c ****   */
  84:/home/vtrnnhlinh/STM32Cube/Repository/STM32Cube_FW_F4_V1.28.0/Drivers/STM32F4xx_HAL_Driver/Src/stm32f4xx_hal_exti.c **** 
  85:/home/vtrnnhlinh/STM32Cube/Repository/STM32Cube_FW_F4_V1.28.0/Drivers/STM32F4xx_HAL_Driver/Src/stm32f4xx_hal_exti.c **** /* Includes ------------------------------------------------------------------*/
  86:/home/vtrnnhlinh/STM32Cube/Repository/STM32Cube_FW_F4_V1.28.0/Drivers/STM32F4xx_HAL_Driver/Src/stm32f4xx_hal_exti.c **** #include "stm32f4xx_hal.h"
  87:/home/vtrnnhlinh/STM32Cube/Repository/STM32Cube_FW_F4_V1.28.0/Drivers/STM32F4xx_HAL_Driver/Src/stm32f4xx_hal_exti.c **** 
  88:/home/vtrnnhlinh/STM32Cube/Repository/STM32Cube_FW_F4_V1.28.0/Drivers/STM32F4xx_HAL_Driver/Src/stm32f4xx_hal_exti.c **** /** @addtogroup STM32F4xx_HAL_Driver
  89:/home/vtrnnhlinh/STM32Cube/Repository/STM32Cube_FW_F4_V1.28.0/Drivers/STM32F4xx_HAL_Driver/Src/stm32f4xx_hal_exti.c ****   * @{
  90:/home/vtrnnhlinh/STM32Cube/Repository/STM32Cube_FW_F4_V1.28.0/Drivers/STM32F4xx_HAL_Driver/Src/stm32f4xx_hal_exti.c ****   */
  91:/home/vtrnnhlinh/STM32Cube/Repository/STM32Cube_FW_F4_V1.28.0/Drivers/STM32F4xx_HAL_Driver/Src/stm32f4xx_hal_exti.c **** 
  92:/home/vtrnnhlinh/STM32Cube/Repository/STM32Cube_FW_F4_V1.28.0/Drivers/STM32F4xx_HAL_Driver/Src/stm32f4xx_hal_exti.c **** /** @addtogroup EXTI
  93:/home/vtrnnhlinh/STM32Cube/Repository/STM32Cube_FW_F4_V1.28.0/Drivers/STM32F4xx_HAL_Driver/Src/stm32f4xx_hal_exti.c ****   * @{
  94:/home/vtrnnhlinh/STM32Cube/Repository/STM32Cube_FW_F4_V1.28.0/Drivers/STM32F4xx_HAL_Driver/Src/stm32f4xx_hal_exti.c ****   */
  95:/home/vtrnnhlinh/STM32Cube/Repository/STM32Cube_FW_F4_V1.28.0/Drivers/STM32F4xx_HAL_Driver/Src/stm32f4xx_hal_exti.c **** /** MISRA C:2012 deviation rule has been granted for following rule:
  96:/home/vtrnnhlinh/STM32Cube/Repository/STM32Cube_FW_F4_V1.28.0/Drivers/STM32F4xx_HAL_Driver/Src/stm32f4xx_hal_exti.c ****   * Rule-18.1_b - Medium: Array `EXTICR' 1st subscript interval [0,7] may be out
  97:/home/vtrnnhlinh/STM32Cube/Repository/STM32Cube_FW_F4_V1.28.0/Drivers/STM32F4xx_HAL_Driver/Src/stm32f4xx_hal_exti.c ****   * of bounds [0,3] in following API :
  98:/home/vtrnnhlinh/STM32Cube/Repository/STM32Cube_FW_F4_V1.28.0/Drivers/STM32F4xx_HAL_Driver/Src/stm32f4xx_hal_exti.c ****   * HAL_EXTI_SetConfigLine
  99:/home/vtrnnhlinh/STM32Cube/Repository/STM32Cube_FW_F4_V1.28.0/Drivers/STM32F4xx_HAL_Driver/Src/stm32f4xx_hal_exti.c ****   * HAL_EXTI_GetConfigLine
 100:/home/vtrnnhlinh/STM32Cube/Repository/STM32Cube_FW_F4_V1.28.0/Drivers/STM32F4xx_HAL_Driver/Src/stm32f4xx_hal_exti.c ****   * HAL_EXTI_ClearConfigLine
 101:/home/vtrnnhlinh/STM32Cube/Repository/STM32Cube_FW_F4_V1.28.0/Drivers/STM32F4xx_HAL_Driver/Src/stm32f4xx_hal_exti.c ****   */
 102:/home/vtrnnhlinh/STM32Cube/Repository/STM32Cube_FW_F4_V1.28.0/Drivers/STM32F4xx_HAL_Driver/Src/stm32f4xx_hal_exti.c **** 
 103:/home/vtrnnhlinh/STM32Cube/Repository/STM32Cube_FW_F4_V1.28.0/Drivers/STM32F4xx_HAL_Driver/Src/stm32f4xx_hal_exti.c **** #ifdef HAL_EXTI_MODULE_ENABLED
 104:/home/vtrnnhlinh/STM32Cube/Repository/STM32Cube_FW_F4_V1.28.0/Drivers/STM32F4xx_HAL_Driver/Src/stm32f4xx_hal_exti.c **** 
 105:/home/vtrnnhlinh/STM32Cube/Repository/STM32Cube_FW_F4_V1.28.0/Drivers/STM32F4xx_HAL_Driver/Src/stm32f4xx_hal_exti.c **** /* Private typedef -----------------------------------------------------------*/
 106:/home/vtrnnhlinh/STM32Cube/Repository/STM32Cube_FW_F4_V1.28.0/Drivers/STM32F4xx_HAL_Driver/Src/stm32f4xx_hal_exti.c **** /* Private defines -----------------------------------------------------------*/
 107:/home/vtrnnhlinh/STM32Cube/Repository/STM32Cube_FW_F4_V1.28.0/Drivers/STM32F4xx_HAL_Driver/Src/stm32f4xx_hal_exti.c **** /** @defgroup EXTI_Private_Constants EXTI Private Constants
 108:/home/vtrnnhlinh/STM32Cube/Repository/STM32Cube_FW_F4_V1.28.0/Drivers/STM32F4xx_HAL_Driver/Src/stm32f4xx_hal_exti.c ****   * @{
 109:/home/vtrnnhlinh/STM32Cube/Repository/STM32Cube_FW_F4_V1.28.0/Drivers/STM32F4xx_HAL_Driver/Src/stm32f4xx_hal_exti.c ****   */
 110:/home/vtrnnhlinh/STM32Cube/Repository/STM32Cube_FW_F4_V1.28.0/Drivers/STM32F4xx_HAL_Driver/Src/stm32f4xx_hal_exti.c **** 
 111:/home/vtrnnhlinh/STM32Cube/Repository/STM32Cube_FW_F4_V1.28.0/Drivers/STM32F4xx_HAL_Driver/Src/stm32f4xx_hal_exti.c **** /**
 112:/home/vtrnnhlinh/STM32Cube/Repository/STM32Cube_FW_F4_V1.28.0/Drivers/STM32F4xx_HAL_Driver/Src/stm32f4xx_hal_exti.c ****   * @}
 113:/home/vtrnnhlinh/STM32Cube/Repository/STM32Cube_FW_F4_V1.28.0/Drivers/STM32F4xx_HAL_Driver/Src/stm32f4xx_hal_exti.c ****   */
 114:/home/vtrnnhlinh/STM32Cube/Repository/STM32Cube_FW_F4_V1.28.0/Drivers/STM32F4xx_HAL_Driver/Src/stm32f4xx_hal_exti.c **** 
 115:/home/vtrnnhlinh/STM32Cube/Repository/STM32Cube_FW_F4_V1.28.0/Drivers/STM32F4xx_HAL_Driver/Src/stm32f4xx_hal_exti.c **** /* Private macros ------------------------------------------------------------*/
 116:/home/vtrnnhlinh/STM32Cube/Repository/STM32Cube_FW_F4_V1.28.0/Drivers/STM32F4xx_HAL_Driver/Src/stm32f4xx_hal_exti.c **** /* Private variables ---------------------------------------------------------*/
 117:/home/vtrnnhlinh/STM32Cube/Repository/STM32Cube_FW_F4_V1.28.0/Drivers/STM32F4xx_HAL_Driver/Src/stm32f4xx_hal_exti.c **** /* Private function prototypes -----------------------------------------------*/
 118:/home/vtrnnhlinh/STM32Cube/Repository/STM32Cube_FW_F4_V1.28.0/Drivers/STM32F4xx_HAL_Driver/Src/stm32f4xx_hal_exti.c **** /* Exported functions --------------------------------------------------------*/
 119:/home/vtrnnhlinh/STM32Cube/Repository/STM32Cube_FW_F4_V1.28.0/Drivers/STM32F4xx_HAL_Driver/Src/stm32f4xx_hal_exti.c **** 
 120:/home/vtrnnhlinh/STM32Cube/Repository/STM32Cube_FW_F4_V1.28.0/Drivers/STM32F4xx_HAL_Driver/Src/stm32f4xx_hal_exti.c **** /** @addtogroup EXTI_Exported_Functions
 121:/home/vtrnnhlinh/STM32Cube/Repository/STM32Cube_FW_F4_V1.28.0/Drivers/STM32F4xx_HAL_Driver/Src/stm32f4xx_hal_exti.c ****   * @{
 122:/home/vtrnnhlinh/STM32Cube/Repository/STM32Cube_FW_F4_V1.28.0/Drivers/STM32F4xx_HAL_Driver/Src/stm32f4xx_hal_exti.c ****   */
 123:/home/vtrnnhlinh/STM32Cube/Repository/STM32Cube_FW_F4_V1.28.0/Drivers/STM32F4xx_HAL_Driver/Src/stm32f4xx_hal_exti.c **** 
 124:/home/vtrnnhlinh/STM32Cube/Repository/STM32Cube_FW_F4_V1.28.0/Drivers/STM32F4xx_HAL_Driver/Src/stm32f4xx_hal_exti.c **** /** @addtogroup EXTI_Exported_Functions_Group1
 125:/home/vtrnnhlinh/STM32Cube/Repository/STM32Cube_FW_F4_V1.28.0/Drivers/STM32F4xx_HAL_Driver/Src/stm32f4xx_hal_exti.c ****   *  @brief    Configuration functions
 126:/home/vtrnnhlinh/STM32Cube/Repository/STM32Cube_FW_F4_V1.28.0/Drivers/STM32F4xx_HAL_Driver/Src/stm32f4xx_hal_exti.c ****   *
ARM GAS  /tmp/ccrTh7WC.s 			page 4


 127:/home/vtrnnhlinh/STM32Cube/Repository/STM32Cube_FW_F4_V1.28.0/Drivers/STM32F4xx_HAL_Driver/Src/stm32f4xx_hal_exti.c **** @verbatim
 128:/home/vtrnnhlinh/STM32Cube/Repository/STM32Cube_FW_F4_V1.28.0/Drivers/STM32F4xx_HAL_Driver/Src/stm32f4xx_hal_exti.c ****  ===============================================================================
 129:/home/vtrnnhlinh/STM32Cube/Repository/STM32Cube_FW_F4_V1.28.0/Drivers/STM32F4xx_HAL_Driver/Src/stm32f4xx_hal_exti.c ****               ##### Configuration functions #####
 130:/home/vtrnnhlinh/STM32Cube/Repository/STM32Cube_FW_F4_V1.28.0/Drivers/STM32F4xx_HAL_Driver/Src/stm32f4xx_hal_exti.c ****  ===============================================================================
 131:/home/vtrnnhlinh/STM32Cube/Repository/STM32Cube_FW_F4_V1.28.0/Drivers/STM32F4xx_HAL_Driver/Src/stm32f4xx_hal_exti.c **** 
 132:/home/vtrnnhlinh/STM32Cube/Repository/STM32Cube_FW_F4_V1.28.0/Drivers/STM32F4xx_HAL_Driver/Src/stm32f4xx_hal_exti.c **** @endverbatim
 133:/home/vtrnnhlinh/STM32Cube/Repository/STM32Cube_FW_F4_V1.28.0/Drivers/STM32F4xx_HAL_Driver/Src/stm32f4xx_hal_exti.c ****   * @{
 134:/home/vtrnnhlinh/STM32Cube/Repository/STM32Cube_FW_F4_V1.28.0/Drivers/STM32F4xx_HAL_Driver/Src/stm32f4xx_hal_exti.c ****   */
 135:/home/vtrnnhlinh/STM32Cube/Repository/STM32Cube_FW_F4_V1.28.0/Drivers/STM32F4xx_HAL_Driver/Src/stm32f4xx_hal_exti.c **** 
 136:/home/vtrnnhlinh/STM32Cube/Repository/STM32Cube_FW_F4_V1.28.0/Drivers/STM32F4xx_HAL_Driver/Src/stm32f4xx_hal_exti.c **** /**
 137:/home/vtrnnhlinh/STM32Cube/Repository/STM32Cube_FW_F4_V1.28.0/Drivers/STM32F4xx_HAL_Driver/Src/stm32f4xx_hal_exti.c ****   * @brief  Set configuration of a dedicated Exti line.
 138:/home/vtrnnhlinh/STM32Cube/Repository/STM32Cube_FW_F4_V1.28.0/Drivers/STM32F4xx_HAL_Driver/Src/stm32f4xx_hal_exti.c ****   * @param  hexti Exti handle.
 139:/home/vtrnnhlinh/STM32Cube/Repository/STM32Cube_FW_F4_V1.28.0/Drivers/STM32F4xx_HAL_Driver/Src/stm32f4xx_hal_exti.c ****   * @param  pExtiConfig Pointer on EXTI configuration to be set.
 140:/home/vtrnnhlinh/STM32Cube/Repository/STM32Cube_FW_F4_V1.28.0/Drivers/STM32F4xx_HAL_Driver/Src/stm32f4xx_hal_exti.c ****   * @retval HAL Status.
 141:/home/vtrnnhlinh/STM32Cube/Repository/STM32Cube_FW_F4_V1.28.0/Drivers/STM32F4xx_HAL_Driver/Src/stm32f4xx_hal_exti.c ****   */
 142:/home/vtrnnhlinh/STM32Cube/Repository/STM32Cube_FW_F4_V1.28.0/Drivers/STM32F4xx_HAL_Driver/Src/stm32f4xx_hal_exti.c **** HAL_StatusTypeDef HAL_EXTI_SetConfigLine(EXTI_HandleTypeDef *hexti, EXTI_ConfigTypeDef *pExtiConfig
 143:/home/vtrnnhlinh/STM32Cube/Repository/STM32Cube_FW_F4_V1.28.0/Drivers/STM32F4xx_HAL_Driver/Src/stm32f4xx_hal_exti.c **** {
  36              		.loc 1 143 1 view -0
  37              		.cfi_startproc
  38              		@ args = 0, pretend = 0, frame = 0
  39              		@ frame_needed = 0, uses_anonymous_args = 0
 144:/home/vtrnnhlinh/STM32Cube/Repository/STM32Cube_FW_F4_V1.28.0/Drivers/STM32F4xx_HAL_Driver/Src/stm32f4xx_hal_exti.c ****   uint32_t regval;
  40              		.loc 1 144 3 view .LVU1
 145:/home/vtrnnhlinh/STM32Cube/Repository/STM32Cube_FW_F4_V1.28.0/Drivers/STM32F4xx_HAL_Driver/Src/stm32f4xx_hal_exti.c ****   uint32_t linepos;
  41              		.loc 1 145 3 view .LVU2
 146:/home/vtrnnhlinh/STM32Cube/Repository/STM32Cube_FW_F4_V1.28.0/Drivers/STM32F4xx_HAL_Driver/Src/stm32f4xx_hal_exti.c ****   uint32_t maskline;
  42              		.loc 1 146 3 view .LVU3
 147:/home/vtrnnhlinh/STM32Cube/Repository/STM32Cube_FW_F4_V1.28.0/Drivers/STM32F4xx_HAL_Driver/Src/stm32f4xx_hal_exti.c **** 
 148:/home/vtrnnhlinh/STM32Cube/Repository/STM32Cube_FW_F4_V1.28.0/Drivers/STM32F4xx_HAL_Driver/Src/stm32f4xx_hal_exti.c ****   /* Check null pointer */
 149:/home/vtrnnhlinh/STM32Cube/Repository/STM32Cube_FW_F4_V1.28.0/Drivers/STM32F4xx_HAL_Driver/Src/stm32f4xx_hal_exti.c ****   if ((hexti == NULL) || (pExtiConfig == NULL))
  43              		.loc 1 149 3 view .LVU4
  44              		.loc 1 149 6 is_stmt 0 view .LVU5
  45 0000 0028     		cmp	r0, #0
  46 0002 00F09E80 		beq	.L19
 143:/home/vtrnnhlinh/STM32Cube/Repository/STM32Cube_FW_F4_V1.28.0/Drivers/STM32F4xx_HAL_Driver/Src/stm32f4xx_hal_exti.c ****   uint32_t regval;
  47              		.loc 1 143 1 discriminator 1 view .LVU6
  48 0006 F8B5     		push	{r3, r4, r5, r6, r7, lr}
  49              	.LCFI0:
  50              		.cfi_def_cfa_offset 24
  51              		.cfi_offset 3, -24
  52              		.cfi_offset 4, -20
  53              		.cfi_offset 5, -16
  54              		.cfi_offset 6, -12
  55              		.cfi_offset 7, -8
  56              		.cfi_offset 14, -4
  57 0008 0C46     		mov	r4, r1
  58 000a 0546     		mov	r5, r0
  59              		.loc 1 149 23 discriminator 1 view .LVU7
  60 000c 0029     		cmp	r1, #0
  61 000e 00F09A80 		beq	.L20
 150:/home/vtrnnhlinh/STM32Cube/Repository/STM32Cube_FW_F4_V1.28.0/Drivers/STM32F4xx_HAL_Driver/Src/stm32f4xx_hal_exti.c ****   {
 151:/home/vtrnnhlinh/STM32Cube/Repository/STM32Cube_FW_F4_V1.28.0/Drivers/STM32F4xx_HAL_Driver/Src/stm32f4xx_hal_exti.c ****     return HAL_ERROR;
 152:/home/vtrnnhlinh/STM32Cube/Repository/STM32Cube_FW_F4_V1.28.0/Drivers/STM32F4xx_HAL_Driver/Src/stm32f4xx_hal_exti.c ****   }
 153:/home/vtrnnhlinh/STM32Cube/Repository/STM32Cube_FW_F4_V1.28.0/Drivers/STM32F4xx_HAL_Driver/Src/stm32f4xx_hal_exti.c **** 
 154:/home/vtrnnhlinh/STM32Cube/Repository/STM32Cube_FW_F4_V1.28.0/Drivers/STM32F4xx_HAL_Driver/Src/stm32f4xx_hal_exti.c ****   /* Check parameters */
 155:/home/vtrnnhlinh/STM32Cube/Repository/STM32Cube_FW_F4_V1.28.0/Drivers/STM32F4xx_HAL_Driver/Src/stm32f4xx_hal_exti.c ****   assert_param(IS_EXTI_LINE(pExtiConfig->Line));
  62              		.loc 1 155 3 is_stmt 1 view .LVU8
ARM GAS  /tmp/ccrTh7WC.s 			page 5


  63 0012 0A68     		ldr	r2, [r1]
  64 0014 22F0C063 		bic	r3, r2, #100663296
  65 0018 23F01F03 		bic	r3, r3, #31
  66 001c 3BB9     		cbnz	r3, .L3
  67              		.loc 1 155 3 is_stmt 0 discriminator 2 view .LVU9
  68 001e 02F0C063 		and	r3, r2, #100663296
  69 0022 B3F1007F 		cmp	r3, #33554432
  70 0026 46D0     		beq	.L4
  71              		.loc 1 155 3 discriminator 3 view .LVU10
  72 0028 B3F1C06F 		cmp	r3, #100663296
  73 002c 43D0     		beq	.L4
  74              	.L3:
  75              		.loc 1 155 3 discriminator 7 view .LVU11
  76 002e 9B21     		movs	r1, #155
  77              	.LVL1:
  78              		.loc 1 155 3 discriminator 7 view .LVU12
  79 0030 4648     		ldr	r0, .L29
  80              	.LVL2:
  81              		.loc 1 155 3 discriminator 7 view .LVU13
  82 0032 FFF7FEFF 		bl	assert_failed
  83              	.LVL3:
  84              	.L5:
 156:/home/vtrnnhlinh/STM32Cube/Repository/STM32Cube_FW_F4_V1.28.0/Drivers/STM32F4xx_HAL_Driver/Src/stm32f4xx_hal_exti.c ****   assert_param(IS_EXTI_MODE(pExtiConfig->Mode));
  85              		.loc 1 156 3 is_stmt 1 view .LVU14
  86 0036 6368     		ldr	r3, [r4, #4]
  87 0038 13F0030F 		tst	r3, #3
  88 003c 02D0     		beq	.L6
  89              		.loc 1 156 3 is_stmt 0 discriminator 2 view .LVU15
  90 003e 33F00303 		bics	r3, r3, #3
  91 0042 03D0     		beq	.L7
  92              	.L6:
  93              		.loc 1 156 3 discriminator 3 view .LVU16
  94 0044 9C21     		movs	r1, #156
  95 0046 4148     		ldr	r0, .L29
  96 0048 FFF7FEFF 		bl	assert_failed
  97              	.LVL4:
  98              	.L7:
 157:/home/vtrnnhlinh/STM32Cube/Repository/STM32Cube_FW_F4_V1.28.0/Drivers/STM32F4xx_HAL_Driver/Src/stm32f4xx_hal_exti.c **** 
 158:/home/vtrnnhlinh/STM32Cube/Repository/STM32Cube_FW_F4_V1.28.0/Drivers/STM32F4xx_HAL_Driver/Src/stm32f4xx_hal_exti.c ****   /* Assign line number to handle */
 159:/home/vtrnnhlinh/STM32Cube/Repository/STM32Cube_FW_F4_V1.28.0/Drivers/STM32F4xx_HAL_Driver/Src/stm32f4xx_hal_exti.c ****   hexti->Line = pExtiConfig->Line;
  99              		.loc 1 159 3 is_stmt 1 view .LVU17
 100              		.loc 1 159 28 is_stmt 0 view .LVU18
 101 004c 2668     		ldr	r6, [r4]
 102              		.loc 1 159 15 view .LVU19
 103 004e 2E60     		str	r6, [r5]
 160:/home/vtrnnhlinh/STM32Cube/Repository/STM32Cube_FW_F4_V1.28.0/Drivers/STM32F4xx_HAL_Driver/Src/stm32f4xx_hal_exti.c **** 
 161:/home/vtrnnhlinh/STM32Cube/Repository/STM32Cube_FW_F4_V1.28.0/Drivers/STM32F4xx_HAL_Driver/Src/stm32f4xx_hal_exti.c ****   /* Compute line mask */
 162:/home/vtrnnhlinh/STM32Cube/Repository/STM32Cube_FW_F4_V1.28.0/Drivers/STM32F4xx_HAL_Driver/Src/stm32f4xx_hal_exti.c ****   linepos = (pExtiConfig->Line & EXTI_PIN_MASK);
 104              		.loc 1 162 3 is_stmt 1 view .LVU20
 105              		.loc 1 162 11 is_stmt 0 view .LVU21
 106 0050 06F01F07 		and	r7, r6, #31
 107              	.LVL5:
 163:/home/vtrnnhlinh/STM32Cube/Repository/STM32Cube_FW_F4_V1.28.0/Drivers/STM32F4xx_HAL_Driver/Src/stm32f4xx_hal_exti.c ****   maskline = (1uL << linepos);
 108              		.loc 1 163 3 is_stmt 1 view .LVU22
 109              		.loc 1 163 12 is_stmt 0 view .LVU23
 110 0054 0125     		movs	r5, #1
 111              	.LVL6:
ARM GAS  /tmp/ccrTh7WC.s 			page 6


 112              		.loc 1 163 12 view .LVU24
 113 0056 BD40     		lsls	r5, r5, r7
 114              	.LVL7:
 164:/home/vtrnnhlinh/STM32Cube/Repository/STM32Cube_FW_F4_V1.28.0/Drivers/STM32F4xx_HAL_Driver/Src/stm32f4xx_hal_exti.c **** 
 165:/home/vtrnnhlinh/STM32Cube/Repository/STM32Cube_FW_F4_V1.28.0/Drivers/STM32F4xx_HAL_Driver/Src/stm32f4xx_hal_exti.c ****   /* Configure triggers for configurable lines */
 166:/home/vtrnnhlinh/STM32Cube/Repository/STM32Cube_FW_F4_V1.28.0/Drivers/STM32F4xx_HAL_Driver/Src/stm32f4xx_hal_exti.c ****   if ((pExtiConfig->Line & EXTI_CONFIG) != 0x00u)
 115              		.loc 1 166 3 is_stmt 1 view .LVU25
 116              		.loc 1 166 6 is_stmt 0 view .LVU26
 117 0058 16F0007F 		tst	r6, #33554432
 118 005c 19D0     		beq	.L8
 167:/home/vtrnnhlinh/STM32Cube/Repository/STM32Cube_FW_F4_V1.28.0/Drivers/STM32F4xx_HAL_Driver/Src/stm32f4xx_hal_exti.c ****   {
 168:/home/vtrnnhlinh/STM32Cube/Repository/STM32Cube_FW_F4_V1.28.0/Drivers/STM32F4xx_HAL_Driver/Src/stm32f4xx_hal_exti.c ****     assert_param(IS_EXTI_TRIGGER(pExtiConfig->Trigger));
 119              		.loc 1 168 5 is_stmt 1 view .LVU27
 120 005e A368     		ldr	r3, [r4, #8]
 121 0060 33F00303 		bics	r3, r3, #3
 122 0064 2CD1     		bne	.L25
 123              	.L9:
 169:/home/vtrnnhlinh/STM32Cube/Repository/STM32Cube_FW_F4_V1.28.0/Drivers/STM32F4xx_HAL_Driver/Src/stm32f4xx_hal_exti.c **** 
 170:/home/vtrnnhlinh/STM32Cube/Repository/STM32Cube_FW_F4_V1.28.0/Drivers/STM32F4xx_HAL_Driver/Src/stm32f4xx_hal_exti.c ****     /* Configure rising trigger */
 171:/home/vtrnnhlinh/STM32Cube/Repository/STM32Cube_FW_F4_V1.28.0/Drivers/STM32F4xx_HAL_Driver/Src/stm32f4xx_hal_exti.c ****     /* Mask or set line */
 172:/home/vtrnnhlinh/STM32Cube/Repository/STM32Cube_FW_F4_V1.28.0/Drivers/STM32F4xx_HAL_Driver/Src/stm32f4xx_hal_exti.c ****     if ((pExtiConfig->Trigger & EXTI_TRIGGER_RISING) != 0x00u)
 124              		.loc 1 172 5 view .LVU28
 125              		.loc 1 172 21 is_stmt 0 view .LVU29
 126 0066 A368     		ldr	r3, [r4, #8]
 127              		.loc 1 172 8 view .LVU30
 128 0068 13F0010F 		tst	r3, #1
 129 006c 2DD0     		beq	.L10
 173:/home/vtrnnhlinh/STM32Cube/Repository/STM32Cube_FW_F4_V1.28.0/Drivers/STM32F4xx_HAL_Driver/Src/stm32f4xx_hal_exti.c ****     {
 174:/home/vtrnnhlinh/STM32Cube/Repository/STM32Cube_FW_F4_V1.28.0/Drivers/STM32F4xx_HAL_Driver/Src/stm32f4xx_hal_exti.c ****       EXTI->RTSR |= maskline;
 130              		.loc 1 174 7 is_stmt 1 view .LVU31
 131              		.loc 1 174 18 is_stmt 0 view .LVU32
 132 006e 384A     		ldr	r2, .L29+4
 133 0070 9368     		ldr	r3, [r2, #8]
 134 0072 2B43     		orrs	r3, r3, r5
 135 0074 9360     		str	r3, [r2, #8]
 136              	.L11:
 175:/home/vtrnnhlinh/STM32Cube/Repository/STM32Cube_FW_F4_V1.28.0/Drivers/STM32F4xx_HAL_Driver/Src/stm32f4xx_hal_exti.c ****     }
 176:/home/vtrnnhlinh/STM32Cube/Repository/STM32Cube_FW_F4_V1.28.0/Drivers/STM32F4xx_HAL_Driver/Src/stm32f4xx_hal_exti.c ****     else
 177:/home/vtrnnhlinh/STM32Cube/Repository/STM32Cube_FW_F4_V1.28.0/Drivers/STM32F4xx_HAL_Driver/Src/stm32f4xx_hal_exti.c ****     {
 178:/home/vtrnnhlinh/STM32Cube/Repository/STM32Cube_FW_F4_V1.28.0/Drivers/STM32F4xx_HAL_Driver/Src/stm32f4xx_hal_exti.c ****       EXTI->RTSR &= ~maskline;
 179:/home/vtrnnhlinh/STM32Cube/Repository/STM32Cube_FW_F4_V1.28.0/Drivers/STM32F4xx_HAL_Driver/Src/stm32f4xx_hal_exti.c ****     }
 180:/home/vtrnnhlinh/STM32Cube/Repository/STM32Cube_FW_F4_V1.28.0/Drivers/STM32F4xx_HAL_Driver/Src/stm32f4xx_hal_exti.c **** 
 181:/home/vtrnnhlinh/STM32Cube/Repository/STM32Cube_FW_F4_V1.28.0/Drivers/STM32F4xx_HAL_Driver/Src/stm32f4xx_hal_exti.c ****     /* Configure falling trigger */
 182:/home/vtrnnhlinh/STM32Cube/Repository/STM32Cube_FW_F4_V1.28.0/Drivers/STM32F4xx_HAL_Driver/Src/stm32f4xx_hal_exti.c ****     /* Mask or set line */
 183:/home/vtrnnhlinh/STM32Cube/Repository/STM32Cube_FW_F4_V1.28.0/Drivers/STM32F4xx_HAL_Driver/Src/stm32f4xx_hal_exti.c ****     if ((pExtiConfig->Trigger & EXTI_TRIGGER_FALLING) != 0x00u)
 137              		.loc 1 183 5 is_stmt 1 view .LVU33
 138              		.loc 1 183 21 is_stmt 0 view .LVU34
 139 0076 A368     		ldr	r3, [r4, #8]
 140              		.loc 1 183 8 view .LVU35
 141 0078 13F0020F 		tst	r3, #2
 142 007c 2BD0     		beq	.L12
 184:/home/vtrnnhlinh/STM32Cube/Repository/STM32Cube_FW_F4_V1.28.0/Drivers/STM32F4xx_HAL_Driver/Src/stm32f4xx_hal_exti.c ****     {
 185:/home/vtrnnhlinh/STM32Cube/Repository/STM32Cube_FW_F4_V1.28.0/Drivers/STM32F4xx_HAL_Driver/Src/stm32f4xx_hal_exti.c ****       EXTI->FTSR |= maskline;
 143              		.loc 1 185 7 is_stmt 1 view .LVU36
 144              		.loc 1 185 18 is_stmt 0 view .LVU37
 145 007e 344A     		ldr	r2, .L29+4
 146 0080 D368     		ldr	r3, [r2, #12]
ARM GAS  /tmp/ccrTh7WC.s 			page 7


 147 0082 2B43     		orrs	r3, r3, r5
 148 0084 D360     		str	r3, [r2, #12]
 149              	.L13:
 186:/home/vtrnnhlinh/STM32Cube/Repository/STM32Cube_FW_F4_V1.28.0/Drivers/STM32F4xx_HAL_Driver/Src/stm32f4xx_hal_exti.c ****     }
 187:/home/vtrnnhlinh/STM32Cube/Repository/STM32Cube_FW_F4_V1.28.0/Drivers/STM32F4xx_HAL_Driver/Src/stm32f4xx_hal_exti.c ****     else
 188:/home/vtrnnhlinh/STM32Cube/Repository/STM32Cube_FW_F4_V1.28.0/Drivers/STM32F4xx_HAL_Driver/Src/stm32f4xx_hal_exti.c ****     {
 189:/home/vtrnnhlinh/STM32Cube/Repository/STM32Cube_FW_F4_V1.28.0/Drivers/STM32F4xx_HAL_Driver/Src/stm32f4xx_hal_exti.c ****       EXTI->FTSR &= ~maskline;
 190:/home/vtrnnhlinh/STM32Cube/Repository/STM32Cube_FW_F4_V1.28.0/Drivers/STM32F4xx_HAL_Driver/Src/stm32f4xx_hal_exti.c ****     }
 191:/home/vtrnnhlinh/STM32Cube/Repository/STM32Cube_FW_F4_V1.28.0/Drivers/STM32F4xx_HAL_Driver/Src/stm32f4xx_hal_exti.c **** 
 192:/home/vtrnnhlinh/STM32Cube/Repository/STM32Cube_FW_F4_V1.28.0/Drivers/STM32F4xx_HAL_Driver/Src/stm32f4xx_hal_exti.c **** 
 193:/home/vtrnnhlinh/STM32Cube/Repository/STM32Cube_FW_F4_V1.28.0/Drivers/STM32F4xx_HAL_Driver/Src/stm32f4xx_hal_exti.c ****     /* Configure gpio port selection in case of gpio exti line */
 194:/home/vtrnnhlinh/STM32Cube/Repository/STM32Cube_FW_F4_V1.28.0/Drivers/STM32F4xx_HAL_Driver/Src/stm32f4xx_hal_exti.c ****     if ((pExtiConfig->Line & EXTI_GPIO) == EXTI_GPIO)
 150              		.loc 1 194 5 is_stmt 1 view .LVU38
 151              		.loc 1 194 21 is_stmt 0 view .LVU39
 152 0086 2368     		ldr	r3, [r4]
 153              		.loc 1 194 28 view .LVU40
 154 0088 03F0C063 		and	r3, r3, #100663296
 155              		.loc 1 194 8 view .LVU41
 156 008c B3F1C06F 		cmp	r3, #100663296
 157 0090 27D0     		beq	.L26
 158              	.LVL8:
 159              	.L8:
 195:/home/vtrnnhlinh/STM32Cube/Repository/STM32Cube_FW_F4_V1.28.0/Drivers/STM32F4xx_HAL_Driver/Src/stm32f4xx_hal_exti.c ****     {
 196:/home/vtrnnhlinh/STM32Cube/Repository/STM32Cube_FW_F4_V1.28.0/Drivers/STM32F4xx_HAL_Driver/Src/stm32f4xx_hal_exti.c ****       assert_param(IS_EXTI_GPIO_PORT(pExtiConfig->GPIOSel));
 197:/home/vtrnnhlinh/STM32Cube/Repository/STM32Cube_FW_F4_V1.28.0/Drivers/STM32F4xx_HAL_Driver/Src/stm32f4xx_hal_exti.c ****       assert_param(IS_EXTI_GPIO_PIN(linepos));
 198:/home/vtrnnhlinh/STM32Cube/Repository/STM32Cube_FW_F4_V1.28.0/Drivers/STM32F4xx_HAL_Driver/Src/stm32f4xx_hal_exti.c **** 
 199:/home/vtrnnhlinh/STM32Cube/Repository/STM32Cube_FW_F4_V1.28.0/Drivers/STM32F4xx_HAL_Driver/Src/stm32f4xx_hal_exti.c ****       regval = SYSCFG->EXTICR[linepos >> 2u];
 200:/home/vtrnnhlinh/STM32Cube/Repository/STM32Cube_FW_F4_V1.28.0/Drivers/STM32F4xx_HAL_Driver/Src/stm32f4xx_hal_exti.c ****       regval &= ~(SYSCFG_EXTICR1_EXTI0 << (SYSCFG_EXTICR1_EXTI1_Pos * (linepos & 0x03u)));
 201:/home/vtrnnhlinh/STM32Cube/Repository/STM32Cube_FW_F4_V1.28.0/Drivers/STM32F4xx_HAL_Driver/Src/stm32f4xx_hal_exti.c ****       regval |= (pExtiConfig->GPIOSel << (SYSCFG_EXTICR1_EXTI1_Pos * (linepos & 0x03u)));
 202:/home/vtrnnhlinh/STM32Cube/Repository/STM32Cube_FW_F4_V1.28.0/Drivers/STM32F4xx_HAL_Driver/Src/stm32f4xx_hal_exti.c ****       SYSCFG->EXTICR[linepos >> 2u] = regval;
 203:/home/vtrnnhlinh/STM32Cube/Repository/STM32Cube_FW_F4_V1.28.0/Drivers/STM32F4xx_HAL_Driver/Src/stm32f4xx_hal_exti.c ****     }
 204:/home/vtrnnhlinh/STM32Cube/Repository/STM32Cube_FW_F4_V1.28.0/Drivers/STM32F4xx_HAL_Driver/Src/stm32f4xx_hal_exti.c ****   }
 205:/home/vtrnnhlinh/STM32Cube/Repository/STM32Cube_FW_F4_V1.28.0/Drivers/STM32F4xx_HAL_Driver/Src/stm32f4xx_hal_exti.c **** 
 206:/home/vtrnnhlinh/STM32Cube/Repository/STM32Cube_FW_F4_V1.28.0/Drivers/STM32F4xx_HAL_Driver/Src/stm32f4xx_hal_exti.c ****   /* Configure interrupt mode : read current mode */
 207:/home/vtrnnhlinh/STM32Cube/Repository/STM32Cube_FW_F4_V1.28.0/Drivers/STM32F4xx_HAL_Driver/Src/stm32f4xx_hal_exti.c ****   /* Mask or set line */
 208:/home/vtrnnhlinh/STM32Cube/Repository/STM32Cube_FW_F4_V1.28.0/Drivers/STM32F4xx_HAL_Driver/Src/stm32f4xx_hal_exti.c ****   if ((pExtiConfig->Mode & EXTI_MODE_INTERRUPT) != 0x00u)
 160              		.loc 1 208 3 is_stmt 1 view .LVU42
 161              		.loc 1 208 19 is_stmt 0 view .LVU43
 162 0092 6368     		ldr	r3, [r4, #4]
 163              		.loc 1 208 6 view .LVU44
 164 0094 13F0010F 		tst	r3, #1
 165 0098 46D0     		beq	.L16
 209:/home/vtrnnhlinh/STM32Cube/Repository/STM32Cube_FW_F4_V1.28.0/Drivers/STM32F4xx_HAL_Driver/Src/stm32f4xx_hal_exti.c ****   {
 210:/home/vtrnnhlinh/STM32Cube/Repository/STM32Cube_FW_F4_V1.28.0/Drivers/STM32F4xx_HAL_Driver/Src/stm32f4xx_hal_exti.c ****     EXTI->IMR |= maskline;
 166              		.loc 1 210 5 is_stmt 1 view .LVU45
 167              		.loc 1 210 15 is_stmt 0 view .LVU46
 168 009a 2D4A     		ldr	r2, .L29+4
 169 009c 1368     		ldr	r3, [r2]
 170 009e 2B43     		orrs	r3, r3, r5
 171 00a0 1360     		str	r3, [r2]
 172              	.L17:
 211:/home/vtrnnhlinh/STM32Cube/Repository/STM32Cube_FW_F4_V1.28.0/Drivers/STM32F4xx_HAL_Driver/Src/stm32f4xx_hal_exti.c ****   }
 212:/home/vtrnnhlinh/STM32Cube/Repository/STM32Cube_FW_F4_V1.28.0/Drivers/STM32F4xx_HAL_Driver/Src/stm32f4xx_hal_exti.c ****   else
 213:/home/vtrnnhlinh/STM32Cube/Repository/STM32Cube_FW_F4_V1.28.0/Drivers/STM32F4xx_HAL_Driver/Src/stm32f4xx_hal_exti.c ****   {
 214:/home/vtrnnhlinh/STM32Cube/Repository/STM32Cube_FW_F4_V1.28.0/Drivers/STM32F4xx_HAL_Driver/Src/stm32f4xx_hal_exti.c ****     EXTI->IMR &= ~maskline;
 215:/home/vtrnnhlinh/STM32Cube/Repository/STM32Cube_FW_F4_V1.28.0/Drivers/STM32F4xx_HAL_Driver/Src/stm32f4xx_hal_exti.c ****   }
 216:/home/vtrnnhlinh/STM32Cube/Repository/STM32Cube_FW_F4_V1.28.0/Drivers/STM32F4xx_HAL_Driver/Src/stm32f4xx_hal_exti.c **** 
ARM GAS  /tmp/ccrTh7WC.s 			page 8


 217:/home/vtrnnhlinh/STM32Cube/Repository/STM32Cube_FW_F4_V1.28.0/Drivers/STM32F4xx_HAL_Driver/Src/stm32f4xx_hal_exti.c ****   /* Configure event mode : read current mode */
 218:/home/vtrnnhlinh/STM32Cube/Repository/STM32Cube_FW_F4_V1.28.0/Drivers/STM32F4xx_HAL_Driver/Src/stm32f4xx_hal_exti.c ****   /* Mask or set line */
 219:/home/vtrnnhlinh/STM32Cube/Repository/STM32Cube_FW_F4_V1.28.0/Drivers/STM32F4xx_HAL_Driver/Src/stm32f4xx_hal_exti.c ****   if ((pExtiConfig->Mode & EXTI_MODE_EVENT) != 0x00u)
 173              		.loc 1 219 3 is_stmt 1 view .LVU47
 174              		.loc 1 219 19 is_stmt 0 view .LVU48
 175 00a2 6368     		ldr	r3, [r4, #4]
 176              		.loc 1 219 6 view .LVU49
 177 00a4 13F0020F 		tst	r3, #2
 178 00a8 44D0     		beq	.L18
 220:/home/vtrnnhlinh/STM32Cube/Repository/STM32Cube_FW_F4_V1.28.0/Drivers/STM32F4xx_HAL_Driver/Src/stm32f4xx_hal_exti.c ****   {
 221:/home/vtrnnhlinh/STM32Cube/Repository/STM32Cube_FW_F4_V1.28.0/Drivers/STM32F4xx_HAL_Driver/Src/stm32f4xx_hal_exti.c ****     EXTI->EMR |= maskline;
 179              		.loc 1 221 5 is_stmt 1 view .LVU50
 180              		.loc 1 221 15 is_stmt 0 view .LVU51
 181 00aa 294A     		ldr	r2, .L29+4
 182 00ac 5368     		ldr	r3, [r2, #4]
 183 00ae 1D43     		orrs	r5, r5, r3
 184              	.LVL9:
 185              		.loc 1 221 15 view .LVU52
 186 00b0 5560     		str	r5, [r2, #4]
 222:/home/vtrnnhlinh/STM32Cube/Repository/STM32Cube_FW_F4_V1.28.0/Drivers/STM32F4xx_HAL_Driver/Src/stm32f4xx_hal_exti.c ****   }
 223:/home/vtrnnhlinh/STM32Cube/Repository/STM32Cube_FW_F4_V1.28.0/Drivers/STM32F4xx_HAL_Driver/Src/stm32f4xx_hal_exti.c ****   else
 224:/home/vtrnnhlinh/STM32Cube/Repository/STM32Cube_FW_F4_V1.28.0/Drivers/STM32F4xx_HAL_Driver/Src/stm32f4xx_hal_exti.c ****   {
 225:/home/vtrnnhlinh/STM32Cube/Repository/STM32Cube_FW_F4_V1.28.0/Drivers/STM32F4xx_HAL_Driver/Src/stm32f4xx_hal_exti.c ****     EXTI->EMR &= ~maskline;
 226:/home/vtrnnhlinh/STM32Cube/Repository/STM32Cube_FW_F4_V1.28.0/Drivers/STM32F4xx_HAL_Driver/Src/stm32f4xx_hal_exti.c ****   }
 227:/home/vtrnnhlinh/STM32Cube/Repository/STM32Cube_FW_F4_V1.28.0/Drivers/STM32F4xx_HAL_Driver/Src/stm32f4xx_hal_exti.c **** 
 228:/home/vtrnnhlinh/STM32Cube/Repository/STM32Cube_FW_F4_V1.28.0/Drivers/STM32F4xx_HAL_Driver/Src/stm32f4xx_hal_exti.c ****   return HAL_OK;
 187              		.loc 1 228 10 view .LVU53
 188 00b2 0020     		movs	r0, #0
 189              	.L2:
 229:/home/vtrnnhlinh/STM32Cube/Repository/STM32Cube_FW_F4_V1.28.0/Drivers/STM32F4xx_HAL_Driver/Src/stm32f4xx_hal_exti.c **** }
 190              		.loc 1 229 1 view .LVU54
 191 00b4 F8BD     		pop	{r3, r4, r5, r6, r7, pc}
 192              	.LVL10:
 193              	.L4:
 155:/home/vtrnnhlinh/STM32Cube/Repository/STM32Cube_FW_F4_V1.28.0/Drivers/STM32F4xx_HAL_Driver/Src/stm32f4xx_hal_exti.c ****   assert_param(IS_EXTI_MODE(pExtiConfig->Mode));
 194              		.loc 1 155 3 discriminator 6 view .LVU55
 195 00b6 02F01F02 		and	r2, r2, #31
 196 00ba 162A     		cmp	r2, #22
 197 00bc BBD9     		bls	.L5
 198 00be B6E7     		b	.L3
 199              	.LVL11:
 200              	.L25:
 168:/home/vtrnnhlinh/STM32Cube/Repository/STM32Cube_FW_F4_V1.28.0/Drivers/STM32F4xx_HAL_Driver/Src/stm32f4xx_hal_exti.c **** 
 201              		.loc 1 168 5 discriminator 1 view .LVU56
 202 00c0 A821     		movs	r1, #168
 203 00c2 2248     		ldr	r0, .L29
 204 00c4 FFF7FEFF 		bl	assert_failed
 205              	.LVL12:
 206 00c8 CDE7     		b	.L9
 207              	.L10:
 178:/home/vtrnnhlinh/STM32Cube/Repository/STM32Cube_FW_F4_V1.28.0/Drivers/STM32F4xx_HAL_Driver/Src/stm32f4xx_hal_exti.c ****     }
 208              		.loc 1 178 7 is_stmt 1 view .LVU57
 178:/home/vtrnnhlinh/STM32Cube/Repository/STM32Cube_FW_F4_V1.28.0/Drivers/STM32F4xx_HAL_Driver/Src/stm32f4xx_hal_exti.c ****     }
 209              		.loc 1 178 18 is_stmt 0 view .LVU58
 210 00ca 214A     		ldr	r2, .L29+4
 211 00cc 9368     		ldr	r3, [r2, #8]
 212 00ce 23EA0503 		bic	r3, r3, r5
ARM GAS  /tmp/ccrTh7WC.s 			page 9


 213 00d2 9360     		str	r3, [r2, #8]
 214 00d4 CFE7     		b	.L11
 215              	.L12:
 189:/home/vtrnnhlinh/STM32Cube/Repository/STM32Cube_FW_F4_V1.28.0/Drivers/STM32F4xx_HAL_Driver/Src/stm32f4xx_hal_exti.c ****     }
 216              		.loc 1 189 7 is_stmt 1 view .LVU59
 189:/home/vtrnnhlinh/STM32Cube/Repository/STM32Cube_FW_F4_V1.28.0/Drivers/STM32F4xx_HAL_Driver/Src/stm32f4xx_hal_exti.c ****     }
 217              		.loc 1 189 18 is_stmt 0 view .LVU60
 218 00d6 1E4A     		ldr	r2, .L29+4
 219 00d8 D368     		ldr	r3, [r2, #12]
 220 00da 23EA0503 		bic	r3, r3, r5
 221 00de D360     		str	r3, [r2, #12]
 222 00e0 D1E7     		b	.L13
 223              	.L26:
 196:/home/vtrnnhlinh/STM32Cube/Repository/STM32Cube_FW_F4_V1.28.0/Drivers/STM32F4xx_HAL_Driver/Src/stm32f4xx_hal_exti.c ****       assert_param(IS_EXTI_GPIO_PIN(linepos));
 224              		.loc 1 196 7 is_stmt 1 view .LVU61
 225 00e2 E368     		ldr	r3, [r4, #12]
 226 00e4 082B     		cmp	r3, #8
 227 00e6 15D8     		bhi	.L27
 228              	.L14:
 197:/home/vtrnnhlinh/STM32Cube/Repository/STM32Cube_FW_F4_V1.28.0/Drivers/STM32F4xx_HAL_Driver/Src/stm32f4xx_hal_exti.c **** 
 229              		.loc 1 197 7 view .LVU62
 230 00e8 16F0100F 		tst	r6, #16
 231 00ec 17D1     		bne	.L28
 232              	.L15:
 199:/home/vtrnnhlinh/STM32Cube/Repository/STM32Cube_FW_F4_V1.28.0/Drivers/STM32F4xx_HAL_Driver/Src/stm32f4xx_hal_exti.c ****       regval &= ~(SYSCFG_EXTICR1_EXTI0 << (SYSCFG_EXTICR1_EXTI1_Pos * (linepos & 0x03u)));
 233              		.loc 1 199 7 view .LVU63
 199:/home/vtrnnhlinh/STM32Cube/Repository/STM32Cube_FW_F4_V1.28.0/Drivers/STM32F4xx_HAL_Driver/Src/stm32f4xx_hal_exti.c ****       regval &= ~(SYSCFG_EXTICR1_EXTI0 << (SYSCFG_EXTICR1_EXTI1_Pos * (linepos & 0x03u)));
 234              		.loc 1 199 39 is_stmt 0 view .LVU64
 235 00ee BF08     		lsrs	r7, r7, #2
 236              	.LVL13:
 199:/home/vtrnnhlinh/STM32Cube/Repository/STM32Cube_FW_F4_V1.28.0/Drivers/STM32F4xx_HAL_Driver/Src/stm32f4xx_hal_exti.c ****       regval &= ~(SYSCFG_EXTICR1_EXTI0 << (SYSCFG_EXTICR1_EXTI1_Pos * (linepos & 0x03u)));
 237              		.loc 1 199 14 view .LVU65
 238 00f0 1849     		ldr	r1, .L29+8
 239 00f2 0237     		adds	r7, r7, #2
 240 00f4 51F82720 		ldr	r2, [r1, r7, lsl #2]
 241              	.LVL14:
 200:/home/vtrnnhlinh/STM32Cube/Repository/STM32Cube_FW_F4_V1.28.0/Drivers/STM32F4xx_HAL_Driver/Src/stm32f4xx_hal_exti.c ****       regval |= (pExtiConfig->GPIOSel << (SYSCFG_EXTICR1_EXTI1_Pos * (linepos & 0x03u)));
 242              		.loc 1 200 7 is_stmt 1 view .LVU66
 200:/home/vtrnnhlinh/STM32Cube/Repository/STM32Cube_FW_F4_V1.28.0/Drivers/STM32F4xx_HAL_Driver/Src/stm32f4xx_hal_exti.c ****       regval |= (pExtiConfig->GPIOSel << (SYSCFG_EXTICR1_EXTI1_Pos * (linepos & 0x03u)));
 243              		.loc 1 200 80 is_stmt 0 view .LVU67
 244 00f8 06F00306 		and	r6, r6, #3
 245              	.LVL15:
 200:/home/vtrnnhlinh/STM32Cube/Repository/STM32Cube_FW_F4_V1.28.0/Drivers/STM32F4xx_HAL_Driver/Src/stm32f4xx_hal_exti.c ****       regval |= (pExtiConfig->GPIOSel << (SYSCFG_EXTICR1_EXTI1_Pos * (linepos & 0x03u)));
 246              		.loc 1 200 69 view .LVU68
 247 00fc B600     		lsls	r6, r6, #2
 200:/home/vtrnnhlinh/STM32Cube/Repository/STM32Cube_FW_F4_V1.28.0/Drivers/STM32F4xx_HAL_Driver/Src/stm32f4xx_hal_exti.c ****       regval |= (pExtiConfig->GPIOSel << (SYSCFG_EXTICR1_EXTI1_Pos * (linepos & 0x03u)));
 248              		.loc 1 200 40 view .LVU69
 249 00fe 0F23     		movs	r3, #15
 250 0100 B340     		lsls	r3, r3, r6
 200:/home/vtrnnhlinh/STM32Cube/Repository/STM32Cube_FW_F4_V1.28.0/Drivers/STM32F4xx_HAL_Driver/Src/stm32f4xx_hal_exti.c ****       regval |= (pExtiConfig->GPIOSel << (SYSCFG_EXTICR1_EXTI1_Pos * (linepos & 0x03u)));
 251              		.loc 1 200 14 view .LVU70
 252 0102 22EA0302 		bic	r2, r2, r3
 253              	.LVL16:
 201:/home/vtrnnhlinh/STM32Cube/Repository/STM32Cube_FW_F4_V1.28.0/Drivers/STM32F4xx_HAL_Driver/Src/stm32f4xx_hal_exti.c ****       SYSCFG->EXTICR[linepos >> 2u] = regval;
 254              		.loc 1 201 7 is_stmt 1 view .LVU71
 201:/home/vtrnnhlinh/STM32Cube/Repository/STM32Cube_FW_F4_V1.28.0/Drivers/STM32F4xx_HAL_Driver/Src/stm32f4xx_hal_exti.c ****       SYSCFG->EXTICR[linepos >> 2u] = regval;
 255              		.loc 1 201 29 is_stmt 0 view .LVU72
ARM GAS  /tmp/ccrTh7WC.s 			page 10


 256 0106 E368     		ldr	r3, [r4, #12]
 201:/home/vtrnnhlinh/STM32Cube/Repository/STM32Cube_FW_F4_V1.28.0/Drivers/STM32F4xx_HAL_Driver/Src/stm32f4xx_hal_exti.c ****       SYSCFG->EXTICR[linepos >> 2u] = regval;
 257              		.loc 1 201 39 view .LVU73
 258 0108 03FA06F6 		lsl	r6, r3, r6
 201:/home/vtrnnhlinh/STM32Cube/Repository/STM32Cube_FW_F4_V1.28.0/Drivers/STM32F4xx_HAL_Driver/Src/stm32f4xx_hal_exti.c ****       SYSCFG->EXTICR[linepos >> 2u] = regval;
 259              		.loc 1 201 14 view .LVU74
 260 010c 1643     		orrs	r6, r6, r2
 261              	.LVL17:
 202:/home/vtrnnhlinh/STM32Cube/Repository/STM32Cube_FW_F4_V1.28.0/Drivers/STM32F4xx_HAL_Driver/Src/stm32f4xx_hal_exti.c ****     }
 262              		.loc 1 202 7 is_stmt 1 view .LVU75
 202:/home/vtrnnhlinh/STM32Cube/Repository/STM32Cube_FW_F4_V1.28.0/Drivers/STM32F4xx_HAL_Driver/Src/stm32f4xx_hal_exti.c ****     }
 263              		.loc 1 202 37 is_stmt 0 view .LVU76
 264 010e 41F82760 		str	r6, [r1, r7, lsl #2]
 265 0112 BEE7     		b	.L8
 266              	.LVL18:
 267              	.L27:
 196:/home/vtrnnhlinh/STM32Cube/Repository/STM32Cube_FW_F4_V1.28.0/Drivers/STM32F4xx_HAL_Driver/Src/stm32f4xx_hal_exti.c ****       assert_param(IS_EXTI_GPIO_PIN(linepos));
 268              		.loc 1 196 7 discriminator 1 view .LVU77
 269 0114 C421     		movs	r1, #196
 270 0116 0D48     		ldr	r0, .L29
 271 0118 FFF7FEFF 		bl	assert_failed
 272              	.LVL19:
 273 011c E4E7     		b	.L14
 274              	.L28:
 197:/home/vtrnnhlinh/STM32Cube/Repository/STM32Cube_FW_F4_V1.28.0/Drivers/STM32F4xx_HAL_Driver/Src/stm32f4xx_hal_exti.c **** 
 275              		.loc 1 197 7 discriminator 1 view .LVU78
 276 011e C521     		movs	r1, #197
 277 0120 0A48     		ldr	r0, .L29
 278 0122 FFF7FEFF 		bl	assert_failed
 279              	.LVL20:
 280 0126 E2E7     		b	.L15
 281              	.LVL21:
 282              	.L16:
 214:/home/vtrnnhlinh/STM32Cube/Repository/STM32Cube_FW_F4_V1.28.0/Drivers/STM32F4xx_HAL_Driver/Src/stm32f4xx_hal_exti.c ****   }
 283              		.loc 1 214 5 is_stmt 1 view .LVU79
 214:/home/vtrnnhlinh/STM32Cube/Repository/STM32Cube_FW_F4_V1.28.0/Drivers/STM32F4xx_HAL_Driver/Src/stm32f4xx_hal_exti.c ****   }
 284              		.loc 1 214 15 is_stmt 0 view .LVU80
 285 0128 094A     		ldr	r2, .L29+4
 286 012a 1368     		ldr	r3, [r2]
 287 012c 23EA0503 		bic	r3, r3, r5
 288 0130 1360     		str	r3, [r2]
 289 0132 B6E7     		b	.L17
 290              	.L18:
 225:/home/vtrnnhlinh/STM32Cube/Repository/STM32Cube_FW_F4_V1.28.0/Drivers/STM32F4xx_HAL_Driver/Src/stm32f4xx_hal_exti.c ****   }
 291              		.loc 1 225 5 is_stmt 1 view .LVU81
 225:/home/vtrnnhlinh/STM32Cube/Repository/STM32Cube_FW_F4_V1.28.0/Drivers/STM32F4xx_HAL_Driver/Src/stm32f4xx_hal_exti.c ****   }
 292              		.loc 1 225 15 is_stmt 0 view .LVU82
 293 0134 064A     		ldr	r2, .L29+4
 294 0136 5368     		ldr	r3, [r2, #4]
 295 0138 23EA0505 		bic	r5, r3, r5
 296              	.LVL22:
 225:/home/vtrnnhlinh/STM32Cube/Repository/STM32Cube_FW_F4_V1.28.0/Drivers/STM32F4xx_HAL_Driver/Src/stm32f4xx_hal_exti.c ****   }
 297              		.loc 1 225 15 view .LVU83
 298 013c 5560     		str	r5, [r2, #4]
 228:/home/vtrnnhlinh/STM32Cube/Repository/STM32Cube_FW_F4_V1.28.0/Drivers/STM32F4xx_HAL_Driver/Src/stm32f4xx_hal_exti.c **** }
 299              		.loc 1 228 10 view .LVU84
 300 013e 0020     		movs	r0, #0
ARM GAS  /tmp/ccrTh7WC.s 			page 11


 301 0140 B8E7     		b	.L2
 302              	.LVL23:
 303              	.L19:
 304              	.LCFI1:
 305              		.cfi_def_cfa_offset 0
 306              		.cfi_restore 3
 307              		.cfi_restore 4
 308              		.cfi_restore 5
 309              		.cfi_restore 6
 310              		.cfi_restore 7
 311              		.cfi_restore 14
 151:/home/vtrnnhlinh/STM32Cube/Repository/STM32Cube_FW_F4_V1.28.0/Drivers/STM32F4xx_HAL_Driver/Src/stm32f4xx_hal_exti.c ****   }
 312              		.loc 1 151 12 view .LVU85
 313 0142 0120     		movs	r0, #1
 314              	.LVL24:
 315              		.loc 1 229 1 view .LVU86
 316 0144 7047     		bx	lr
 317              	.LVL25:
 318              	.L20:
 319              	.LCFI2:
 320              		.cfi_def_cfa_offset 24
 321              		.cfi_offset 3, -24
 322              		.cfi_offset 4, -20
 323              		.cfi_offset 5, -16
 324              		.cfi_offset 6, -12
 325              		.cfi_offset 7, -8
 326              		.cfi_offset 14, -4
 151:/home/vtrnnhlinh/STM32Cube/Repository/STM32Cube_FW_F4_V1.28.0/Drivers/STM32F4xx_HAL_Driver/Src/stm32f4xx_hal_exti.c ****   }
 327              		.loc 1 151 12 view .LVU87
 328 0146 0120     		movs	r0, #1
 329              	.LVL26:
 151:/home/vtrnnhlinh/STM32Cube/Repository/STM32Cube_FW_F4_V1.28.0/Drivers/STM32F4xx_HAL_Driver/Src/stm32f4xx_hal_exti.c ****   }
 330              		.loc 1 151 12 view .LVU88
 331 0148 B4E7     		b	.L2
 332              	.L30:
 333 014a 00BF     		.align	2
 334              	.L29:
 335 014c 00000000 		.word	.LC0
 336 0150 003C0140 		.word	1073822720
 337 0154 00380140 		.word	1073821696
 338              		.cfi_endproc
 339              	.LFE134:
 341              		.section	.text.HAL_EXTI_GetConfigLine,"ax",%progbits
 342              		.align	1
 343              		.global	HAL_EXTI_GetConfigLine
 344              		.syntax unified
 345              		.thumb
 346              		.thumb_func
 347              		.fpu fpv4-sp-d16
 349              	HAL_EXTI_GetConfigLine:
 350              	.LVL27:
 351              	.LFB135:
 230:/home/vtrnnhlinh/STM32Cube/Repository/STM32Cube_FW_F4_V1.28.0/Drivers/STM32F4xx_HAL_Driver/Src/stm32f4xx_hal_exti.c **** 
 231:/home/vtrnnhlinh/STM32Cube/Repository/STM32Cube_FW_F4_V1.28.0/Drivers/STM32F4xx_HAL_Driver/Src/stm32f4xx_hal_exti.c **** /**
 232:/home/vtrnnhlinh/STM32Cube/Repository/STM32Cube_FW_F4_V1.28.0/Drivers/STM32F4xx_HAL_Driver/Src/stm32f4xx_hal_exti.c ****   * @brief  Get configuration of a dedicated Exti line.
 233:/home/vtrnnhlinh/STM32Cube/Repository/STM32Cube_FW_F4_V1.28.0/Drivers/STM32F4xx_HAL_Driver/Src/stm32f4xx_hal_exti.c ****   * @param  hexti Exti handle.
 234:/home/vtrnnhlinh/STM32Cube/Repository/STM32Cube_FW_F4_V1.28.0/Drivers/STM32F4xx_HAL_Driver/Src/stm32f4xx_hal_exti.c ****   * @param  pExtiConfig Pointer on structure to store Exti configuration.
ARM GAS  /tmp/ccrTh7WC.s 			page 12


 235:/home/vtrnnhlinh/STM32Cube/Repository/STM32Cube_FW_F4_V1.28.0/Drivers/STM32F4xx_HAL_Driver/Src/stm32f4xx_hal_exti.c ****   * @retval HAL Status.
 236:/home/vtrnnhlinh/STM32Cube/Repository/STM32Cube_FW_F4_V1.28.0/Drivers/STM32F4xx_HAL_Driver/Src/stm32f4xx_hal_exti.c ****   */
 237:/home/vtrnnhlinh/STM32Cube/Repository/STM32Cube_FW_F4_V1.28.0/Drivers/STM32F4xx_HAL_Driver/Src/stm32f4xx_hal_exti.c **** HAL_StatusTypeDef HAL_EXTI_GetConfigLine(EXTI_HandleTypeDef *hexti, EXTI_ConfigTypeDef *pExtiConfig
 238:/home/vtrnnhlinh/STM32Cube/Repository/STM32Cube_FW_F4_V1.28.0/Drivers/STM32F4xx_HAL_Driver/Src/stm32f4xx_hal_exti.c **** {
 352              		.loc 1 238 1 is_stmt 1 view -0
 353              		.cfi_startproc
 354              		@ args = 0, pretend = 0, frame = 0
 355              		@ frame_needed = 0, uses_anonymous_args = 0
 239:/home/vtrnnhlinh/STM32Cube/Repository/STM32Cube_FW_F4_V1.28.0/Drivers/STM32F4xx_HAL_Driver/Src/stm32f4xx_hal_exti.c ****   uint32_t regval;
 356              		.loc 1 239 3 view .LVU90
 240:/home/vtrnnhlinh/STM32Cube/Repository/STM32Cube_FW_F4_V1.28.0/Drivers/STM32F4xx_HAL_Driver/Src/stm32f4xx_hal_exti.c ****   uint32_t linepos;
 357              		.loc 1 240 3 view .LVU91
 241:/home/vtrnnhlinh/STM32Cube/Repository/STM32Cube_FW_F4_V1.28.0/Drivers/STM32F4xx_HAL_Driver/Src/stm32f4xx_hal_exti.c ****   uint32_t maskline;
 358              		.loc 1 241 3 view .LVU92
 242:/home/vtrnnhlinh/STM32Cube/Repository/STM32Cube_FW_F4_V1.28.0/Drivers/STM32F4xx_HAL_Driver/Src/stm32f4xx_hal_exti.c **** 
 243:/home/vtrnnhlinh/STM32Cube/Repository/STM32Cube_FW_F4_V1.28.0/Drivers/STM32F4xx_HAL_Driver/Src/stm32f4xx_hal_exti.c ****   /* Check null pointer */
 244:/home/vtrnnhlinh/STM32Cube/Repository/STM32Cube_FW_F4_V1.28.0/Drivers/STM32F4xx_HAL_Driver/Src/stm32f4xx_hal_exti.c ****   if ((hexti == NULL) || (pExtiConfig == NULL))
 359              		.loc 1 244 3 view .LVU93
 360              		.loc 1 244 6 is_stmt 0 view .LVU94
 361 0000 0028     		cmp	r0, #0
 362 0002 65D0     		beq	.L42
 238:/home/vtrnnhlinh/STM32Cube/Repository/STM32Cube_FW_F4_V1.28.0/Drivers/STM32F4xx_HAL_Driver/Src/stm32f4xx_hal_exti.c ****   uint32_t regval;
 363              		.loc 1 238 1 discriminator 1 view .LVU95
 364 0004 70B5     		push	{r4, r5, r6, lr}
 365              	.LCFI3:
 366              		.cfi_def_cfa_offset 16
 367              		.cfi_offset 4, -16
 368              		.cfi_offset 5, -12
 369              		.cfi_offset 6, -8
 370              		.cfi_offset 14, -4
 371 0006 0C46     		mov	r4, r1
 372 0008 0546     		mov	r5, r0
 373              		.loc 1 244 23 discriminator 1 view .LVU96
 374 000a 0029     		cmp	r1, #0
 375 000c 62D0     		beq	.L43
 245:/home/vtrnnhlinh/STM32Cube/Repository/STM32Cube_FW_F4_V1.28.0/Drivers/STM32F4xx_HAL_Driver/Src/stm32f4xx_hal_exti.c ****   {
 246:/home/vtrnnhlinh/STM32Cube/Repository/STM32Cube_FW_F4_V1.28.0/Drivers/STM32F4xx_HAL_Driver/Src/stm32f4xx_hal_exti.c ****     return HAL_ERROR;
 247:/home/vtrnnhlinh/STM32Cube/Repository/STM32Cube_FW_F4_V1.28.0/Drivers/STM32F4xx_HAL_Driver/Src/stm32f4xx_hal_exti.c ****   }
 248:/home/vtrnnhlinh/STM32Cube/Repository/STM32Cube_FW_F4_V1.28.0/Drivers/STM32F4xx_HAL_Driver/Src/stm32f4xx_hal_exti.c **** 
 249:/home/vtrnnhlinh/STM32Cube/Repository/STM32Cube_FW_F4_V1.28.0/Drivers/STM32F4xx_HAL_Driver/Src/stm32f4xx_hal_exti.c ****   /* Check the parameter */
 250:/home/vtrnnhlinh/STM32Cube/Repository/STM32Cube_FW_F4_V1.28.0/Drivers/STM32F4xx_HAL_Driver/Src/stm32f4xx_hal_exti.c ****   assert_param(IS_EXTI_LINE(hexti->Line));
 376              		.loc 1 250 3 is_stmt 1 view .LVU97
 377 000e 0268     		ldr	r2, [r0]
 378 0010 22F0C063 		bic	r3, r2, #100663296
 379 0014 23F01F03 		bic	r3, r3, #31
 380 0018 3BB9     		cbnz	r3, .L33
 381              		.loc 1 250 3 is_stmt 0 discriminator 2 view .LVU98
 382 001a 02F0C063 		and	r3, r2, #100663296
 383 001e B3F1007F 		cmp	r3, #33554432
 384 0022 35D0     		beq	.L34
 385              		.loc 1 250 3 discriminator 3 view .LVU99
 386 0024 B3F1C06F 		cmp	r3, #100663296
 387 0028 32D0     		beq	.L34
 388              	.L33:
 389              		.loc 1 250 3 discriminator 7 view .LVU100
 390 002a FA21     		movs	r1, #250
 391              	.LVL28:
ARM GAS  /tmp/ccrTh7WC.s 			page 13


 392              		.loc 1 250 3 discriminator 7 view .LVU101
 393 002c 2B48     		ldr	r0, .L52
 394              	.LVL29:
 395              		.loc 1 250 3 discriminator 7 view .LVU102
 396 002e FFF7FEFF 		bl	assert_failed
 397              	.LVL30:
 398              	.L35:
 251:/home/vtrnnhlinh/STM32Cube/Repository/STM32Cube_FW_F4_V1.28.0/Drivers/STM32F4xx_HAL_Driver/Src/stm32f4xx_hal_exti.c **** 
 252:/home/vtrnnhlinh/STM32Cube/Repository/STM32Cube_FW_F4_V1.28.0/Drivers/STM32F4xx_HAL_Driver/Src/stm32f4xx_hal_exti.c ****   /* Store handle line number to configuration structure */
 253:/home/vtrnnhlinh/STM32Cube/Repository/STM32Cube_FW_F4_V1.28.0/Drivers/STM32F4xx_HAL_Driver/Src/stm32f4xx_hal_exti.c ****   pExtiConfig->Line = hexti->Line;
 399              		.loc 1 253 3 is_stmt 1 view .LVU103
 400              		.loc 1 253 28 is_stmt 0 view .LVU104
 401 0032 2D68     		ldr	r5, [r5]
 402              	.LVL31:
 403              		.loc 1 253 21 view .LVU105
 404 0034 2560     		str	r5, [r4]
 254:/home/vtrnnhlinh/STM32Cube/Repository/STM32Cube_FW_F4_V1.28.0/Drivers/STM32F4xx_HAL_Driver/Src/stm32f4xx_hal_exti.c **** 
 255:/home/vtrnnhlinh/STM32Cube/Repository/STM32Cube_FW_F4_V1.28.0/Drivers/STM32F4xx_HAL_Driver/Src/stm32f4xx_hal_exti.c ****   /* Compute line mask */
 256:/home/vtrnnhlinh/STM32Cube/Repository/STM32Cube_FW_F4_V1.28.0/Drivers/STM32F4xx_HAL_Driver/Src/stm32f4xx_hal_exti.c ****   linepos = (pExtiConfig->Line & EXTI_PIN_MASK);
 405              		.loc 1 256 3 is_stmt 1 view .LVU106
 406              		.loc 1 256 11 is_stmt 0 view .LVU107
 407 0036 05F01F06 		and	r6, r5, #31
 408              	.LVL32:
 257:/home/vtrnnhlinh/STM32Cube/Repository/STM32Cube_FW_F4_V1.28.0/Drivers/STM32F4xx_HAL_Driver/Src/stm32f4xx_hal_exti.c ****   maskline = (1uL << linepos);
 409              		.loc 1 257 3 is_stmt 1 view .LVU108
 410              		.loc 1 257 12 is_stmt 0 view .LVU109
 411 003a 0123     		movs	r3, #1
 412 003c B340     		lsls	r3, r3, r6
 413              	.LVL33:
 258:/home/vtrnnhlinh/STM32Cube/Repository/STM32Cube_FW_F4_V1.28.0/Drivers/STM32F4xx_HAL_Driver/Src/stm32f4xx_hal_exti.c **** 
 259:/home/vtrnnhlinh/STM32Cube/Repository/STM32Cube_FW_F4_V1.28.0/Drivers/STM32F4xx_HAL_Driver/Src/stm32f4xx_hal_exti.c ****   /* 1] Get core mode : interrupt */
 260:/home/vtrnnhlinh/STM32Cube/Repository/STM32Cube_FW_F4_V1.28.0/Drivers/STM32F4xx_HAL_Driver/Src/stm32f4xx_hal_exti.c **** 
 261:/home/vtrnnhlinh/STM32Cube/Repository/STM32Cube_FW_F4_V1.28.0/Drivers/STM32F4xx_HAL_Driver/Src/stm32f4xx_hal_exti.c ****   /* Check if selected line is enable */
 262:/home/vtrnnhlinh/STM32Cube/Repository/STM32Cube_FW_F4_V1.28.0/Drivers/STM32F4xx_HAL_Driver/Src/stm32f4xx_hal_exti.c ****   if ((EXTI->IMR & maskline) != 0x00u)
 414              		.loc 1 262 3 is_stmt 1 view .LVU110
 415              		.loc 1 262 12 is_stmt 0 view .LVU111
 416 003e 284A     		ldr	r2, .L52+4
 417 0040 1268     		ldr	r2, [r2]
 418              		.loc 1 262 6 view .LVU112
 419 0042 1A42     		tst	r2, r3
 420 0044 29D0     		beq	.L36
 263:/home/vtrnnhlinh/STM32Cube/Repository/STM32Cube_FW_F4_V1.28.0/Drivers/STM32F4xx_HAL_Driver/Src/stm32f4xx_hal_exti.c ****   {
 264:/home/vtrnnhlinh/STM32Cube/Repository/STM32Cube_FW_F4_V1.28.0/Drivers/STM32F4xx_HAL_Driver/Src/stm32f4xx_hal_exti.c ****     pExtiConfig->Mode = EXTI_MODE_INTERRUPT;
 421              		.loc 1 264 5 is_stmt 1 view .LVU113
 422              		.loc 1 264 23 is_stmt 0 view .LVU114
 423 0046 0122     		movs	r2, #1
 424 0048 6260     		str	r2, [r4, #4]
 425              	.L37:
 265:/home/vtrnnhlinh/STM32Cube/Repository/STM32Cube_FW_F4_V1.28.0/Drivers/STM32F4xx_HAL_Driver/Src/stm32f4xx_hal_exti.c ****   }
 266:/home/vtrnnhlinh/STM32Cube/Repository/STM32Cube_FW_F4_V1.28.0/Drivers/STM32F4xx_HAL_Driver/Src/stm32f4xx_hal_exti.c ****   else
 267:/home/vtrnnhlinh/STM32Cube/Repository/STM32Cube_FW_F4_V1.28.0/Drivers/STM32F4xx_HAL_Driver/Src/stm32f4xx_hal_exti.c ****   {
 268:/home/vtrnnhlinh/STM32Cube/Repository/STM32Cube_FW_F4_V1.28.0/Drivers/STM32F4xx_HAL_Driver/Src/stm32f4xx_hal_exti.c ****     pExtiConfig->Mode = EXTI_MODE_NONE;
 269:/home/vtrnnhlinh/STM32Cube/Repository/STM32Cube_FW_F4_V1.28.0/Drivers/STM32F4xx_HAL_Driver/Src/stm32f4xx_hal_exti.c ****   }
 270:/home/vtrnnhlinh/STM32Cube/Repository/STM32Cube_FW_F4_V1.28.0/Drivers/STM32F4xx_HAL_Driver/Src/stm32f4xx_hal_exti.c **** 
 271:/home/vtrnnhlinh/STM32Cube/Repository/STM32Cube_FW_F4_V1.28.0/Drivers/STM32F4xx_HAL_Driver/Src/stm32f4xx_hal_exti.c ****   /* Get event mode */
 272:/home/vtrnnhlinh/STM32Cube/Repository/STM32Cube_FW_F4_V1.28.0/Drivers/STM32F4xx_HAL_Driver/Src/stm32f4xx_hal_exti.c ****   /* Check if selected line is enable */
 273:/home/vtrnnhlinh/STM32Cube/Repository/STM32Cube_FW_F4_V1.28.0/Drivers/STM32F4xx_HAL_Driver/Src/stm32f4xx_hal_exti.c ****   if ((EXTI->EMR & maskline) != 0x00u)
ARM GAS  /tmp/ccrTh7WC.s 			page 14


 426              		.loc 1 273 3 is_stmt 1 view .LVU115
 427              		.loc 1 273 12 is_stmt 0 view .LVU116
 428 004a 254A     		ldr	r2, .L52+4
 429 004c 5268     		ldr	r2, [r2, #4]
 430              		.loc 1 273 6 view .LVU117
 431 004e 1A42     		tst	r2, r3
 432 0050 03D0     		beq	.L38
 274:/home/vtrnnhlinh/STM32Cube/Repository/STM32Cube_FW_F4_V1.28.0/Drivers/STM32F4xx_HAL_Driver/Src/stm32f4xx_hal_exti.c ****   {
 275:/home/vtrnnhlinh/STM32Cube/Repository/STM32Cube_FW_F4_V1.28.0/Drivers/STM32F4xx_HAL_Driver/Src/stm32f4xx_hal_exti.c ****     pExtiConfig->Mode |= EXTI_MODE_EVENT;
 433              		.loc 1 275 5 is_stmt 1 view .LVU118
 434              		.loc 1 275 23 is_stmt 0 view .LVU119
 435 0052 6268     		ldr	r2, [r4, #4]
 436 0054 42F00202 		orr	r2, r2, #2
 437 0058 6260     		str	r2, [r4, #4]
 438              	.L38:
 276:/home/vtrnnhlinh/STM32Cube/Repository/STM32Cube_FW_F4_V1.28.0/Drivers/STM32F4xx_HAL_Driver/Src/stm32f4xx_hal_exti.c ****   }
 277:/home/vtrnnhlinh/STM32Cube/Repository/STM32Cube_FW_F4_V1.28.0/Drivers/STM32F4xx_HAL_Driver/Src/stm32f4xx_hal_exti.c **** 
 278:/home/vtrnnhlinh/STM32Cube/Repository/STM32Cube_FW_F4_V1.28.0/Drivers/STM32F4xx_HAL_Driver/Src/stm32f4xx_hal_exti.c ****   /* Get default Trigger and GPIOSel configuration */
 279:/home/vtrnnhlinh/STM32Cube/Repository/STM32Cube_FW_F4_V1.28.0/Drivers/STM32F4xx_HAL_Driver/Src/stm32f4xx_hal_exti.c ****   pExtiConfig->Trigger = EXTI_TRIGGER_NONE;
 439              		.loc 1 279 3 is_stmt 1 view .LVU120
 440              		.loc 1 279 24 is_stmt 0 view .LVU121
 441 005a 0022     		movs	r2, #0
 442 005c A260     		str	r2, [r4, #8]
 280:/home/vtrnnhlinh/STM32Cube/Repository/STM32Cube_FW_F4_V1.28.0/Drivers/STM32F4xx_HAL_Driver/Src/stm32f4xx_hal_exti.c ****   pExtiConfig->GPIOSel = 0x00u;
 443              		.loc 1 280 3 is_stmt 1 view .LVU122
 444              		.loc 1 280 24 is_stmt 0 view .LVU123
 445 005e E260     		str	r2, [r4, #12]
 281:/home/vtrnnhlinh/STM32Cube/Repository/STM32Cube_FW_F4_V1.28.0/Drivers/STM32F4xx_HAL_Driver/Src/stm32f4xx_hal_exti.c **** 
 282:/home/vtrnnhlinh/STM32Cube/Repository/STM32Cube_FW_F4_V1.28.0/Drivers/STM32F4xx_HAL_Driver/Src/stm32f4xx_hal_exti.c ****   /* 2] Get trigger for configurable lines : rising */
 283:/home/vtrnnhlinh/STM32Cube/Repository/STM32Cube_FW_F4_V1.28.0/Drivers/STM32F4xx_HAL_Driver/Src/stm32f4xx_hal_exti.c ****   if ((pExtiConfig->Line & EXTI_CONFIG) != 0x00u)
 446              		.loc 1 283 3 is_stmt 1 view .LVU124
 447              		.loc 1 283 6 is_stmt 0 view .LVU125
 448 0060 15F0007F 		tst	r5, #33554432
 449 0064 38D0     		beq	.L44
 284:/home/vtrnnhlinh/STM32Cube/Repository/STM32Cube_FW_F4_V1.28.0/Drivers/STM32F4xx_HAL_Driver/Src/stm32f4xx_hal_exti.c ****   {
 285:/home/vtrnnhlinh/STM32Cube/Repository/STM32Cube_FW_F4_V1.28.0/Drivers/STM32F4xx_HAL_Driver/Src/stm32f4xx_hal_exti.c ****     /* Check if configuration of selected line is enable */
 286:/home/vtrnnhlinh/STM32Cube/Repository/STM32Cube_FW_F4_V1.28.0/Drivers/STM32F4xx_HAL_Driver/Src/stm32f4xx_hal_exti.c ****     if ((EXTI->RTSR & maskline) != 0x00u)
 450              		.loc 1 286 5 is_stmt 1 view .LVU126
 451              		.loc 1 286 14 is_stmt 0 view .LVU127
 452 0066 1E4A     		ldr	r2, .L52+4
 453 0068 9268     		ldr	r2, [r2, #8]
 454              		.loc 1 286 8 view .LVU128
 455 006a 1A42     		tst	r2, r3
 456 006c 01D0     		beq	.L39
 287:/home/vtrnnhlinh/STM32Cube/Repository/STM32Cube_FW_F4_V1.28.0/Drivers/STM32F4xx_HAL_Driver/Src/stm32f4xx_hal_exti.c ****     {
 288:/home/vtrnnhlinh/STM32Cube/Repository/STM32Cube_FW_F4_V1.28.0/Drivers/STM32F4xx_HAL_Driver/Src/stm32f4xx_hal_exti.c ****       pExtiConfig->Trigger = EXTI_TRIGGER_RISING;
 457              		.loc 1 288 7 is_stmt 1 view .LVU129
 458              		.loc 1 288 28 is_stmt 0 view .LVU130
 459 006e 0122     		movs	r2, #1
 460 0070 A260     		str	r2, [r4, #8]
 461              	.L39:
 289:/home/vtrnnhlinh/STM32Cube/Repository/STM32Cube_FW_F4_V1.28.0/Drivers/STM32F4xx_HAL_Driver/Src/stm32f4xx_hal_exti.c ****     }
 290:/home/vtrnnhlinh/STM32Cube/Repository/STM32Cube_FW_F4_V1.28.0/Drivers/STM32F4xx_HAL_Driver/Src/stm32f4xx_hal_exti.c **** 
 291:/home/vtrnnhlinh/STM32Cube/Repository/STM32Cube_FW_F4_V1.28.0/Drivers/STM32F4xx_HAL_Driver/Src/stm32f4xx_hal_exti.c ****     /* Get falling configuration */
 292:/home/vtrnnhlinh/STM32Cube/Repository/STM32Cube_FW_F4_V1.28.0/Drivers/STM32F4xx_HAL_Driver/Src/stm32f4xx_hal_exti.c ****     /* Check if configuration of selected line is enable */
 293:/home/vtrnnhlinh/STM32Cube/Repository/STM32Cube_FW_F4_V1.28.0/Drivers/STM32F4xx_HAL_Driver/Src/stm32f4xx_hal_exti.c ****     if ((EXTI->FTSR & maskline) != 0x00u)
 462              		.loc 1 293 5 is_stmt 1 view .LVU131
ARM GAS  /tmp/ccrTh7WC.s 			page 15


 463              		.loc 1 293 14 is_stmt 0 view .LVU132
 464 0072 1B4A     		ldr	r2, .L52+4
 465 0074 D268     		ldr	r2, [r2, #12]
 466              		.loc 1 293 8 view .LVU133
 467 0076 1A42     		tst	r2, r3
 468 0078 03D0     		beq	.L40
 294:/home/vtrnnhlinh/STM32Cube/Repository/STM32Cube_FW_F4_V1.28.0/Drivers/STM32F4xx_HAL_Driver/Src/stm32f4xx_hal_exti.c ****     {
 295:/home/vtrnnhlinh/STM32Cube/Repository/STM32Cube_FW_F4_V1.28.0/Drivers/STM32F4xx_HAL_Driver/Src/stm32f4xx_hal_exti.c ****       pExtiConfig->Trigger |= EXTI_TRIGGER_FALLING;
 469              		.loc 1 295 7 is_stmt 1 view .LVU134
 470              		.loc 1 295 28 is_stmt 0 view .LVU135
 471 007a A368     		ldr	r3, [r4, #8]
 472              	.LVL34:
 473              		.loc 1 295 28 view .LVU136
 474 007c 43F00203 		orr	r3, r3, #2
 475 0080 A360     		str	r3, [r4, #8]
 476              	.L40:
 296:/home/vtrnnhlinh/STM32Cube/Repository/STM32Cube_FW_F4_V1.28.0/Drivers/STM32F4xx_HAL_Driver/Src/stm32f4xx_hal_exti.c ****     }
 297:/home/vtrnnhlinh/STM32Cube/Repository/STM32Cube_FW_F4_V1.28.0/Drivers/STM32F4xx_HAL_Driver/Src/stm32f4xx_hal_exti.c **** 
 298:/home/vtrnnhlinh/STM32Cube/Repository/STM32Cube_FW_F4_V1.28.0/Drivers/STM32F4xx_HAL_Driver/Src/stm32f4xx_hal_exti.c ****     /* Get Gpio port selection for gpio lines */
 299:/home/vtrnnhlinh/STM32Cube/Repository/STM32Cube_FW_F4_V1.28.0/Drivers/STM32F4xx_HAL_Driver/Src/stm32f4xx_hal_exti.c ****     if ((pExtiConfig->Line & EXTI_GPIO) == EXTI_GPIO)
 477              		.loc 1 299 5 is_stmt 1 view .LVU137
 478              		.loc 1 299 28 is_stmt 0 view .LVU138
 479 0082 05F0C063 		and	r3, r5, #100663296
 480              		.loc 1 299 8 view .LVU139
 481 0086 B3F1C06F 		cmp	r3, #100663296
 482 008a 09D0     		beq	.L50
 300:/home/vtrnnhlinh/STM32Cube/Repository/STM32Cube_FW_F4_V1.28.0/Drivers/STM32F4xx_HAL_Driver/Src/stm32f4xx_hal_exti.c ****     {
 301:/home/vtrnnhlinh/STM32Cube/Repository/STM32Cube_FW_F4_V1.28.0/Drivers/STM32F4xx_HAL_Driver/Src/stm32f4xx_hal_exti.c ****       assert_param(IS_EXTI_GPIO_PIN(linepos));
 302:/home/vtrnnhlinh/STM32Cube/Repository/STM32Cube_FW_F4_V1.28.0/Drivers/STM32F4xx_HAL_Driver/Src/stm32f4xx_hal_exti.c **** 
 303:/home/vtrnnhlinh/STM32Cube/Repository/STM32Cube_FW_F4_V1.28.0/Drivers/STM32F4xx_HAL_Driver/Src/stm32f4xx_hal_exti.c ****       regval = SYSCFG->EXTICR[linepos >> 2u];
 304:/home/vtrnnhlinh/STM32Cube/Repository/STM32Cube_FW_F4_V1.28.0/Drivers/STM32F4xx_HAL_Driver/Src/stm32f4xx_hal_exti.c ****       pExtiConfig->GPIOSel = (regval >> (SYSCFG_EXTICR1_EXTI1_Pos * (linepos & 0x03u))) & SYSCFG_EX
 305:/home/vtrnnhlinh/STM32Cube/Repository/STM32Cube_FW_F4_V1.28.0/Drivers/STM32F4xx_HAL_Driver/Src/stm32f4xx_hal_exti.c ****     }
 306:/home/vtrnnhlinh/STM32Cube/Repository/STM32Cube_FW_F4_V1.28.0/Drivers/STM32F4xx_HAL_Driver/Src/stm32f4xx_hal_exti.c ****   }
 307:/home/vtrnnhlinh/STM32Cube/Repository/STM32Cube_FW_F4_V1.28.0/Drivers/STM32F4xx_HAL_Driver/Src/stm32f4xx_hal_exti.c **** 
 308:/home/vtrnnhlinh/STM32Cube/Repository/STM32Cube_FW_F4_V1.28.0/Drivers/STM32F4xx_HAL_Driver/Src/stm32f4xx_hal_exti.c ****   return HAL_OK;
 483              		.loc 1 308 10 view .LVU140
 484 008c 0020     		movs	r0, #0
 485 008e 24E0     		b	.L32
 486              	.LVL35:
 487              	.L34:
 250:/home/vtrnnhlinh/STM32Cube/Repository/STM32Cube_FW_F4_V1.28.0/Drivers/STM32F4xx_HAL_Driver/Src/stm32f4xx_hal_exti.c **** 
 488              		.loc 1 250 3 discriminator 6 view .LVU141
 489 0090 02F01F02 		and	r2, r2, #31
 490 0094 162A     		cmp	r2, #22
 491 0096 CCD9     		bls	.L35
 492 0098 C7E7     		b	.L33
 493              	.LVL36:
 494              	.L36:
 268:/home/vtrnnhlinh/STM32Cube/Repository/STM32Cube_FW_F4_V1.28.0/Drivers/STM32F4xx_HAL_Driver/Src/stm32f4xx_hal_exti.c ****   }
 495              		.loc 1 268 5 is_stmt 1 view .LVU142
 268:/home/vtrnnhlinh/STM32Cube/Repository/STM32Cube_FW_F4_V1.28.0/Drivers/STM32F4xx_HAL_Driver/Src/stm32f4xx_hal_exti.c ****   }
 496              		.loc 1 268 23 is_stmt 0 view .LVU143
 497 009a 0022     		movs	r2, #0
 498 009c 6260     		str	r2, [r4, #4]
 499 009e D4E7     		b	.L37
 500              	.LVL37:
 501              	.L50:
ARM GAS  /tmp/ccrTh7WC.s 			page 16


 301:/home/vtrnnhlinh/STM32Cube/Repository/STM32Cube_FW_F4_V1.28.0/Drivers/STM32F4xx_HAL_Driver/Src/stm32f4xx_hal_exti.c **** 
 502              		.loc 1 301 7 is_stmt 1 view .LVU144
 503 00a0 15F0100F 		tst	r5, #16
 504 00a4 0ED1     		bne	.L51
 505              	.L41:
 303:/home/vtrnnhlinh/STM32Cube/Repository/STM32Cube_FW_F4_V1.28.0/Drivers/STM32F4xx_HAL_Driver/Src/stm32f4xx_hal_exti.c ****       pExtiConfig->GPIOSel = (regval >> (SYSCFG_EXTICR1_EXTI1_Pos * (linepos & 0x03u))) & SYSCFG_EX
 506              		.loc 1 303 7 view .LVU145
 303:/home/vtrnnhlinh/STM32Cube/Repository/STM32Cube_FW_F4_V1.28.0/Drivers/STM32F4xx_HAL_Driver/Src/stm32f4xx_hal_exti.c ****       pExtiConfig->GPIOSel = (regval >> (SYSCFG_EXTICR1_EXTI1_Pos * (linepos & 0x03u))) & SYSCFG_EX
 507              		.loc 1 303 39 is_stmt 0 view .LVU146
 508 00a6 B608     		lsrs	r6, r6, #2
 509              	.LVL38:
 303:/home/vtrnnhlinh/STM32Cube/Repository/STM32Cube_FW_F4_V1.28.0/Drivers/STM32F4xx_HAL_Driver/Src/stm32f4xx_hal_exti.c ****       pExtiConfig->GPIOSel = (regval >> (SYSCFG_EXTICR1_EXTI1_Pos * (linepos & 0x03u))) & SYSCFG_EX
 510              		.loc 1 303 14 view .LVU147
 511 00a8 0236     		adds	r6, r6, #2
 512 00aa 0E4B     		ldr	r3, .L52+8
 513 00ac 53F82630 		ldr	r3, [r3, r6, lsl #2]
 514              	.LVL39:
 304:/home/vtrnnhlinh/STM32Cube/Repository/STM32Cube_FW_F4_V1.28.0/Drivers/STM32F4xx_HAL_Driver/Src/stm32f4xx_hal_exti.c ****     }
 515              		.loc 1 304 7 is_stmt 1 view .LVU148
 304:/home/vtrnnhlinh/STM32Cube/Repository/STM32Cube_FW_F4_V1.28.0/Drivers/STM32F4xx_HAL_Driver/Src/stm32f4xx_hal_exti.c ****     }
 516              		.loc 1 304 78 is_stmt 0 view .LVU149
 517 00b0 05F00305 		and	r5, r5, #3
 518              	.LVL40:
 304:/home/vtrnnhlinh/STM32Cube/Repository/STM32Cube_FW_F4_V1.28.0/Drivers/STM32F4xx_HAL_Driver/Src/stm32f4xx_hal_exti.c ****     }
 519              		.loc 1 304 67 view .LVU150
 520 00b4 AD00     		lsls	r5, r5, #2
 304:/home/vtrnnhlinh/STM32Cube/Repository/STM32Cube_FW_F4_V1.28.0/Drivers/STM32F4xx_HAL_Driver/Src/stm32f4xx_hal_exti.c ****     }
 521              		.loc 1 304 38 view .LVU151
 522 00b6 23FA05F5 		lsr	r5, r3, r5
 304:/home/vtrnnhlinh/STM32Cube/Repository/STM32Cube_FW_F4_V1.28.0/Drivers/STM32F4xx_HAL_Driver/Src/stm32f4xx_hal_exti.c ****     }
 523              		.loc 1 304 89 view .LVU152
 524 00ba 05F00F05 		and	r5, r5, #15
 304:/home/vtrnnhlinh/STM32Cube/Repository/STM32Cube_FW_F4_V1.28.0/Drivers/STM32F4xx_HAL_Driver/Src/stm32f4xx_hal_exti.c ****     }
 525              		.loc 1 304 28 view .LVU153
 526 00be E560     		str	r5, [r4, #12]
 527              		.loc 1 308 10 view .LVU154
 528 00c0 0020     		movs	r0, #0
 529 00c2 0AE0     		b	.L32
 530              	.LVL41:
 531              	.L51:
 301:/home/vtrnnhlinh/STM32Cube/Repository/STM32Cube_FW_F4_V1.28.0/Drivers/STM32F4xx_HAL_Driver/Src/stm32f4xx_hal_exti.c **** 
 532              		.loc 1 301 7 discriminator 1 view .LVU155
 533 00c4 40F22D11 		movw	r1, #301
 534 00c8 0448     		ldr	r0, .L52
 535 00ca FFF7FEFF 		bl	assert_failed
 536              	.LVL42:
 537 00ce EAE7     		b	.L41
 538              	.LVL43:
 539              	.L42:
 540              	.LCFI4:
 541              		.cfi_def_cfa_offset 0
 542              		.cfi_restore 4
 543              		.cfi_restore 5
 544              		.cfi_restore 6
 545              		.cfi_restore 14
 246:/home/vtrnnhlinh/STM32Cube/Repository/STM32Cube_FW_F4_V1.28.0/Drivers/STM32F4xx_HAL_Driver/Src/stm32f4xx_hal_exti.c ****   }
 546              		.loc 1 246 12 view .LVU156
ARM GAS  /tmp/ccrTh7WC.s 			page 17


 547 00d0 0120     		movs	r0, #1
 548              	.LVL44:
 309:/home/vtrnnhlinh/STM32Cube/Repository/STM32Cube_FW_F4_V1.28.0/Drivers/STM32F4xx_HAL_Driver/Src/stm32f4xx_hal_exti.c **** }
 549              		.loc 1 309 1 view .LVU157
 550 00d2 7047     		bx	lr
 551              	.LVL45:
 552              	.L43:
 553              	.LCFI5:
 554              		.cfi_def_cfa_offset 16
 555              		.cfi_offset 4, -16
 556              		.cfi_offset 5, -12
 557              		.cfi_offset 6, -8
 558              		.cfi_offset 14, -4
 246:/home/vtrnnhlinh/STM32Cube/Repository/STM32Cube_FW_F4_V1.28.0/Drivers/STM32F4xx_HAL_Driver/Src/stm32f4xx_hal_exti.c ****   }
 559              		.loc 1 246 12 view .LVU158
 560 00d4 0120     		movs	r0, #1
 561              	.LVL46:
 246:/home/vtrnnhlinh/STM32Cube/Repository/STM32Cube_FW_F4_V1.28.0/Drivers/STM32F4xx_HAL_Driver/Src/stm32f4xx_hal_exti.c ****   }
 562              		.loc 1 246 12 view .LVU159
 563 00d6 00E0     		b	.L32
 564              	.LVL47:
 565              	.L44:
 308:/home/vtrnnhlinh/STM32Cube/Repository/STM32Cube_FW_F4_V1.28.0/Drivers/STM32F4xx_HAL_Driver/Src/stm32f4xx_hal_exti.c **** }
 566              		.loc 1 308 10 view .LVU160
 567 00d8 0020     		movs	r0, #0
 568              	.LVL48:
 569              	.L32:
 570              		.loc 1 309 1 view .LVU161
 571 00da 70BD     		pop	{r4, r5, r6, pc}
 572              	.LVL49:
 573              	.L53:
 574              		.loc 1 309 1 view .LVU162
 575              		.align	2
 576              	.L52:
 577 00dc 00000000 		.word	.LC0
 578 00e0 003C0140 		.word	1073822720
 579 00e4 00380140 		.word	1073821696
 580              		.cfi_endproc
 581              	.LFE135:
 583              		.section	.text.HAL_EXTI_ClearConfigLine,"ax",%progbits
 584              		.align	1
 585              		.global	HAL_EXTI_ClearConfigLine
 586              		.syntax unified
 587              		.thumb
 588              		.thumb_func
 589              		.fpu fpv4-sp-d16
 591              	HAL_EXTI_ClearConfigLine:
 592              	.LVL50:
 593              	.LFB136:
 310:/home/vtrnnhlinh/STM32Cube/Repository/STM32Cube_FW_F4_V1.28.0/Drivers/STM32F4xx_HAL_Driver/Src/stm32f4xx_hal_exti.c **** 
 311:/home/vtrnnhlinh/STM32Cube/Repository/STM32Cube_FW_F4_V1.28.0/Drivers/STM32F4xx_HAL_Driver/Src/stm32f4xx_hal_exti.c **** /**
 312:/home/vtrnnhlinh/STM32Cube/Repository/STM32Cube_FW_F4_V1.28.0/Drivers/STM32F4xx_HAL_Driver/Src/stm32f4xx_hal_exti.c ****   * @brief  Clear whole configuration of a dedicated Exti line.
 313:/home/vtrnnhlinh/STM32Cube/Repository/STM32Cube_FW_F4_V1.28.0/Drivers/STM32F4xx_HAL_Driver/Src/stm32f4xx_hal_exti.c ****   * @param  hexti Exti handle.
 314:/home/vtrnnhlinh/STM32Cube/Repository/STM32Cube_FW_F4_V1.28.0/Drivers/STM32F4xx_HAL_Driver/Src/stm32f4xx_hal_exti.c ****   * @retval HAL Status.
 315:/home/vtrnnhlinh/STM32Cube/Repository/STM32Cube_FW_F4_V1.28.0/Drivers/STM32F4xx_HAL_Driver/Src/stm32f4xx_hal_exti.c ****   */
 316:/home/vtrnnhlinh/STM32Cube/Repository/STM32Cube_FW_F4_V1.28.0/Drivers/STM32F4xx_HAL_Driver/Src/stm32f4xx_hal_exti.c **** HAL_StatusTypeDef HAL_EXTI_ClearConfigLine(EXTI_HandleTypeDef *hexti)
 317:/home/vtrnnhlinh/STM32Cube/Repository/STM32Cube_FW_F4_V1.28.0/Drivers/STM32F4xx_HAL_Driver/Src/stm32f4xx_hal_exti.c **** {
ARM GAS  /tmp/ccrTh7WC.s 			page 18


 594              		.loc 1 317 1 is_stmt 1 view -0
 595              		.cfi_startproc
 596              		@ args = 0, pretend = 0, frame = 0
 597              		@ frame_needed = 0, uses_anonymous_args = 0
 318:/home/vtrnnhlinh/STM32Cube/Repository/STM32Cube_FW_F4_V1.28.0/Drivers/STM32F4xx_HAL_Driver/Src/stm32f4xx_hal_exti.c ****   uint32_t regval;
 598              		.loc 1 318 3 view .LVU164
 319:/home/vtrnnhlinh/STM32Cube/Repository/STM32Cube_FW_F4_V1.28.0/Drivers/STM32F4xx_HAL_Driver/Src/stm32f4xx_hal_exti.c ****   uint32_t linepos;
 599              		.loc 1 319 3 view .LVU165
 320:/home/vtrnnhlinh/STM32Cube/Repository/STM32Cube_FW_F4_V1.28.0/Drivers/STM32F4xx_HAL_Driver/Src/stm32f4xx_hal_exti.c ****   uint32_t maskline;
 600              		.loc 1 320 3 view .LVU166
 321:/home/vtrnnhlinh/STM32Cube/Repository/STM32Cube_FW_F4_V1.28.0/Drivers/STM32F4xx_HAL_Driver/Src/stm32f4xx_hal_exti.c **** 
 322:/home/vtrnnhlinh/STM32Cube/Repository/STM32Cube_FW_F4_V1.28.0/Drivers/STM32F4xx_HAL_Driver/Src/stm32f4xx_hal_exti.c ****   /* Check null pointer */
 323:/home/vtrnnhlinh/STM32Cube/Repository/STM32Cube_FW_F4_V1.28.0/Drivers/STM32F4xx_HAL_Driver/Src/stm32f4xx_hal_exti.c ****   if (hexti == NULL)
 601              		.loc 1 323 3 view .LVU167
 602              		.loc 1 323 6 is_stmt 0 view .LVU168
 603 0000 0028     		cmp	r0, #0
 604 0002 55D0     		beq	.L60
 317:/home/vtrnnhlinh/STM32Cube/Repository/STM32Cube_FW_F4_V1.28.0/Drivers/STM32F4xx_HAL_Driver/Src/stm32f4xx_hal_exti.c ****   uint32_t regval;
 605              		.loc 1 317 1 view .LVU169
 606 0004 70B5     		push	{r4, r5, r6, lr}
 607              	.LCFI6:
 608              		.cfi_def_cfa_offset 16
 609              		.cfi_offset 4, -16
 610              		.cfi_offset 5, -12
 611              		.cfi_offset 6, -8
 612              		.cfi_offset 14, -4
 613 0006 0446     		mov	r4, r0
 324:/home/vtrnnhlinh/STM32Cube/Repository/STM32Cube_FW_F4_V1.28.0/Drivers/STM32F4xx_HAL_Driver/Src/stm32f4xx_hal_exti.c ****   {
 325:/home/vtrnnhlinh/STM32Cube/Repository/STM32Cube_FW_F4_V1.28.0/Drivers/STM32F4xx_HAL_Driver/Src/stm32f4xx_hal_exti.c ****     return HAL_ERROR;
 326:/home/vtrnnhlinh/STM32Cube/Repository/STM32Cube_FW_F4_V1.28.0/Drivers/STM32F4xx_HAL_Driver/Src/stm32f4xx_hal_exti.c ****   }
 327:/home/vtrnnhlinh/STM32Cube/Repository/STM32Cube_FW_F4_V1.28.0/Drivers/STM32F4xx_HAL_Driver/Src/stm32f4xx_hal_exti.c **** 
 328:/home/vtrnnhlinh/STM32Cube/Repository/STM32Cube_FW_F4_V1.28.0/Drivers/STM32F4xx_HAL_Driver/Src/stm32f4xx_hal_exti.c ****   /* Check the parameter */
 329:/home/vtrnnhlinh/STM32Cube/Repository/STM32Cube_FW_F4_V1.28.0/Drivers/STM32F4xx_HAL_Driver/Src/stm32f4xx_hal_exti.c ****   assert_param(IS_EXTI_LINE(hexti->Line));
 614              		.loc 1 329 3 is_stmt 1 view .LVU170
 615 0008 0268     		ldr	r2, [r0]
 616 000a 22F0C063 		bic	r3, r2, #100663296
 617 000e 23F01F03 		bic	r3, r3, #31
 618 0012 3BB9     		cbnz	r3, .L56
 619              		.loc 1 329 3 is_stmt 0 discriminator 2 view .LVU171
 620 0014 02F0C063 		and	r3, r2, #100663296
 621 0018 B3F1007F 		cmp	r3, #33554432
 622 001c 29D0     		beq	.L57
 623              		.loc 1 329 3 discriminator 3 view .LVU172
 624 001e B3F1C06F 		cmp	r3, #100663296
 625 0022 26D0     		beq	.L57
 626              	.L56:
 627              		.loc 1 329 3 discriminator 7 view .LVU173
 628 0024 40F24911 		movw	r1, #329
 629 0028 2348     		ldr	r0, .L69
 630              	.LVL51:
 631              		.loc 1 329 3 discriminator 7 view .LVU174
 632 002a FFF7FEFF 		bl	assert_failed
 633              	.LVL52:
 634              	.L58:
 330:/home/vtrnnhlinh/STM32Cube/Repository/STM32Cube_FW_F4_V1.28.0/Drivers/STM32F4xx_HAL_Driver/Src/stm32f4xx_hal_exti.c **** 
 331:/home/vtrnnhlinh/STM32Cube/Repository/STM32Cube_FW_F4_V1.28.0/Drivers/STM32F4xx_HAL_Driver/Src/stm32f4xx_hal_exti.c ****   /* compute line mask */
 332:/home/vtrnnhlinh/STM32Cube/Repository/STM32Cube_FW_F4_V1.28.0/Drivers/STM32F4xx_HAL_Driver/Src/stm32f4xx_hal_exti.c ****   linepos = (hexti->Line & EXTI_PIN_MASK);
ARM GAS  /tmp/ccrTh7WC.s 			page 19


 635              		.loc 1 332 3 is_stmt 1 view .LVU175
 636              		.loc 1 332 19 is_stmt 0 view .LVU176
 637 002e 2668     		ldr	r6, [r4]
 638              		.loc 1 332 11 view .LVU177
 639 0030 06F01F05 		and	r5, r6, #31
 640              	.LVL53:
 333:/home/vtrnnhlinh/STM32Cube/Repository/STM32Cube_FW_F4_V1.28.0/Drivers/STM32F4xx_HAL_Driver/Src/stm32f4xx_hal_exti.c ****   maskline = (1uL << linepos);
 641              		.loc 1 333 3 is_stmt 1 view .LVU178
 642              		.loc 1 333 12 is_stmt 0 view .LVU179
 643 0034 0123     		movs	r3, #1
 644 0036 AB40     		lsls	r3, r3, r5
 645              	.LVL54:
 334:/home/vtrnnhlinh/STM32Cube/Repository/STM32Cube_FW_F4_V1.28.0/Drivers/STM32F4xx_HAL_Driver/Src/stm32f4xx_hal_exti.c **** 
 335:/home/vtrnnhlinh/STM32Cube/Repository/STM32Cube_FW_F4_V1.28.0/Drivers/STM32F4xx_HAL_Driver/Src/stm32f4xx_hal_exti.c ****   /* 1] Clear interrupt mode */
 336:/home/vtrnnhlinh/STM32Cube/Repository/STM32Cube_FW_F4_V1.28.0/Drivers/STM32F4xx_HAL_Driver/Src/stm32f4xx_hal_exti.c ****   EXTI->IMR = (EXTI->IMR & ~maskline);
 646              		.loc 1 336 3 is_stmt 1 view .LVU180
 647              		.loc 1 336 20 is_stmt 0 view .LVU181
 648 0038 204A     		ldr	r2, .L69+4
 649 003a 1168     		ldr	r1, [r2]
 650              		.loc 1 336 28 view .LVU182
 651 003c D843     		mvns	r0, r3
 652              		.loc 1 336 26 view .LVU183
 653 003e 21EA0301 		bic	r1, r1, r3
 654              		.loc 1 336 13 view .LVU184
 655 0042 1160     		str	r1, [r2]
 337:/home/vtrnnhlinh/STM32Cube/Repository/STM32Cube_FW_F4_V1.28.0/Drivers/STM32F4xx_HAL_Driver/Src/stm32f4xx_hal_exti.c **** 
 338:/home/vtrnnhlinh/STM32Cube/Repository/STM32Cube_FW_F4_V1.28.0/Drivers/STM32F4xx_HAL_Driver/Src/stm32f4xx_hal_exti.c ****   /* 2] Clear event mode */
 339:/home/vtrnnhlinh/STM32Cube/Repository/STM32Cube_FW_F4_V1.28.0/Drivers/STM32F4xx_HAL_Driver/Src/stm32f4xx_hal_exti.c ****   EXTI->EMR = (EXTI->EMR & ~maskline);
 656              		.loc 1 339 3 is_stmt 1 view .LVU185
 657              		.loc 1 339 20 is_stmt 0 view .LVU186
 658 0044 5168     		ldr	r1, [r2, #4]
 659              		.loc 1 339 26 view .LVU187
 660 0046 21EA0303 		bic	r3, r1, r3
 661              	.LVL55:
 662              		.loc 1 339 13 view .LVU188
 663 004a 5360     		str	r3, [r2, #4]
 340:/home/vtrnnhlinh/STM32Cube/Repository/STM32Cube_FW_F4_V1.28.0/Drivers/STM32F4xx_HAL_Driver/Src/stm32f4xx_hal_exti.c **** 
 341:/home/vtrnnhlinh/STM32Cube/Repository/STM32Cube_FW_F4_V1.28.0/Drivers/STM32F4xx_HAL_Driver/Src/stm32f4xx_hal_exti.c ****   /* 3] Clear triggers in case of configurable lines */
 342:/home/vtrnnhlinh/STM32Cube/Repository/STM32Cube_FW_F4_V1.28.0/Drivers/STM32F4xx_HAL_Driver/Src/stm32f4xx_hal_exti.c ****   if ((hexti->Line & EXTI_CONFIG) != 0x00u)
 664              		.loc 1 342 3 is_stmt 1 view .LVU189
 665              		.loc 1 342 13 is_stmt 0 view .LVU190
 666 004c 2368     		ldr	r3, [r4]
 667              		.loc 1 342 6 view .LVU191
 668 004e 13F0007F 		tst	r3, #33554432
 669 0052 2FD0     		beq	.L61
 343:/home/vtrnnhlinh/STM32Cube/Repository/STM32Cube_FW_F4_V1.28.0/Drivers/STM32F4xx_HAL_Driver/Src/stm32f4xx_hal_exti.c ****   {
 344:/home/vtrnnhlinh/STM32Cube/Repository/STM32Cube_FW_F4_V1.28.0/Drivers/STM32F4xx_HAL_Driver/Src/stm32f4xx_hal_exti.c ****     EXTI->RTSR = (EXTI->RTSR & ~maskline);
 670              		.loc 1 344 5 is_stmt 1 view .LVU192
 671              		.loc 1 344 23 is_stmt 0 view .LVU193
 672 0054 1346     		mov	r3, r2
 673 0056 9268     		ldr	r2, [r2, #8]
 674              		.loc 1 344 30 view .LVU194
 675 0058 0240     		ands	r2, r2, r0
 676              		.loc 1 344 16 view .LVU195
 677 005a 9A60     		str	r2, [r3, #8]
 345:/home/vtrnnhlinh/STM32Cube/Repository/STM32Cube_FW_F4_V1.28.0/Drivers/STM32F4xx_HAL_Driver/Src/stm32f4xx_hal_exti.c ****     EXTI->FTSR = (EXTI->FTSR & ~maskline);
 678              		.loc 1 345 5 is_stmt 1 view .LVU196
ARM GAS  /tmp/ccrTh7WC.s 			page 20


 679              		.loc 1 345 23 is_stmt 0 view .LVU197
 680 005c DA68     		ldr	r2, [r3, #12]
 681              		.loc 1 345 30 view .LVU198
 682 005e 1040     		ands	r0, r0, r2
 683              	.LVL56:
 684              		.loc 1 345 16 view .LVU199
 685 0060 D860     		str	r0, [r3, #12]
 346:/home/vtrnnhlinh/STM32Cube/Repository/STM32Cube_FW_F4_V1.28.0/Drivers/STM32F4xx_HAL_Driver/Src/stm32f4xx_hal_exti.c **** 
 347:/home/vtrnnhlinh/STM32Cube/Repository/STM32Cube_FW_F4_V1.28.0/Drivers/STM32F4xx_HAL_Driver/Src/stm32f4xx_hal_exti.c ****     /* Get Gpio port selection for gpio lines */
 348:/home/vtrnnhlinh/STM32Cube/Repository/STM32Cube_FW_F4_V1.28.0/Drivers/STM32F4xx_HAL_Driver/Src/stm32f4xx_hal_exti.c ****     if ((hexti->Line & EXTI_GPIO) == EXTI_GPIO)
 686              		.loc 1 348 5 is_stmt 1 view .LVU200
 687              		.loc 1 348 15 is_stmt 0 view .LVU201
 688 0062 2368     		ldr	r3, [r4]
 689              		.loc 1 348 22 view .LVU202
 690 0064 03F0C063 		and	r3, r3, #100663296
 691              		.loc 1 348 8 view .LVU203
 692 0068 B3F1C06F 		cmp	r3, #100663296
 693 006c 06D0     		beq	.L67
 349:/home/vtrnnhlinh/STM32Cube/Repository/STM32Cube_FW_F4_V1.28.0/Drivers/STM32F4xx_HAL_Driver/Src/stm32f4xx_hal_exti.c ****     {
 350:/home/vtrnnhlinh/STM32Cube/Repository/STM32Cube_FW_F4_V1.28.0/Drivers/STM32F4xx_HAL_Driver/Src/stm32f4xx_hal_exti.c ****       assert_param(IS_EXTI_GPIO_PIN(linepos));
 351:/home/vtrnnhlinh/STM32Cube/Repository/STM32Cube_FW_F4_V1.28.0/Drivers/STM32F4xx_HAL_Driver/Src/stm32f4xx_hal_exti.c **** 
 352:/home/vtrnnhlinh/STM32Cube/Repository/STM32Cube_FW_F4_V1.28.0/Drivers/STM32F4xx_HAL_Driver/Src/stm32f4xx_hal_exti.c ****       regval = SYSCFG->EXTICR[linepos >> 2u];
 353:/home/vtrnnhlinh/STM32Cube/Repository/STM32Cube_FW_F4_V1.28.0/Drivers/STM32F4xx_HAL_Driver/Src/stm32f4xx_hal_exti.c ****       regval &= ~(SYSCFG_EXTICR1_EXTI0 << (SYSCFG_EXTICR1_EXTI1_Pos * (linepos & 0x03u)));
 354:/home/vtrnnhlinh/STM32Cube/Repository/STM32Cube_FW_F4_V1.28.0/Drivers/STM32F4xx_HAL_Driver/Src/stm32f4xx_hal_exti.c ****       SYSCFG->EXTICR[linepos >> 2u] = regval;
 355:/home/vtrnnhlinh/STM32Cube/Repository/STM32Cube_FW_F4_V1.28.0/Drivers/STM32F4xx_HAL_Driver/Src/stm32f4xx_hal_exti.c ****     }
 356:/home/vtrnnhlinh/STM32Cube/Repository/STM32Cube_FW_F4_V1.28.0/Drivers/STM32F4xx_HAL_Driver/Src/stm32f4xx_hal_exti.c ****   }
 357:/home/vtrnnhlinh/STM32Cube/Repository/STM32Cube_FW_F4_V1.28.0/Drivers/STM32F4xx_HAL_Driver/Src/stm32f4xx_hal_exti.c **** 
 358:/home/vtrnnhlinh/STM32Cube/Repository/STM32Cube_FW_F4_V1.28.0/Drivers/STM32F4xx_HAL_Driver/Src/stm32f4xx_hal_exti.c ****   return HAL_OK;
 694              		.loc 1 358 10 view .LVU204
 695 006e 0020     		movs	r0, #0
 696 0070 21E0     		b	.L55
 697              	.LVL57:
 698              	.L57:
 329:/home/vtrnnhlinh/STM32Cube/Repository/STM32Cube_FW_F4_V1.28.0/Drivers/STM32F4xx_HAL_Driver/Src/stm32f4xx_hal_exti.c **** 
 699              		.loc 1 329 3 discriminator 6 view .LVU205
 700 0072 02F01F02 		and	r2, r2, #31
 701 0076 162A     		cmp	r2, #22
 702 0078 D9D9     		bls	.L58
 703 007a D3E7     		b	.L56
 704              	.LVL58:
 705              	.L67:
 350:/home/vtrnnhlinh/STM32Cube/Repository/STM32Cube_FW_F4_V1.28.0/Drivers/STM32F4xx_HAL_Driver/Src/stm32f4xx_hal_exti.c **** 
 706              		.loc 1 350 7 is_stmt 1 view .LVU206
 707 007c 16F0100F 		tst	r6, #16
 708 0080 10D1     		bne	.L68
 709              	.L59:
 352:/home/vtrnnhlinh/STM32Cube/Repository/STM32Cube_FW_F4_V1.28.0/Drivers/STM32F4xx_HAL_Driver/Src/stm32f4xx_hal_exti.c ****       regval &= ~(SYSCFG_EXTICR1_EXTI0 << (SYSCFG_EXTICR1_EXTI1_Pos * (linepos & 0x03u)));
 710              		.loc 1 352 7 view .LVU207
 352:/home/vtrnnhlinh/STM32Cube/Repository/STM32Cube_FW_F4_V1.28.0/Drivers/STM32F4xx_HAL_Driver/Src/stm32f4xx_hal_exti.c ****       regval &= ~(SYSCFG_EXTICR1_EXTI0 << (SYSCFG_EXTICR1_EXTI1_Pos * (linepos & 0x03u)));
 711              		.loc 1 352 39 is_stmt 0 view .LVU208
 712 0082 AD08     		lsrs	r5, r5, #2
 713              	.LVL59:
 352:/home/vtrnnhlinh/STM32Cube/Repository/STM32Cube_FW_F4_V1.28.0/Drivers/STM32F4xx_HAL_Driver/Src/stm32f4xx_hal_exti.c ****       regval &= ~(SYSCFG_EXTICR1_EXTI0 << (SYSCFG_EXTICR1_EXTI1_Pos * (linepos & 0x03u)));
 714              		.loc 1 352 14 view .LVU209
 715 0084 0E49     		ldr	r1, .L69+8
 716 0086 0235     		adds	r5, r5, #2
 717 0088 51F82530 		ldr	r3, [r1, r5, lsl #2]
ARM GAS  /tmp/ccrTh7WC.s 			page 21


 718              	.LVL60:
 353:/home/vtrnnhlinh/STM32Cube/Repository/STM32Cube_FW_F4_V1.28.0/Drivers/STM32F4xx_HAL_Driver/Src/stm32f4xx_hal_exti.c ****       SYSCFG->EXTICR[linepos >> 2u] = regval;
 719              		.loc 1 353 7 is_stmt 1 view .LVU210
 353:/home/vtrnnhlinh/STM32Cube/Repository/STM32Cube_FW_F4_V1.28.0/Drivers/STM32F4xx_HAL_Driver/Src/stm32f4xx_hal_exti.c ****       SYSCFG->EXTICR[linepos >> 2u] = regval;
 720              		.loc 1 353 80 is_stmt 0 view .LVU211
 721 008c 06F00306 		and	r6, r6, #3
 722              	.LVL61:
 353:/home/vtrnnhlinh/STM32Cube/Repository/STM32Cube_FW_F4_V1.28.0/Drivers/STM32F4xx_HAL_Driver/Src/stm32f4xx_hal_exti.c ****       SYSCFG->EXTICR[linepos >> 2u] = regval;
 723              		.loc 1 353 69 view .LVU212
 724 0090 B600     		lsls	r6, r6, #2
 353:/home/vtrnnhlinh/STM32Cube/Repository/STM32Cube_FW_F4_V1.28.0/Drivers/STM32F4xx_HAL_Driver/Src/stm32f4xx_hal_exti.c ****       SYSCFG->EXTICR[linepos >> 2u] = regval;
 725              		.loc 1 353 40 view .LVU213
 726 0092 0F22     		movs	r2, #15
 727 0094 02FA06F6 		lsl	r6, r2, r6
 353:/home/vtrnnhlinh/STM32Cube/Repository/STM32Cube_FW_F4_V1.28.0/Drivers/STM32F4xx_HAL_Driver/Src/stm32f4xx_hal_exti.c ****       SYSCFG->EXTICR[linepos >> 2u] = regval;
 728              		.loc 1 353 14 view .LVU214
 729 0098 23EA0606 		bic	r6, r3, r6
 730              	.LVL62:
 354:/home/vtrnnhlinh/STM32Cube/Repository/STM32Cube_FW_F4_V1.28.0/Drivers/STM32F4xx_HAL_Driver/Src/stm32f4xx_hal_exti.c ****     }
 731              		.loc 1 354 7 is_stmt 1 view .LVU215
 354:/home/vtrnnhlinh/STM32Cube/Repository/STM32Cube_FW_F4_V1.28.0/Drivers/STM32F4xx_HAL_Driver/Src/stm32f4xx_hal_exti.c ****     }
 732              		.loc 1 354 37 is_stmt 0 view .LVU216
 733 009c 41F82560 		str	r6, [r1, r5, lsl #2]
 734              		.loc 1 358 10 view .LVU217
 735 00a0 0020     		movs	r0, #0
 736 00a2 08E0     		b	.L55
 737              	.LVL63:
 738              	.L68:
 350:/home/vtrnnhlinh/STM32Cube/Repository/STM32Cube_FW_F4_V1.28.0/Drivers/STM32F4xx_HAL_Driver/Src/stm32f4xx_hal_exti.c **** 
 739              		.loc 1 350 7 discriminator 1 view .LVU218
 740 00a4 4FF4AF71 		mov	r1, #350
 741 00a8 0348     		ldr	r0, .L69
 742 00aa FFF7FEFF 		bl	assert_failed
 743              	.LVL64:
 744 00ae E8E7     		b	.L59
 745              	.LVL65:
 746              	.L60:
 747              	.LCFI7:
 748              		.cfi_def_cfa_offset 0
 749              		.cfi_restore 4
 750              		.cfi_restore 5
 751              		.cfi_restore 6
 752              		.cfi_restore 14
 325:/home/vtrnnhlinh/STM32Cube/Repository/STM32Cube_FW_F4_V1.28.0/Drivers/STM32F4xx_HAL_Driver/Src/stm32f4xx_hal_exti.c ****   }
 753              		.loc 1 325 12 view .LVU219
 754 00b0 0120     		movs	r0, #1
 755              	.LVL66:
 359:/home/vtrnnhlinh/STM32Cube/Repository/STM32Cube_FW_F4_V1.28.0/Drivers/STM32F4xx_HAL_Driver/Src/stm32f4xx_hal_exti.c **** }
 756              		.loc 1 359 1 view .LVU220
 757 00b2 7047     		bx	lr
 758              	.LVL67:
 759              	.L61:
 760              	.LCFI8:
 761              		.cfi_def_cfa_offset 16
 762              		.cfi_offset 4, -16
 763              		.cfi_offset 5, -12
 764              		.cfi_offset 6, -8
ARM GAS  /tmp/ccrTh7WC.s 			page 22


 765              		.cfi_offset 14, -4
 358:/home/vtrnnhlinh/STM32Cube/Repository/STM32Cube_FW_F4_V1.28.0/Drivers/STM32F4xx_HAL_Driver/Src/stm32f4xx_hal_exti.c **** }
 766              		.loc 1 358 10 view .LVU221
 767 00b4 0020     		movs	r0, #0
 768              	.LVL68:
 769              	.L55:
 770              		.loc 1 359 1 view .LVU222
 771 00b6 70BD     		pop	{r4, r5, r6, pc}
 772              	.LVL69:
 773              	.L70:
 774              		.loc 1 359 1 view .LVU223
 775              		.align	2
 776              	.L69:
 777 00b8 00000000 		.word	.LC0
 778 00bc 003C0140 		.word	1073822720
 779 00c0 00380140 		.word	1073821696
 780              		.cfi_endproc
 781              	.LFE136:
 783              		.section	.text.HAL_EXTI_RegisterCallback,"ax",%progbits
 784              		.align	1
 785              		.global	HAL_EXTI_RegisterCallback
 786              		.syntax unified
 787              		.thumb
 788              		.thumb_func
 789              		.fpu fpv4-sp-d16
 791              	HAL_EXTI_RegisterCallback:
 792              	.LVL70:
 793              	.LFB137:
 360:/home/vtrnnhlinh/STM32Cube/Repository/STM32Cube_FW_F4_V1.28.0/Drivers/STM32F4xx_HAL_Driver/Src/stm32f4xx_hal_exti.c **** 
 361:/home/vtrnnhlinh/STM32Cube/Repository/STM32Cube_FW_F4_V1.28.0/Drivers/STM32F4xx_HAL_Driver/Src/stm32f4xx_hal_exti.c **** /**
 362:/home/vtrnnhlinh/STM32Cube/Repository/STM32Cube_FW_F4_V1.28.0/Drivers/STM32F4xx_HAL_Driver/Src/stm32f4xx_hal_exti.c ****   * @brief  Register callback for a dedicated Exti line.
 363:/home/vtrnnhlinh/STM32Cube/Repository/STM32Cube_FW_F4_V1.28.0/Drivers/STM32F4xx_HAL_Driver/Src/stm32f4xx_hal_exti.c ****   * @param  hexti Exti handle.
 364:/home/vtrnnhlinh/STM32Cube/Repository/STM32Cube_FW_F4_V1.28.0/Drivers/STM32F4xx_HAL_Driver/Src/stm32f4xx_hal_exti.c ****   * @param  CallbackID User callback identifier.
 365:/home/vtrnnhlinh/STM32Cube/Repository/STM32Cube_FW_F4_V1.28.0/Drivers/STM32F4xx_HAL_Driver/Src/stm32f4xx_hal_exti.c ****   *         This parameter can be one of @arg @ref EXTI_CallbackIDTypeDef values.
 366:/home/vtrnnhlinh/STM32Cube/Repository/STM32Cube_FW_F4_V1.28.0/Drivers/STM32F4xx_HAL_Driver/Src/stm32f4xx_hal_exti.c ****   * @param  pPendingCbfn function pointer to be stored as callback.
 367:/home/vtrnnhlinh/STM32Cube/Repository/STM32Cube_FW_F4_V1.28.0/Drivers/STM32F4xx_HAL_Driver/Src/stm32f4xx_hal_exti.c ****   * @retval HAL Status.
 368:/home/vtrnnhlinh/STM32Cube/Repository/STM32Cube_FW_F4_V1.28.0/Drivers/STM32F4xx_HAL_Driver/Src/stm32f4xx_hal_exti.c ****   */
 369:/home/vtrnnhlinh/STM32Cube/Repository/STM32Cube_FW_F4_V1.28.0/Drivers/STM32F4xx_HAL_Driver/Src/stm32f4xx_hal_exti.c **** HAL_StatusTypeDef HAL_EXTI_RegisterCallback(EXTI_HandleTypeDef *hexti, EXTI_CallbackIDTypeDef Callb
 370:/home/vtrnnhlinh/STM32Cube/Repository/STM32Cube_FW_F4_V1.28.0/Drivers/STM32F4xx_HAL_Driver/Src/stm32f4xx_hal_exti.c **** {
 794              		.loc 1 370 1 is_stmt 1 view -0
 795              		.cfi_startproc
 796              		@ args = 0, pretend = 0, frame = 0
 797              		@ frame_needed = 0, uses_anonymous_args = 0
 798              		@ link register save eliminated.
 799              		.loc 1 370 1 is_stmt 0 view .LVU225
 800 0000 0346     		mov	r3, r0
 371:/home/vtrnnhlinh/STM32Cube/Repository/STM32Cube_FW_F4_V1.28.0/Drivers/STM32F4xx_HAL_Driver/Src/stm32f4xx_hal_exti.c ****   HAL_StatusTypeDef status = HAL_OK;
 801              		.loc 1 371 3 is_stmt 1 view .LVU226
 802              	.LVL71:
 372:/home/vtrnnhlinh/STM32Cube/Repository/STM32Cube_FW_F4_V1.28.0/Drivers/STM32F4xx_HAL_Driver/Src/stm32f4xx_hal_exti.c **** 
 373:/home/vtrnnhlinh/STM32Cube/Repository/STM32Cube_FW_F4_V1.28.0/Drivers/STM32F4xx_HAL_Driver/Src/stm32f4xx_hal_exti.c ****   switch (CallbackID)
 803              		.loc 1 373 3 view .LVU227
 804 0002 0846     		mov	r0, r1
 805              	.LVL72:
 806              		.loc 1 373 3 is_stmt 0 view .LVU228
 807 0004 09B9     		cbnz	r1, .L73
 374:/home/vtrnnhlinh/STM32Cube/Repository/STM32Cube_FW_F4_V1.28.0/Drivers/STM32F4xx_HAL_Driver/Src/stm32f4xx_hal_exti.c ****   {
ARM GAS  /tmp/ccrTh7WC.s 			page 23


 375:/home/vtrnnhlinh/STM32Cube/Repository/STM32Cube_FW_F4_V1.28.0/Drivers/STM32F4xx_HAL_Driver/Src/stm32f4xx_hal_exti.c ****     case  HAL_EXTI_COMMON_CB_ID:
 376:/home/vtrnnhlinh/STM32Cube/Repository/STM32Cube_FW_F4_V1.28.0/Drivers/STM32F4xx_HAL_Driver/Src/stm32f4xx_hal_exti.c ****       hexti->PendingCallback = pPendingCbfn;
 808              		.loc 1 376 7 is_stmt 1 view .LVU229
 809              		.loc 1 376 30 is_stmt 0 view .LVU230
 810 0006 5A60     		str	r2, [r3, #4]
 377:/home/vtrnnhlinh/STM32Cube/Repository/STM32Cube_FW_F4_V1.28.0/Drivers/STM32F4xx_HAL_Driver/Src/stm32f4xx_hal_exti.c ****       break;
 811              		.loc 1 377 7 is_stmt 1 view .LVU231
 812 0008 7047     		bx	lr
 813              	.L73:
 378:/home/vtrnnhlinh/STM32Cube/Repository/STM32Cube_FW_F4_V1.28.0/Drivers/STM32F4xx_HAL_Driver/Src/stm32f4xx_hal_exti.c **** 
 379:/home/vtrnnhlinh/STM32Cube/Repository/STM32Cube_FW_F4_V1.28.0/Drivers/STM32F4xx_HAL_Driver/Src/stm32f4xx_hal_exti.c ****     default:
 380:/home/vtrnnhlinh/STM32Cube/Repository/STM32Cube_FW_F4_V1.28.0/Drivers/STM32F4xx_HAL_Driver/Src/stm32f4xx_hal_exti.c ****       status = HAL_ERROR;
 814              		.loc 1 380 14 is_stmt 0 view .LVU232
 815 000a 0120     		movs	r0, #1
 816              	.LVL73:
 381:/home/vtrnnhlinh/STM32Cube/Repository/STM32Cube_FW_F4_V1.28.0/Drivers/STM32F4xx_HAL_Driver/Src/stm32f4xx_hal_exti.c ****       break;
 382:/home/vtrnnhlinh/STM32Cube/Repository/STM32Cube_FW_F4_V1.28.0/Drivers/STM32F4xx_HAL_Driver/Src/stm32f4xx_hal_exti.c ****   }
 383:/home/vtrnnhlinh/STM32Cube/Repository/STM32Cube_FW_F4_V1.28.0/Drivers/STM32F4xx_HAL_Driver/Src/stm32f4xx_hal_exti.c **** 
 384:/home/vtrnnhlinh/STM32Cube/Repository/STM32Cube_FW_F4_V1.28.0/Drivers/STM32F4xx_HAL_Driver/Src/stm32f4xx_hal_exti.c ****   return status;
 817              		.loc 1 384 3 is_stmt 1 view .LVU233
 385:/home/vtrnnhlinh/STM32Cube/Repository/STM32Cube_FW_F4_V1.28.0/Drivers/STM32F4xx_HAL_Driver/Src/stm32f4xx_hal_exti.c **** }
 818              		.loc 1 385 1 is_stmt 0 view .LVU234
 819 000c 7047     		bx	lr
 820              		.cfi_endproc
 821              	.LFE137:
 823              		.section	.text.HAL_EXTI_GetHandle,"ax",%progbits
 824              		.align	1
 825              		.global	HAL_EXTI_GetHandle
 826              		.syntax unified
 827              		.thumb
 828              		.thumb_func
 829              		.fpu fpv4-sp-d16
 831              	HAL_EXTI_GetHandle:
 832              	.LVL74:
 833              	.LFB138:
 386:/home/vtrnnhlinh/STM32Cube/Repository/STM32Cube_FW_F4_V1.28.0/Drivers/STM32F4xx_HAL_Driver/Src/stm32f4xx_hal_exti.c **** 
 387:/home/vtrnnhlinh/STM32Cube/Repository/STM32Cube_FW_F4_V1.28.0/Drivers/STM32F4xx_HAL_Driver/Src/stm32f4xx_hal_exti.c **** /**
 388:/home/vtrnnhlinh/STM32Cube/Repository/STM32Cube_FW_F4_V1.28.0/Drivers/STM32F4xx_HAL_Driver/Src/stm32f4xx_hal_exti.c ****   * @brief  Store line number as handle private field.
 389:/home/vtrnnhlinh/STM32Cube/Repository/STM32Cube_FW_F4_V1.28.0/Drivers/STM32F4xx_HAL_Driver/Src/stm32f4xx_hal_exti.c ****   * @param  hexti Exti handle.
 390:/home/vtrnnhlinh/STM32Cube/Repository/STM32Cube_FW_F4_V1.28.0/Drivers/STM32F4xx_HAL_Driver/Src/stm32f4xx_hal_exti.c ****   * @param  ExtiLine Exti line number.
 391:/home/vtrnnhlinh/STM32Cube/Repository/STM32Cube_FW_F4_V1.28.0/Drivers/STM32F4xx_HAL_Driver/Src/stm32f4xx_hal_exti.c ****   *         This parameter can be from 0 to @ref EXTI_LINE_NB.
 392:/home/vtrnnhlinh/STM32Cube/Repository/STM32Cube_FW_F4_V1.28.0/Drivers/STM32F4xx_HAL_Driver/Src/stm32f4xx_hal_exti.c ****   * @retval HAL Status.
 393:/home/vtrnnhlinh/STM32Cube/Repository/STM32Cube_FW_F4_V1.28.0/Drivers/STM32F4xx_HAL_Driver/Src/stm32f4xx_hal_exti.c ****   */
 394:/home/vtrnnhlinh/STM32Cube/Repository/STM32Cube_FW_F4_V1.28.0/Drivers/STM32F4xx_HAL_Driver/Src/stm32f4xx_hal_exti.c **** HAL_StatusTypeDef HAL_EXTI_GetHandle(EXTI_HandleTypeDef *hexti, uint32_t ExtiLine)
 395:/home/vtrnnhlinh/STM32Cube/Repository/STM32Cube_FW_F4_V1.28.0/Drivers/STM32F4xx_HAL_Driver/Src/stm32f4xx_hal_exti.c **** {
 834              		.loc 1 395 1 is_stmt 1 view -0
 835              		.cfi_startproc
 836              		@ args = 0, pretend = 0, frame = 0
 837              		@ frame_needed = 0, uses_anonymous_args = 0
 838              		.loc 1 395 1 is_stmt 0 view .LVU236
 839 0000 38B5     		push	{r3, r4, r5, lr}
 840              	.LCFI9:
 841              		.cfi_def_cfa_offset 16
 842              		.cfi_offset 3, -16
 843              		.cfi_offset 4, -12
 844              		.cfi_offset 5, -8
 845              		.cfi_offset 14, -4
ARM GAS  /tmp/ccrTh7WC.s 			page 24


 846 0002 0546     		mov	r5, r0
 847 0004 0C46     		mov	r4, r1
 396:/home/vtrnnhlinh/STM32Cube/Repository/STM32Cube_FW_F4_V1.28.0/Drivers/STM32F4xx_HAL_Driver/Src/stm32f4xx_hal_exti.c ****   /* Check the parameters */
 397:/home/vtrnnhlinh/STM32Cube/Repository/STM32Cube_FW_F4_V1.28.0/Drivers/STM32F4xx_HAL_Driver/Src/stm32f4xx_hal_exti.c ****   assert_param(IS_EXTI_LINE(ExtiLine));
 848              		.loc 1 397 3 is_stmt 1 view .LVU237
 849 0006 21F0C063 		bic	r3, r1, #100663296
 850 000a 23F01F03 		bic	r3, r3, #31
 851 000e 3BB9     		cbnz	r3, .L75
 852              		.loc 1 397 3 is_stmt 0 discriminator 2 view .LVU238
 853 0010 01F0C063 		and	r3, r1, #100663296
 854 0014 B3F1007F 		cmp	r3, #33554432
 855 0018 0BD0     		beq	.L76
 856              		.loc 1 397 3 discriminator 3 view .LVU239
 857 001a B3F1C06F 		cmp	r3, #100663296
 858 001e 08D0     		beq	.L76
 859              	.L75:
 860              		.loc 1 397 3 discriminator 7 view .LVU240
 861 0020 40F28D11 		movw	r1, #397
 862              	.LVL75:
 863              		.loc 1 397 3 discriminator 7 view .LVU241
 864 0024 0648     		ldr	r0, .L81
 865              	.LVL76:
 866              		.loc 1 397 3 discriminator 7 view .LVU242
 867 0026 FFF7FEFF 		bl	assert_failed
 868              	.LVL77:
 869              	.L77:
 398:/home/vtrnnhlinh/STM32Cube/Repository/STM32Cube_FW_F4_V1.28.0/Drivers/STM32F4xx_HAL_Driver/Src/stm32f4xx_hal_exti.c **** 
 399:/home/vtrnnhlinh/STM32Cube/Repository/STM32Cube_FW_F4_V1.28.0/Drivers/STM32F4xx_HAL_Driver/Src/stm32f4xx_hal_exti.c ****   /* Check null pointer */
 400:/home/vtrnnhlinh/STM32Cube/Repository/STM32Cube_FW_F4_V1.28.0/Drivers/STM32F4xx_HAL_Driver/Src/stm32f4xx_hal_exti.c ****   if (hexti == NULL)
 870              		.loc 1 400 3 is_stmt 1 view .LVU243
 871              		.loc 1 400 6 is_stmt 0 view .LVU244
 872 002a 3DB1     		cbz	r5, .L79
 401:/home/vtrnnhlinh/STM32Cube/Repository/STM32Cube_FW_F4_V1.28.0/Drivers/STM32F4xx_HAL_Driver/Src/stm32f4xx_hal_exti.c ****   {
 402:/home/vtrnnhlinh/STM32Cube/Repository/STM32Cube_FW_F4_V1.28.0/Drivers/STM32F4xx_HAL_Driver/Src/stm32f4xx_hal_exti.c ****     return HAL_ERROR;
 403:/home/vtrnnhlinh/STM32Cube/Repository/STM32Cube_FW_F4_V1.28.0/Drivers/STM32F4xx_HAL_Driver/Src/stm32f4xx_hal_exti.c ****   }
 404:/home/vtrnnhlinh/STM32Cube/Repository/STM32Cube_FW_F4_V1.28.0/Drivers/STM32F4xx_HAL_Driver/Src/stm32f4xx_hal_exti.c ****   else
 405:/home/vtrnnhlinh/STM32Cube/Repository/STM32Cube_FW_F4_V1.28.0/Drivers/STM32F4xx_HAL_Driver/Src/stm32f4xx_hal_exti.c ****   {
 406:/home/vtrnnhlinh/STM32Cube/Repository/STM32Cube_FW_F4_V1.28.0/Drivers/STM32F4xx_HAL_Driver/Src/stm32f4xx_hal_exti.c ****     /* Store line number as handle private field */
 407:/home/vtrnnhlinh/STM32Cube/Repository/STM32Cube_FW_F4_V1.28.0/Drivers/STM32F4xx_HAL_Driver/Src/stm32f4xx_hal_exti.c ****     hexti->Line = ExtiLine;
 873              		.loc 1 407 5 is_stmt 1 view .LVU245
 874              		.loc 1 407 17 is_stmt 0 view .LVU246
 875 002c 2C60     		str	r4, [r5]
 408:/home/vtrnnhlinh/STM32Cube/Repository/STM32Cube_FW_F4_V1.28.0/Drivers/STM32F4xx_HAL_Driver/Src/stm32f4xx_hal_exti.c **** 
 409:/home/vtrnnhlinh/STM32Cube/Repository/STM32Cube_FW_F4_V1.28.0/Drivers/STM32F4xx_HAL_Driver/Src/stm32f4xx_hal_exti.c ****     return HAL_OK;
 876              		.loc 1 409 5 is_stmt 1 view .LVU247
 877              		.loc 1 409 12 is_stmt 0 view .LVU248
 878 002e 0020     		movs	r0, #0
 879              	.L78:
 410:/home/vtrnnhlinh/STM32Cube/Repository/STM32Cube_FW_F4_V1.28.0/Drivers/STM32F4xx_HAL_Driver/Src/stm32f4xx_hal_exti.c ****   }
 411:/home/vtrnnhlinh/STM32Cube/Repository/STM32Cube_FW_F4_V1.28.0/Drivers/STM32F4xx_HAL_Driver/Src/stm32f4xx_hal_exti.c **** }
 880              		.loc 1 411 1 view .LVU249
 881 0030 38BD     		pop	{r3, r4, r5, pc}
 882              	.LVL78:
 883              	.L76:
 397:/home/vtrnnhlinh/STM32Cube/Repository/STM32Cube_FW_F4_V1.28.0/Drivers/STM32F4xx_HAL_Driver/Src/stm32f4xx_hal_exti.c **** 
 884              		.loc 1 397 3 discriminator 6 view .LVU250
 885 0032 04F01F03 		and	r3, r4, #31
ARM GAS  /tmp/ccrTh7WC.s 			page 25


 886 0036 162B     		cmp	r3, #22
 887 0038 F7D9     		bls	.L77
 888 003a F1E7     		b	.L75
 889              	.LVL79:
 890              	.L79:
 402:/home/vtrnnhlinh/STM32Cube/Repository/STM32Cube_FW_F4_V1.28.0/Drivers/STM32F4xx_HAL_Driver/Src/stm32f4xx_hal_exti.c ****   }
 891              		.loc 1 402 12 view .LVU251
 892 003c 0120     		movs	r0, #1
 893 003e F7E7     		b	.L78
 894              	.L82:
 895              		.align	2
 896              	.L81:
 897 0040 00000000 		.word	.LC0
 898              		.cfi_endproc
 899              	.LFE138:
 901              		.section	.text.HAL_EXTI_IRQHandler,"ax",%progbits
 902              		.align	1
 903              		.global	HAL_EXTI_IRQHandler
 904              		.syntax unified
 905              		.thumb
 906              		.thumb_func
 907              		.fpu fpv4-sp-d16
 909              	HAL_EXTI_IRQHandler:
 910              	.LVL80:
 911              	.LFB139:
 412:/home/vtrnnhlinh/STM32Cube/Repository/STM32Cube_FW_F4_V1.28.0/Drivers/STM32F4xx_HAL_Driver/Src/stm32f4xx_hal_exti.c **** 
 413:/home/vtrnnhlinh/STM32Cube/Repository/STM32Cube_FW_F4_V1.28.0/Drivers/STM32F4xx_HAL_Driver/Src/stm32f4xx_hal_exti.c **** /**
 414:/home/vtrnnhlinh/STM32Cube/Repository/STM32Cube_FW_F4_V1.28.0/Drivers/STM32F4xx_HAL_Driver/Src/stm32f4xx_hal_exti.c ****   * @}
 415:/home/vtrnnhlinh/STM32Cube/Repository/STM32Cube_FW_F4_V1.28.0/Drivers/STM32F4xx_HAL_Driver/Src/stm32f4xx_hal_exti.c ****   */
 416:/home/vtrnnhlinh/STM32Cube/Repository/STM32Cube_FW_F4_V1.28.0/Drivers/STM32F4xx_HAL_Driver/Src/stm32f4xx_hal_exti.c **** 
 417:/home/vtrnnhlinh/STM32Cube/Repository/STM32Cube_FW_F4_V1.28.0/Drivers/STM32F4xx_HAL_Driver/Src/stm32f4xx_hal_exti.c **** /** @addtogroup EXTI_Exported_Functions_Group2
 418:/home/vtrnnhlinh/STM32Cube/Repository/STM32Cube_FW_F4_V1.28.0/Drivers/STM32F4xx_HAL_Driver/Src/stm32f4xx_hal_exti.c ****   *  @brief EXTI IO functions.
 419:/home/vtrnnhlinh/STM32Cube/Repository/STM32Cube_FW_F4_V1.28.0/Drivers/STM32F4xx_HAL_Driver/Src/stm32f4xx_hal_exti.c ****   *
 420:/home/vtrnnhlinh/STM32Cube/Repository/STM32Cube_FW_F4_V1.28.0/Drivers/STM32F4xx_HAL_Driver/Src/stm32f4xx_hal_exti.c **** @verbatim
 421:/home/vtrnnhlinh/STM32Cube/Repository/STM32Cube_FW_F4_V1.28.0/Drivers/STM32F4xx_HAL_Driver/Src/stm32f4xx_hal_exti.c ****  ===============================================================================
 422:/home/vtrnnhlinh/STM32Cube/Repository/STM32Cube_FW_F4_V1.28.0/Drivers/STM32F4xx_HAL_Driver/Src/stm32f4xx_hal_exti.c ****                        ##### IO operation functions #####
 423:/home/vtrnnhlinh/STM32Cube/Repository/STM32Cube_FW_F4_V1.28.0/Drivers/STM32F4xx_HAL_Driver/Src/stm32f4xx_hal_exti.c ****  ===============================================================================
 424:/home/vtrnnhlinh/STM32Cube/Repository/STM32Cube_FW_F4_V1.28.0/Drivers/STM32F4xx_HAL_Driver/Src/stm32f4xx_hal_exti.c **** 
 425:/home/vtrnnhlinh/STM32Cube/Repository/STM32Cube_FW_F4_V1.28.0/Drivers/STM32F4xx_HAL_Driver/Src/stm32f4xx_hal_exti.c **** @endverbatim
 426:/home/vtrnnhlinh/STM32Cube/Repository/STM32Cube_FW_F4_V1.28.0/Drivers/STM32F4xx_HAL_Driver/Src/stm32f4xx_hal_exti.c ****   * @{
 427:/home/vtrnnhlinh/STM32Cube/Repository/STM32Cube_FW_F4_V1.28.0/Drivers/STM32F4xx_HAL_Driver/Src/stm32f4xx_hal_exti.c ****   */
 428:/home/vtrnnhlinh/STM32Cube/Repository/STM32Cube_FW_F4_V1.28.0/Drivers/STM32F4xx_HAL_Driver/Src/stm32f4xx_hal_exti.c **** 
 429:/home/vtrnnhlinh/STM32Cube/Repository/STM32Cube_FW_F4_V1.28.0/Drivers/STM32F4xx_HAL_Driver/Src/stm32f4xx_hal_exti.c **** /**
 430:/home/vtrnnhlinh/STM32Cube/Repository/STM32Cube_FW_F4_V1.28.0/Drivers/STM32F4xx_HAL_Driver/Src/stm32f4xx_hal_exti.c ****   * @brief  Handle EXTI interrupt request.
 431:/home/vtrnnhlinh/STM32Cube/Repository/STM32Cube_FW_F4_V1.28.0/Drivers/STM32F4xx_HAL_Driver/Src/stm32f4xx_hal_exti.c ****   * @param  hexti Exti handle.
 432:/home/vtrnnhlinh/STM32Cube/Repository/STM32Cube_FW_F4_V1.28.0/Drivers/STM32F4xx_HAL_Driver/Src/stm32f4xx_hal_exti.c ****   * @retval none.
 433:/home/vtrnnhlinh/STM32Cube/Repository/STM32Cube_FW_F4_V1.28.0/Drivers/STM32F4xx_HAL_Driver/Src/stm32f4xx_hal_exti.c ****   */
 434:/home/vtrnnhlinh/STM32Cube/Repository/STM32Cube_FW_F4_V1.28.0/Drivers/STM32F4xx_HAL_Driver/Src/stm32f4xx_hal_exti.c **** void HAL_EXTI_IRQHandler(EXTI_HandleTypeDef *hexti)
 435:/home/vtrnnhlinh/STM32Cube/Repository/STM32Cube_FW_F4_V1.28.0/Drivers/STM32F4xx_HAL_Driver/Src/stm32f4xx_hal_exti.c **** {
 912              		.loc 1 435 1 is_stmt 1 view -0
 913              		.cfi_startproc
 914              		@ args = 0, pretend = 0, frame = 0
 915              		@ frame_needed = 0, uses_anonymous_args = 0
 916              		.loc 1 435 1 is_stmt 0 view .LVU253
 917 0000 08B5     		push	{r3, lr}
 918              	.LCFI10:
 919              		.cfi_def_cfa_offset 8
ARM GAS  /tmp/ccrTh7WC.s 			page 26


 920              		.cfi_offset 3, -8
 921              		.cfi_offset 14, -4
 436:/home/vtrnnhlinh/STM32Cube/Repository/STM32Cube_FW_F4_V1.28.0/Drivers/STM32F4xx_HAL_Driver/Src/stm32f4xx_hal_exti.c ****   uint32_t regval;
 922              		.loc 1 436 3 is_stmt 1 view .LVU254
 437:/home/vtrnnhlinh/STM32Cube/Repository/STM32Cube_FW_F4_V1.28.0/Drivers/STM32F4xx_HAL_Driver/Src/stm32f4xx_hal_exti.c ****   uint32_t maskline;
 923              		.loc 1 437 3 view .LVU255
 438:/home/vtrnnhlinh/STM32Cube/Repository/STM32Cube_FW_F4_V1.28.0/Drivers/STM32F4xx_HAL_Driver/Src/stm32f4xx_hal_exti.c **** 
 439:/home/vtrnnhlinh/STM32Cube/Repository/STM32Cube_FW_F4_V1.28.0/Drivers/STM32F4xx_HAL_Driver/Src/stm32f4xx_hal_exti.c ****   /* Compute line mask */
 440:/home/vtrnnhlinh/STM32Cube/Repository/STM32Cube_FW_F4_V1.28.0/Drivers/STM32F4xx_HAL_Driver/Src/stm32f4xx_hal_exti.c ****   maskline = (1uL << (hexti->Line & EXTI_PIN_MASK));
 924              		.loc 1 440 3 view .LVU256
 925              		.loc 1 440 28 is_stmt 0 view .LVU257
 926 0002 0368     		ldr	r3, [r0]
 927              		.loc 1 440 35 view .LVU258
 928 0004 03F01F02 		and	r2, r3, #31
 929              		.loc 1 440 12 view .LVU259
 930 0008 0123     		movs	r3, #1
 931 000a 9340     		lsls	r3, r3, r2
 932              	.LVL81:
 441:/home/vtrnnhlinh/STM32Cube/Repository/STM32Cube_FW_F4_V1.28.0/Drivers/STM32F4xx_HAL_Driver/Src/stm32f4xx_hal_exti.c **** 
 442:/home/vtrnnhlinh/STM32Cube/Repository/STM32Cube_FW_F4_V1.28.0/Drivers/STM32F4xx_HAL_Driver/Src/stm32f4xx_hal_exti.c ****   /* Get pending bit  */
 443:/home/vtrnnhlinh/STM32Cube/Repository/STM32Cube_FW_F4_V1.28.0/Drivers/STM32F4xx_HAL_Driver/Src/stm32f4xx_hal_exti.c ****   regval = (EXTI->PR & maskline);
 933              		.loc 1 443 3 is_stmt 1 view .LVU260
 934              		.loc 1 443 17 is_stmt 0 view .LVU261
 935 000c 044A     		ldr	r2, .L86
 936 000e 5269     		ldr	r2, [r2, #20]
 937              	.LVL82:
 444:/home/vtrnnhlinh/STM32Cube/Repository/STM32Cube_FW_F4_V1.28.0/Drivers/STM32F4xx_HAL_Driver/Src/stm32f4xx_hal_exti.c ****   if (regval != 0x00u)
 938              		.loc 1 444 3 is_stmt 1 view .LVU262
 939              		.loc 1 444 6 is_stmt 0 view .LVU263
 940 0010 1A42     		tst	r2, r3
 941 0012 04D0     		beq	.L83
 445:/home/vtrnnhlinh/STM32Cube/Repository/STM32Cube_FW_F4_V1.28.0/Drivers/STM32F4xx_HAL_Driver/Src/stm32f4xx_hal_exti.c ****   {
 446:/home/vtrnnhlinh/STM32Cube/Repository/STM32Cube_FW_F4_V1.28.0/Drivers/STM32F4xx_HAL_Driver/Src/stm32f4xx_hal_exti.c ****     /* Clear pending bit */
 447:/home/vtrnnhlinh/STM32Cube/Repository/STM32Cube_FW_F4_V1.28.0/Drivers/STM32F4xx_HAL_Driver/Src/stm32f4xx_hal_exti.c ****     EXTI->PR = maskline;
 942              		.loc 1 447 5 is_stmt 1 view .LVU264
 943              		.loc 1 447 14 is_stmt 0 view .LVU265
 944 0014 024A     		ldr	r2, .L86
 945              	.LVL83:
 946              		.loc 1 447 14 view .LVU266
 947 0016 5361     		str	r3, [r2, #20]
 448:/home/vtrnnhlinh/STM32Cube/Repository/STM32Cube_FW_F4_V1.28.0/Drivers/STM32F4xx_HAL_Driver/Src/stm32f4xx_hal_exti.c **** 
 449:/home/vtrnnhlinh/STM32Cube/Repository/STM32Cube_FW_F4_V1.28.0/Drivers/STM32F4xx_HAL_Driver/Src/stm32f4xx_hal_exti.c ****     /* Call callback */
 450:/home/vtrnnhlinh/STM32Cube/Repository/STM32Cube_FW_F4_V1.28.0/Drivers/STM32F4xx_HAL_Driver/Src/stm32f4xx_hal_exti.c ****     if (hexti->PendingCallback != NULL)
 948              		.loc 1 450 5 is_stmt 1 view .LVU267
 949              		.loc 1 450 14 is_stmt 0 view .LVU268
 950 0018 4368     		ldr	r3, [r0, #4]
 951              	.LVL84:
 952              		.loc 1 450 8 view .LVU269
 953 001a 03B1     		cbz	r3, .L83
 451:/home/vtrnnhlinh/STM32Cube/Repository/STM32Cube_FW_F4_V1.28.0/Drivers/STM32F4xx_HAL_Driver/Src/stm32f4xx_hal_exti.c ****     {
 452:/home/vtrnnhlinh/STM32Cube/Repository/STM32Cube_FW_F4_V1.28.0/Drivers/STM32F4xx_HAL_Driver/Src/stm32f4xx_hal_exti.c ****       hexti->PendingCallback();
 954              		.loc 1 452 7 is_stmt 1 view .LVU270
 955 001c 9847     		blx	r3
 956              	.LVL85:
 957              	.L83:
 453:/home/vtrnnhlinh/STM32Cube/Repository/STM32Cube_FW_F4_V1.28.0/Drivers/STM32F4xx_HAL_Driver/Src/stm32f4xx_hal_exti.c ****     }
 454:/home/vtrnnhlinh/STM32Cube/Repository/STM32Cube_FW_F4_V1.28.0/Drivers/STM32F4xx_HAL_Driver/Src/stm32f4xx_hal_exti.c ****   }
ARM GAS  /tmp/ccrTh7WC.s 			page 27


 455:/home/vtrnnhlinh/STM32Cube/Repository/STM32Cube_FW_F4_V1.28.0/Drivers/STM32F4xx_HAL_Driver/Src/stm32f4xx_hal_exti.c **** }
 958              		.loc 1 455 1 is_stmt 0 view .LVU271
 959 001e 08BD     		pop	{r3, pc}
 960              	.L87:
 961              		.align	2
 962              	.L86:
 963 0020 003C0140 		.word	1073822720
 964              		.cfi_endproc
 965              	.LFE139:
 967              		.section	.text.HAL_EXTI_GetPending,"ax",%progbits
 968              		.align	1
 969              		.global	HAL_EXTI_GetPending
 970              		.syntax unified
 971              		.thumb
 972              		.thumb_func
 973              		.fpu fpv4-sp-d16
 975              	HAL_EXTI_GetPending:
 976              	.LVL86:
 977              	.LFB140:
 456:/home/vtrnnhlinh/STM32Cube/Repository/STM32Cube_FW_F4_V1.28.0/Drivers/STM32F4xx_HAL_Driver/Src/stm32f4xx_hal_exti.c **** 
 457:/home/vtrnnhlinh/STM32Cube/Repository/STM32Cube_FW_F4_V1.28.0/Drivers/STM32F4xx_HAL_Driver/Src/stm32f4xx_hal_exti.c **** /**
 458:/home/vtrnnhlinh/STM32Cube/Repository/STM32Cube_FW_F4_V1.28.0/Drivers/STM32F4xx_HAL_Driver/Src/stm32f4xx_hal_exti.c ****   * @brief  Get interrupt pending bit of a dedicated line.
 459:/home/vtrnnhlinh/STM32Cube/Repository/STM32Cube_FW_F4_V1.28.0/Drivers/STM32F4xx_HAL_Driver/Src/stm32f4xx_hal_exti.c ****   * @param  hexti Exti handle.
 460:/home/vtrnnhlinh/STM32Cube/Repository/STM32Cube_FW_F4_V1.28.0/Drivers/STM32F4xx_HAL_Driver/Src/stm32f4xx_hal_exti.c ****   * @param  Edge Specify which pending edge as to be checked.
 461:/home/vtrnnhlinh/STM32Cube/Repository/STM32Cube_FW_F4_V1.28.0/Drivers/STM32F4xx_HAL_Driver/Src/stm32f4xx_hal_exti.c ****   *         This parameter can be one of the following values:
 462:/home/vtrnnhlinh/STM32Cube/Repository/STM32Cube_FW_F4_V1.28.0/Drivers/STM32F4xx_HAL_Driver/Src/stm32f4xx_hal_exti.c ****   *           @arg @ref EXTI_TRIGGER_RISING_FALLING
 463:/home/vtrnnhlinh/STM32Cube/Repository/STM32Cube_FW_F4_V1.28.0/Drivers/STM32F4xx_HAL_Driver/Src/stm32f4xx_hal_exti.c ****   *         This parameter is kept for compatibility with other series.
 464:/home/vtrnnhlinh/STM32Cube/Repository/STM32Cube_FW_F4_V1.28.0/Drivers/STM32F4xx_HAL_Driver/Src/stm32f4xx_hal_exti.c ****   * @retval 1 if interrupt is pending else 0.
 465:/home/vtrnnhlinh/STM32Cube/Repository/STM32Cube_FW_F4_V1.28.0/Drivers/STM32F4xx_HAL_Driver/Src/stm32f4xx_hal_exti.c ****   */
 466:/home/vtrnnhlinh/STM32Cube/Repository/STM32Cube_FW_F4_V1.28.0/Drivers/STM32F4xx_HAL_Driver/Src/stm32f4xx_hal_exti.c **** uint32_t HAL_EXTI_GetPending(EXTI_HandleTypeDef *hexti, uint32_t Edge)
 467:/home/vtrnnhlinh/STM32Cube/Repository/STM32Cube_FW_F4_V1.28.0/Drivers/STM32F4xx_HAL_Driver/Src/stm32f4xx_hal_exti.c **** {
 978              		.loc 1 467 1 is_stmt 1 view -0
 979              		.cfi_startproc
 980              		@ args = 0, pretend = 0, frame = 0
 981              		@ frame_needed = 0, uses_anonymous_args = 0
 982              		.loc 1 467 1 is_stmt 0 view .LVU273
 983 0000 38B5     		push	{r3, r4, r5, lr}
 984              	.LCFI11:
 985              		.cfi_def_cfa_offset 16
 986              		.cfi_offset 3, -16
 987              		.cfi_offset 4, -12
 988              		.cfi_offset 5, -8
 989              		.cfi_offset 14, -4
 990 0002 0446     		mov	r4, r0
 991 0004 0D46     		mov	r5, r1
 468:/home/vtrnnhlinh/STM32Cube/Repository/STM32Cube_FW_F4_V1.28.0/Drivers/STM32F4xx_HAL_Driver/Src/stm32f4xx_hal_exti.c ****   uint32_t regval;
 992              		.loc 1 468 3 is_stmt 1 view .LVU274
 469:/home/vtrnnhlinh/STM32Cube/Repository/STM32Cube_FW_F4_V1.28.0/Drivers/STM32F4xx_HAL_Driver/Src/stm32f4xx_hal_exti.c ****   uint32_t linepos;
 993              		.loc 1 469 3 view .LVU275
 470:/home/vtrnnhlinh/STM32Cube/Repository/STM32Cube_FW_F4_V1.28.0/Drivers/STM32F4xx_HAL_Driver/Src/stm32f4xx_hal_exti.c ****   uint32_t maskline;
 994              		.loc 1 470 3 view .LVU276
 471:/home/vtrnnhlinh/STM32Cube/Repository/STM32Cube_FW_F4_V1.28.0/Drivers/STM32F4xx_HAL_Driver/Src/stm32f4xx_hal_exti.c **** 
 472:/home/vtrnnhlinh/STM32Cube/Repository/STM32Cube_FW_F4_V1.28.0/Drivers/STM32F4xx_HAL_Driver/Src/stm32f4xx_hal_exti.c ****   /* Check parameters */
 473:/home/vtrnnhlinh/STM32Cube/Repository/STM32Cube_FW_F4_V1.28.0/Drivers/STM32F4xx_HAL_Driver/Src/stm32f4xx_hal_exti.c ****   assert_param(IS_EXTI_LINE(hexti->Line));
 995              		.loc 1 473 3 view .LVU277
 996 0006 0268     		ldr	r2, [r0]
 997 0008 22F0C063 		bic	r3, r2, #100663296
ARM GAS  /tmp/ccrTh7WC.s 			page 28


 998 000c 23F01F03 		bic	r3, r3, #31
 999 0010 3BB9     		cbnz	r3, .L89
 1000              		.loc 1 473 3 is_stmt 0 discriminator 2 view .LVU278
 1001 0012 02F0C063 		and	r3, r2, #100663296
 1002 0016 B3F1007F 		cmp	r3, #33554432
 1003 001a 18D0     		beq	.L90
 1004              		.loc 1 473 3 discriminator 3 view .LVU279
 1005 001c B3F1C06F 		cmp	r3, #100663296
 1006 0020 15D0     		beq	.L90
 1007              	.L89:
 1008              		.loc 1 473 3 discriminator 7 view .LVU280
 1009 0022 40F2D911 		movw	r1, #473
 1010              	.LVL87:
 1011              		.loc 1 473 3 discriminator 7 view .LVU281
 1012 0026 1248     		ldr	r0, .L97
 1013              	.LVL88:
 1014              		.loc 1 473 3 discriminator 7 view .LVU282
 1015 0028 FFF7FEFF 		bl	assert_failed
 1016              	.LVL89:
 1017              	.L91:
 474:/home/vtrnnhlinh/STM32Cube/Repository/STM32Cube_FW_F4_V1.28.0/Drivers/STM32F4xx_HAL_Driver/Src/stm32f4xx_hal_exti.c ****   assert_param(IS_EXTI_CONFIG_LINE(hexti->Line));
 1018              		.loc 1 474 3 is_stmt 1 view .LVU283
 1019 002c 2368     		ldr	r3, [r4]
 1020 002e 13F0007F 		tst	r3, #33554432
 1021 0032 11D0     		beq	.L95
 1022              	.L92:
 475:/home/vtrnnhlinh/STM32Cube/Repository/STM32Cube_FW_F4_V1.28.0/Drivers/STM32F4xx_HAL_Driver/Src/stm32f4xx_hal_exti.c ****   assert_param(IS_EXTI_PENDING_EDGE(Edge));
 1023              		.loc 1 475 3 view .LVU284
 1024 0034 032D     		cmp	r5, #3
 1025 0036 15D1     		bne	.L96
 1026              	.L93:
 476:/home/vtrnnhlinh/STM32Cube/Repository/STM32Cube_FW_F4_V1.28.0/Drivers/STM32F4xx_HAL_Driver/Src/stm32f4xx_hal_exti.c **** 
 477:/home/vtrnnhlinh/STM32Cube/Repository/STM32Cube_FW_F4_V1.28.0/Drivers/STM32F4xx_HAL_Driver/Src/stm32f4xx_hal_exti.c ****   /* Compute line mask */
 478:/home/vtrnnhlinh/STM32Cube/Repository/STM32Cube_FW_F4_V1.28.0/Drivers/STM32F4xx_HAL_Driver/Src/stm32f4xx_hal_exti.c ****   linepos = (hexti->Line & EXTI_PIN_MASK);
 1027              		.loc 1 478 3 view .LVU285
 1028              		.loc 1 478 19 is_stmt 0 view .LVU286
 1029 0038 2368     		ldr	r3, [r4]
 1030              		.loc 1 478 11 view .LVU287
 1031 003a 03F01F03 		and	r3, r3, #31
 1032              	.LVL90:
 479:/home/vtrnnhlinh/STM32Cube/Repository/STM32Cube_FW_F4_V1.28.0/Drivers/STM32F4xx_HAL_Driver/Src/stm32f4xx_hal_exti.c ****   maskline = (1uL << linepos);
 1033              		.loc 1 479 3 is_stmt 1 view .LVU288
 1034              		.loc 1 479 12 is_stmt 0 view .LVU289
 1035 003e 0120     		movs	r0, #1
 1036 0040 00FA03F2 		lsl	r2, r0, r3
 1037              	.LVL91:
 480:/home/vtrnnhlinh/STM32Cube/Repository/STM32Cube_FW_F4_V1.28.0/Drivers/STM32F4xx_HAL_Driver/Src/stm32f4xx_hal_exti.c **** 
 481:/home/vtrnnhlinh/STM32Cube/Repository/STM32Cube_FW_F4_V1.28.0/Drivers/STM32F4xx_HAL_Driver/Src/stm32f4xx_hal_exti.c ****   /* return 1 if bit is set else 0 */
 482:/home/vtrnnhlinh/STM32Cube/Repository/STM32Cube_FW_F4_V1.28.0/Drivers/STM32F4xx_HAL_Driver/Src/stm32f4xx_hal_exti.c ****   regval = ((EXTI->PR & maskline) >> linepos);
 1038              		.loc 1 482 3 is_stmt 1 view .LVU290
 1039              		.loc 1 482 18 is_stmt 0 view .LVU291
 1040 0044 0B49     		ldr	r1, .L97+4
 1041 0046 4869     		ldr	r0, [r1, #20]
 1042              		.loc 1 482 23 view .LVU292
 1043 0048 1040     		ands	r0, r0, r2
 1044              	.LVL92:
 483:/home/vtrnnhlinh/STM32Cube/Repository/STM32Cube_FW_F4_V1.28.0/Drivers/STM32F4xx_HAL_Driver/Src/stm32f4xx_hal_exti.c ****   return regval;
ARM GAS  /tmp/ccrTh7WC.s 			page 29


 1045              		.loc 1 483 3 is_stmt 1 view .LVU293
 484:/home/vtrnnhlinh/STM32Cube/Repository/STM32Cube_FW_F4_V1.28.0/Drivers/STM32F4xx_HAL_Driver/Src/stm32f4xx_hal_exti.c **** }
 1046              		.loc 1 484 1 is_stmt 0 view .LVU294
 1047 004a D840     		lsrs	r0, r0, r3
 1048              	.LVL93:
 1049              		.loc 1 484 1 view .LVU295
 1050 004c 38BD     		pop	{r3, r4, r5, pc}
 1051              	.LVL94:
 1052              	.L90:
 473:/home/vtrnnhlinh/STM32Cube/Repository/STM32Cube_FW_F4_V1.28.0/Drivers/STM32F4xx_HAL_Driver/Src/stm32f4xx_hal_exti.c ****   assert_param(IS_EXTI_CONFIG_LINE(hexti->Line));
 1053              		.loc 1 473 3 discriminator 6 view .LVU296
 1054 004e 02F01F02 		and	r2, r2, #31
 1055 0052 162A     		cmp	r2, #22
 1056 0054 EAD9     		bls	.L91
 1057 0056 E4E7     		b	.L89
 1058              	.LVL95:
 1059              	.L95:
 474:/home/vtrnnhlinh/STM32Cube/Repository/STM32Cube_FW_F4_V1.28.0/Drivers/STM32F4xx_HAL_Driver/Src/stm32f4xx_hal_exti.c ****   assert_param(IS_EXTI_PENDING_EDGE(Edge));
 1060              		.loc 1 474 3 discriminator 1 view .LVU297
 1061 0058 4FF4ED71 		mov	r1, #474
 1062 005c 0448     		ldr	r0, .L97
 1063 005e FFF7FEFF 		bl	assert_failed
 1064              	.LVL96:
 1065 0062 E7E7     		b	.L92
 1066              	.L96:
 475:/home/vtrnnhlinh/STM32Cube/Repository/STM32Cube_FW_F4_V1.28.0/Drivers/STM32F4xx_HAL_Driver/Src/stm32f4xx_hal_exti.c **** 
 1067              		.loc 1 475 3 discriminator 1 view .LVU298
 1068 0064 40F2DB11 		movw	r1, #475
 1069 0068 0148     		ldr	r0, .L97
 1070 006a FFF7FEFF 		bl	assert_failed
 1071              	.LVL97:
 1072 006e E3E7     		b	.L93
 1073              	.L98:
 1074              		.align	2
 1075              	.L97:
 1076 0070 00000000 		.word	.LC0
 1077 0074 003C0140 		.word	1073822720
 1078              		.cfi_endproc
 1079              	.LFE140:
 1081              		.section	.text.HAL_EXTI_ClearPending,"ax",%progbits
 1082              		.align	1
 1083              		.global	HAL_EXTI_ClearPending
 1084              		.syntax unified
 1085              		.thumb
 1086              		.thumb_func
 1087              		.fpu fpv4-sp-d16
 1089              	HAL_EXTI_ClearPending:
 1090              	.LVL98:
 1091              	.LFB141:
 485:/home/vtrnnhlinh/STM32Cube/Repository/STM32Cube_FW_F4_V1.28.0/Drivers/STM32F4xx_HAL_Driver/Src/stm32f4xx_hal_exti.c **** 
 486:/home/vtrnnhlinh/STM32Cube/Repository/STM32Cube_FW_F4_V1.28.0/Drivers/STM32F4xx_HAL_Driver/Src/stm32f4xx_hal_exti.c **** /**
 487:/home/vtrnnhlinh/STM32Cube/Repository/STM32Cube_FW_F4_V1.28.0/Drivers/STM32F4xx_HAL_Driver/Src/stm32f4xx_hal_exti.c ****   * @brief  Clear interrupt pending bit of a dedicated line.
 488:/home/vtrnnhlinh/STM32Cube/Repository/STM32Cube_FW_F4_V1.28.0/Drivers/STM32F4xx_HAL_Driver/Src/stm32f4xx_hal_exti.c ****   * @param  hexti Exti handle.
 489:/home/vtrnnhlinh/STM32Cube/Repository/STM32Cube_FW_F4_V1.28.0/Drivers/STM32F4xx_HAL_Driver/Src/stm32f4xx_hal_exti.c ****   * @param  Edge Specify which pending edge as to be clear.
 490:/home/vtrnnhlinh/STM32Cube/Repository/STM32Cube_FW_F4_V1.28.0/Drivers/STM32F4xx_HAL_Driver/Src/stm32f4xx_hal_exti.c ****   *         This parameter can be one of the following values:
 491:/home/vtrnnhlinh/STM32Cube/Repository/STM32Cube_FW_F4_V1.28.0/Drivers/STM32F4xx_HAL_Driver/Src/stm32f4xx_hal_exti.c ****   *           @arg @ref EXTI_TRIGGER_RISING_FALLING
 492:/home/vtrnnhlinh/STM32Cube/Repository/STM32Cube_FW_F4_V1.28.0/Drivers/STM32F4xx_HAL_Driver/Src/stm32f4xx_hal_exti.c ****   *         This parameter is kept for compatibility with other series.
ARM GAS  /tmp/ccrTh7WC.s 			page 30


 493:/home/vtrnnhlinh/STM32Cube/Repository/STM32Cube_FW_F4_V1.28.0/Drivers/STM32F4xx_HAL_Driver/Src/stm32f4xx_hal_exti.c ****   * @retval None.
 494:/home/vtrnnhlinh/STM32Cube/Repository/STM32Cube_FW_F4_V1.28.0/Drivers/STM32F4xx_HAL_Driver/Src/stm32f4xx_hal_exti.c ****   */
 495:/home/vtrnnhlinh/STM32Cube/Repository/STM32Cube_FW_F4_V1.28.0/Drivers/STM32F4xx_HAL_Driver/Src/stm32f4xx_hal_exti.c **** void HAL_EXTI_ClearPending(EXTI_HandleTypeDef *hexti, uint32_t Edge)
 496:/home/vtrnnhlinh/STM32Cube/Repository/STM32Cube_FW_F4_V1.28.0/Drivers/STM32F4xx_HAL_Driver/Src/stm32f4xx_hal_exti.c **** {
 1092              		.loc 1 496 1 is_stmt 1 view -0
 1093              		.cfi_startproc
 1094              		@ args = 0, pretend = 0, frame = 0
 1095              		@ frame_needed = 0, uses_anonymous_args = 0
 1096              		.loc 1 496 1 is_stmt 0 view .LVU300
 1097 0000 38B5     		push	{r3, r4, r5, lr}
 1098              	.LCFI12:
 1099              		.cfi_def_cfa_offset 16
 1100              		.cfi_offset 3, -16
 1101              		.cfi_offset 4, -12
 1102              		.cfi_offset 5, -8
 1103              		.cfi_offset 14, -4
 1104 0002 0446     		mov	r4, r0
 1105 0004 0D46     		mov	r5, r1
 497:/home/vtrnnhlinh/STM32Cube/Repository/STM32Cube_FW_F4_V1.28.0/Drivers/STM32F4xx_HAL_Driver/Src/stm32f4xx_hal_exti.c ****   uint32_t maskline;
 1106              		.loc 1 497 3 is_stmt 1 view .LVU301
 498:/home/vtrnnhlinh/STM32Cube/Repository/STM32Cube_FW_F4_V1.28.0/Drivers/STM32F4xx_HAL_Driver/Src/stm32f4xx_hal_exti.c **** 
 499:/home/vtrnnhlinh/STM32Cube/Repository/STM32Cube_FW_F4_V1.28.0/Drivers/STM32F4xx_HAL_Driver/Src/stm32f4xx_hal_exti.c ****   /* Check parameters */
 500:/home/vtrnnhlinh/STM32Cube/Repository/STM32Cube_FW_F4_V1.28.0/Drivers/STM32F4xx_HAL_Driver/Src/stm32f4xx_hal_exti.c ****   assert_param(IS_EXTI_LINE(hexti->Line));
 1107              		.loc 1 500 3 view .LVU302
 1108 0006 0268     		ldr	r2, [r0]
 1109 0008 22F0C063 		bic	r3, r2, #100663296
 1110 000c 23F01F03 		bic	r3, r3, #31
 1111 0010 3BB9     		cbnz	r3, .L100
 1112              		.loc 1 500 3 is_stmt 0 discriminator 2 view .LVU303
 1113 0012 02F0C063 		and	r3, r2, #100663296
 1114 0016 B3F1007F 		cmp	r3, #33554432
 1115 001a 15D0     		beq	.L101
 1116              		.loc 1 500 3 discriminator 3 view .LVU304
 1117 001c B3F1C06F 		cmp	r3, #100663296
 1118 0020 12D0     		beq	.L101
 1119              	.L100:
 1120              		.loc 1 500 3 discriminator 7 view .LVU305
 1121 0022 4FF4FA71 		mov	r1, #500
 1122              	.LVL99:
 1123              		.loc 1 500 3 discriminator 7 view .LVU306
 1124 0026 1148     		ldr	r0, .L108
 1125              	.LVL100:
 1126              		.loc 1 500 3 discriminator 7 view .LVU307
 1127 0028 FFF7FEFF 		bl	assert_failed
 1128              	.LVL101:
 1129              	.L102:
 501:/home/vtrnnhlinh/STM32Cube/Repository/STM32Cube_FW_F4_V1.28.0/Drivers/STM32F4xx_HAL_Driver/Src/stm32f4xx_hal_exti.c ****   assert_param(IS_EXTI_CONFIG_LINE(hexti->Line));
 1130              		.loc 1 501 3 is_stmt 1 view .LVU308
 1131 002c 2368     		ldr	r3, [r4]
 1132 002e 13F0007F 		tst	r3, #33554432
 1133 0032 0ED0     		beq	.L106
 1134              	.L103:
 502:/home/vtrnnhlinh/STM32Cube/Repository/STM32Cube_FW_F4_V1.28.0/Drivers/STM32F4xx_HAL_Driver/Src/stm32f4xx_hal_exti.c ****   assert_param(IS_EXTI_PENDING_EDGE(Edge));
 1135              		.loc 1 502 3 view .LVU309
 1136 0034 032D     		cmp	r5, #3
 1137 0036 12D1     		bne	.L107
 1138              	.L104:
ARM GAS  /tmp/ccrTh7WC.s 			page 31


 503:/home/vtrnnhlinh/STM32Cube/Repository/STM32Cube_FW_F4_V1.28.0/Drivers/STM32F4xx_HAL_Driver/Src/stm32f4xx_hal_exti.c **** 
 504:/home/vtrnnhlinh/STM32Cube/Repository/STM32Cube_FW_F4_V1.28.0/Drivers/STM32F4xx_HAL_Driver/Src/stm32f4xx_hal_exti.c ****   /* Compute line mask */
 505:/home/vtrnnhlinh/STM32Cube/Repository/STM32Cube_FW_F4_V1.28.0/Drivers/STM32F4xx_HAL_Driver/Src/stm32f4xx_hal_exti.c ****   maskline = (1uL << (hexti->Line & EXTI_PIN_MASK));
 1139              		.loc 1 505 3 view .LVU310
 1140              		.loc 1 505 28 is_stmt 0 view .LVU311
 1141 0038 2268     		ldr	r2, [r4]
 1142              		.loc 1 505 35 view .LVU312
 1143 003a 02F01F02 		and	r2, r2, #31
 1144              		.loc 1 505 12 view .LVU313
 1145 003e 0123     		movs	r3, #1
 1146 0040 9340     		lsls	r3, r3, r2
 1147              	.LVL102:
 506:/home/vtrnnhlinh/STM32Cube/Repository/STM32Cube_FW_F4_V1.28.0/Drivers/STM32F4xx_HAL_Driver/Src/stm32f4xx_hal_exti.c **** 
 507:/home/vtrnnhlinh/STM32Cube/Repository/STM32Cube_FW_F4_V1.28.0/Drivers/STM32F4xx_HAL_Driver/Src/stm32f4xx_hal_exti.c ****   /* Clear Pending bit */
 508:/home/vtrnnhlinh/STM32Cube/Repository/STM32Cube_FW_F4_V1.28.0/Drivers/STM32F4xx_HAL_Driver/Src/stm32f4xx_hal_exti.c ****   EXTI->PR =  maskline;
 1148              		.loc 1 508 3 is_stmt 1 view .LVU314
 1149              		.loc 1 508 12 is_stmt 0 view .LVU315
 1150 0042 0B4A     		ldr	r2, .L108+4
 1151 0044 5361     		str	r3, [r2, #20]
 509:/home/vtrnnhlinh/STM32Cube/Repository/STM32Cube_FW_F4_V1.28.0/Drivers/STM32F4xx_HAL_Driver/Src/stm32f4xx_hal_exti.c **** }
 1152              		.loc 1 509 1 view .LVU316
 1153 0046 38BD     		pop	{r3, r4, r5, pc}
 1154              	.LVL103:
 1155              	.L101:
 500:/home/vtrnnhlinh/STM32Cube/Repository/STM32Cube_FW_F4_V1.28.0/Drivers/STM32F4xx_HAL_Driver/Src/stm32f4xx_hal_exti.c ****   assert_param(IS_EXTI_CONFIG_LINE(hexti->Line));
 1156              		.loc 1 500 3 discriminator 6 view .LVU317
 1157 0048 02F01F02 		and	r2, r2, #31
 1158 004c 162A     		cmp	r2, #22
 1159 004e EDD9     		bls	.L102
 1160 0050 E7E7     		b	.L100
 1161              	.LVL104:
 1162              	.L106:
 501:/home/vtrnnhlinh/STM32Cube/Repository/STM32Cube_FW_F4_V1.28.0/Drivers/STM32F4xx_HAL_Driver/Src/stm32f4xx_hal_exti.c ****   assert_param(IS_EXTI_PENDING_EDGE(Edge));
 1163              		.loc 1 501 3 discriminator 1 view .LVU318
 1164 0052 40F2F511 		movw	r1, #501
 1165 0056 0548     		ldr	r0, .L108
 1166 0058 FFF7FEFF 		bl	assert_failed
 1167              	.LVL105:
 1168 005c EAE7     		b	.L103
 1169              	.L107:
 502:/home/vtrnnhlinh/STM32Cube/Repository/STM32Cube_FW_F4_V1.28.0/Drivers/STM32F4xx_HAL_Driver/Src/stm32f4xx_hal_exti.c **** 
 1170              		.loc 1 502 3 discriminator 1 view .LVU319
 1171 005e 4FF4FB71 		mov	r1, #502
 1172 0062 0248     		ldr	r0, .L108
 1173 0064 FFF7FEFF 		bl	assert_failed
 1174              	.LVL106:
 1175 0068 E6E7     		b	.L104
 1176              	.L109:
 1177 006a 00BF     		.align	2
 1178              	.L108:
 1179 006c 00000000 		.word	.LC0
 1180 0070 003C0140 		.word	1073822720
 1181              		.cfi_endproc
 1182              	.LFE141:
 1184              		.section	.text.HAL_EXTI_GenerateSWI,"ax",%progbits
 1185              		.align	1
 1186              		.global	HAL_EXTI_GenerateSWI
ARM GAS  /tmp/ccrTh7WC.s 			page 32


 1187              		.syntax unified
 1188              		.thumb
 1189              		.thumb_func
 1190              		.fpu fpv4-sp-d16
 1192              	HAL_EXTI_GenerateSWI:
 1193              	.LVL107:
 1194              	.LFB142:
 510:/home/vtrnnhlinh/STM32Cube/Repository/STM32Cube_FW_F4_V1.28.0/Drivers/STM32F4xx_HAL_Driver/Src/stm32f4xx_hal_exti.c **** 
 511:/home/vtrnnhlinh/STM32Cube/Repository/STM32Cube_FW_F4_V1.28.0/Drivers/STM32F4xx_HAL_Driver/Src/stm32f4xx_hal_exti.c **** /**
 512:/home/vtrnnhlinh/STM32Cube/Repository/STM32Cube_FW_F4_V1.28.0/Drivers/STM32F4xx_HAL_Driver/Src/stm32f4xx_hal_exti.c ****   * @brief  Generate a software interrupt for a dedicated line.
 513:/home/vtrnnhlinh/STM32Cube/Repository/STM32Cube_FW_F4_V1.28.0/Drivers/STM32F4xx_HAL_Driver/Src/stm32f4xx_hal_exti.c ****   * @param  hexti Exti handle.
 514:/home/vtrnnhlinh/STM32Cube/Repository/STM32Cube_FW_F4_V1.28.0/Drivers/STM32F4xx_HAL_Driver/Src/stm32f4xx_hal_exti.c ****   * @retval None.
 515:/home/vtrnnhlinh/STM32Cube/Repository/STM32Cube_FW_F4_V1.28.0/Drivers/STM32F4xx_HAL_Driver/Src/stm32f4xx_hal_exti.c ****   */
 516:/home/vtrnnhlinh/STM32Cube/Repository/STM32Cube_FW_F4_V1.28.0/Drivers/STM32F4xx_HAL_Driver/Src/stm32f4xx_hal_exti.c **** void HAL_EXTI_GenerateSWI(EXTI_HandleTypeDef *hexti)
 517:/home/vtrnnhlinh/STM32Cube/Repository/STM32Cube_FW_F4_V1.28.0/Drivers/STM32F4xx_HAL_Driver/Src/stm32f4xx_hal_exti.c **** {
 1195              		.loc 1 517 1 is_stmt 1 view -0
 1196              		.cfi_startproc
 1197              		@ args = 0, pretend = 0, frame = 0
 1198              		@ frame_needed = 0, uses_anonymous_args = 0
 1199              		.loc 1 517 1 is_stmt 0 view .LVU321
 1200 0000 10B5     		push	{r4, lr}
 1201              	.LCFI13:
 1202              		.cfi_def_cfa_offset 8
 1203              		.cfi_offset 4, -8
 1204              		.cfi_offset 14, -4
 1205 0002 0446     		mov	r4, r0
 518:/home/vtrnnhlinh/STM32Cube/Repository/STM32Cube_FW_F4_V1.28.0/Drivers/STM32F4xx_HAL_Driver/Src/stm32f4xx_hal_exti.c ****   uint32_t maskline;
 1206              		.loc 1 518 3 is_stmt 1 view .LVU322
 519:/home/vtrnnhlinh/STM32Cube/Repository/STM32Cube_FW_F4_V1.28.0/Drivers/STM32F4xx_HAL_Driver/Src/stm32f4xx_hal_exti.c **** 
 520:/home/vtrnnhlinh/STM32Cube/Repository/STM32Cube_FW_F4_V1.28.0/Drivers/STM32F4xx_HAL_Driver/Src/stm32f4xx_hal_exti.c ****   /* Check parameters */
 521:/home/vtrnnhlinh/STM32Cube/Repository/STM32Cube_FW_F4_V1.28.0/Drivers/STM32F4xx_HAL_Driver/Src/stm32f4xx_hal_exti.c ****   assert_param(IS_EXTI_LINE(hexti->Line));
 1207              		.loc 1 521 3 view .LVU323
 1208 0004 0268     		ldr	r2, [r0]
 1209 0006 22F0C063 		bic	r3, r2, #100663296
 1210 000a 23F01F03 		bic	r3, r3, #31
 1211 000e 3BB9     		cbnz	r3, .L111
 1212              		.loc 1 521 3 is_stmt 0 discriminator 2 view .LVU324
 1213 0010 02F0C063 		and	r3, r2, #100663296
 1214 0014 B3F1007F 		cmp	r3, #33554432
 1215 0018 13D0     		beq	.L112
 1216              		.loc 1 521 3 discriminator 3 view .LVU325
 1217 001a B3F1C06F 		cmp	r3, #100663296
 1218 001e 10D0     		beq	.L112
 1219              	.L111:
 1220              		.loc 1 521 3 discriminator 7 view .LVU326
 1221 0020 40F20921 		movw	r1, #521
 1222 0024 0C48     		ldr	r0, .L117
 1223              	.LVL108:
 1224              		.loc 1 521 3 discriminator 7 view .LVU327
 1225 0026 FFF7FEFF 		bl	assert_failed
 1226              	.LVL109:
 1227              	.L113:
 522:/home/vtrnnhlinh/STM32Cube/Repository/STM32Cube_FW_F4_V1.28.0/Drivers/STM32F4xx_HAL_Driver/Src/stm32f4xx_hal_exti.c ****   assert_param(IS_EXTI_CONFIG_LINE(hexti->Line));
 1228              		.loc 1 522 3 is_stmt 1 view .LVU328
 1229 002a 2368     		ldr	r3, [r4]
 1230 002c 13F0007F 		tst	r3, #33554432
 1231 0030 0CD0     		beq	.L116
ARM GAS  /tmp/ccrTh7WC.s 			page 33


 1232              	.L114:
 523:/home/vtrnnhlinh/STM32Cube/Repository/STM32Cube_FW_F4_V1.28.0/Drivers/STM32F4xx_HAL_Driver/Src/stm32f4xx_hal_exti.c **** 
 524:/home/vtrnnhlinh/STM32Cube/Repository/STM32Cube_FW_F4_V1.28.0/Drivers/STM32F4xx_HAL_Driver/Src/stm32f4xx_hal_exti.c ****   /* Compute line mask */
 525:/home/vtrnnhlinh/STM32Cube/Repository/STM32Cube_FW_F4_V1.28.0/Drivers/STM32F4xx_HAL_Driver/Src/stm32f4xx_hal_exti.c ****   maskline = (1uL << (hexti->Line & EXTI_PIN_MASK));
 1233              		.loc 1 525 3 view .LVU329
 1234              		.loc 1 525 28 is_stmt 0 view .LVU330
 1235 0032 2268     		ldr	r2, [r4]
 1236              		.loc 1 525 35 view .LVU331
 1237 0034 02F01F02 		and	r2, r2, #31
 1238              		.loc 1 525 12 view .LVU332
 1239 0038 0123     		movs	r3, #1
 1240 003a 9340     		lsls	r3, r3, r2
 1241              	.LVL110:
 526:/home/vtrnnhlinh/STM32Cube/Repository/STM32Cube_FW_F4_V1.28.0/Drivers/STM32F4xx_HAL_Driver/Src/stm32f4xx_hal_exti.c **** 
 527:/home/vtrnnhlinh/STM32Cube/Repository/STM32Cube_FW_F4_V1.28.0/Drivers/STM32F4xx_HAL_Driver/Src/stm32f4xx_hal_exti.c ****   /* Generate Software interrupt */
 528:/home/vtrnnhlinh/STM32Cube/Repository/STM32Cube_FW_F4_V1.28.0/Drivers/STM32F4xx_HAL_Driver/Src/stm32f4xx_hal_exti.c ****   EXTI->SWIER = maskline;
 1242              		.loc 1 528 3 is_stmt 1 view .LVU333
 1243              		.loc 1 528 15 is_stmt 0 view .LVU334
 1244 003c 074A     		ldr	r2, .L117+4
 1245 003e 1361     		str	r3, [r2, #16]
 529:/home/vtrnnhlinh/STM32Cube/Repository/STM32Cube_FW_F4_V1.28.0/Drivers/STM32F4xx_HAL_Driver/Src/stm32f4xx_hal_exti.c **** }
 1246              		.loc 1 529 1 view .LVU335
 1247 0040 10BD     		pop	{r4, pc}
 1248              	.LVL111:
 1249              	.L112:
 521:/home/vtrnnhlinh/STM32Cube/Repository/STM32Cube_FW_F4_V1.28.0/Drivers/STM32F4xx_HAL_Driver/Src/stm32f4xx_hal_exti.c ****   assert_param(IS_EXTI_CONFIG_LINE(hexti->Line));
 1250              		.loc 1 521 3 discriminator 6 view .LVU336
 1251 0042 02F01F02 		and	r2, r2, #31
 1252 0046 162A     		cmp	r2, #22
 1253 0048 EFD9     		bls	.L113
 1254 004a E9E7     		b	.L111
 1255              	.LVL112:
 1256              	.L116:
 522:/home/vtrnnhlinh/STM32Cube/Repository/STM32Cube_FW_F4_V1.28.0/Drivers/STM32F4xx_HAL_Driver/Src/stm32f4xx_hal_exti.c **** 
 1257              		.loc 1 522 3 discriminator 1 view .LVU337
 1258 004c 40F20A21 		movw	r1, #522
 1259 0050 0148     		ldr	r0, .L117
 1260 0052 FFF7FEFF 		bl	assert_failed
 1261              	.LVL113:
 1262 0056 ECE7     		b	.L114
 1263              	.L118:
 1264              		.align	2
 1265              	.L117:
 1266 0058 00000000 		.word	.LC0
 1267 005c 003C0140 		.word	1073822720
 1268              		.cfi_endproc
 1269              	.LFE142:
 1271              		.text
 1272              	.Letext0:
 1273              		.file 2 "/usr/lib/gcc/arm-none-eabi/10.3.1/include/stdint.h"
 1274              		.file 3 "/home/vtrnnhlinh/STM32Cube/Repository/STM32Cube_FW_F4_V1.28.0/Drivers/CMSIS/Device/ST/STM
 1275              		.file 4 "/home/vtrnnhlinh/STM32Cube/Repository/STM32Cube_FW_F4_V1.28.0/Drivers/STM32F4xx_HAL_Drive
 1276              		.file 5 "/home/vtrnnhlinh/STM32Cube/Repository/STM32Cube_FW_F4_V1.28.0/Drivers/STM32F4xx_HAL_Drive
 1277              		.file 6 "Core/Inc/stm32f4xx_hal_conf.h"
ARM GAS  /tmp/ccrTh7WC.s 			page 34

